
DE2_115_SD_Card_Audio_Player.elf:     file format elf32-littlenios2
DE2_115_SD_Card_Audio_Player.elf
architecture: nios2, flags 0x00000112:
EXEC_P, HAS_SYMS, D_PAGED
start address 0x030401c4

Program Header:
    LOAD off    0x00001000 vaddr 0x03040000 paddr 0x03040000 align 2**12
         filesz 0x00000020 memsz 0x00000020 flags r-x
    LOAD off    0x00001020 vaddr 0x03040020 paddr 0x03040020 align 2**12
         filesz 0x0001ad0c memsz 0x0001ad0c flags r-x
    LOAD off    0x0001bd2c vaddr 0x0305ad2c paddr 0x0305ca88 align 2**12
         filesz 0x00001d5c memsz 0x00001d5c flags rw-
    LOAD off    0x0001d7e4 vaddr 0x0305e7e4 paddr 0x0305e7e4 align 2**12
         filesz 0x00000000 memsz 0x0000158c flags rw-

Sections:
Idx Name          Size      VMA       LMA       File off  Algn
  0 .entry        00000020  03040000  03040000  00001000  2**5
                  CONTENTS, ALLOC, LOAD, READONLY, CODE
  1 .exceptions   000001a4  03040020  03040020  00001020  2**2
                  CONTENTS, ALLOC, LOAD, READONLY, CODE
  2 .text         000197f4  030401c4  030401c4  000011c4  2**2
                  CONTENTS, ALLOC, LOAD, READONLY, CODE
  3 .rodata       00001374  030599b8  030599b8  0001a9b8  2**2
                  CONTENTS, ALLOC, LOAD, READONLY, DATA
  4 .rwdata       00001d5c  0305ad2c  0305ca88  0001bd2c  2**2
                  CONTENTS, ALLOC, LOAD, DATA, SMALL_DATA
  5 .bss          0000158c  0305e7e4  0305e7e4  0001d7e4  2**2
                  ALLOC, SMALL_DATA
  6 .comment      0000176a  00000000  00000000  0001da88  2**0
                  CONTENTS, READONLY
  7 .debug_aranges 000012b8  00000000  00000000  0001f1f8  2**3
                  CONTENTS, READONLY, DEBUGGING
  8 .debug_pubnames 00002785  00000000  00000000  000204b0  2**0
                  CONTENTS, READONLY, DEBUGGING
  9 .debug_info   0003a913  00000000  00000000  00022c35  2**0
                  CONTENTS, READONLY, DEBUGGING
 10 .debug_abbrev 0000bd06  00000000  00000000  0005d548  2**0
                  CONTENTS, READONLY, DEBUGGING
 11 .debug_line   00020731  00000000  00000000  0006924e  2**0
                  CONTENTS, READONLY, DEBUGGING
 12 .debug_frame  000033a4  00000000  00000000  00089980  2**2
                  CONTENTS, READONLY, DEBUGGING
 13 .debug_str    00002d80  00000000  00000000  0008cd24  2**0
                  CONTENTS, READONLY, DEBUGGING
 14 .debug_loc    0000c520  00000000  00000000  0008faa4  2**0
                  CONTENTS, READONLY, DEBUGGING
 15 .debug_alt_sim_info 00000060  00000000  00000000  0009bfc4  2**2
                  CONTENTS, READONLY, DEBUGGING
 16 .debug_ranges 00000708  00000000  00000000  0009c024  2**0
                  CONTENTS, READONLY, DEBUGGING
SYMBOL TABLE:
03040000 l    d  .entry	00000000 .entry
03040020 l    d  .exceptions	00000000 .exceptions
030401c4 l    d  .text	00000000 .text
030599b8 l    d  .rodata	00000000 .rodata
0305ad2c l    d  .rwdata	00000000 .rwdata
0305e7e4 l    d  .bss	00000000 .bss
00000000 l    d  .comment	00000000 .comment
00000000 l    d  .debug_aranges	00000000 .debug_aranges
00000000 l    d  .debug_pubnames	00000000 .debug_pubnames
00000000 l    d  .debug_info	00000000 .debug_info
00000000 l    d  .debug_abbrev	00000000 .debug_abbrev
00000000 l    d  .debug_line	00000000 .debug_line
00000000 l    d  .debug_frame	00000000 .debug_frame
00000000 l    d  .debug_str	00000000 .debug_str
00000000 l    d  .debug_loc	00000000 .debug_loc
00000000 l    d  .debug_alt_sim_info	00000000 .debug_alt_sim_info
00000000 l    d  .debug_ranges	00000000 .debug_ranges
00000000 l    df *ABS*	00000000 HAL/src/crt0.S
00000000 l    df *ABS*	00000000 ./HAL/inc/sys/alt_log_printf.h
00000000 l    df *ABS*	00000000 ./system.h
00000000 l    df *ABS*	00000000 ./HAL/inc/sys/alt_log_printf.h
00000000 l    df *ABS*	00000000 HAL/src/crt0.S
00000000 l    df *ABS*	00000000 ./HAL/inc/nios2.h
00000000 l    df *ABS*	00000000 HAL/src/crt0.S
00000000 l    df *ABS*	00000000 ./system.h
00000000 l    df *ABS*	00000000 ./linker.h
00000000 l    df *ABS*	00000000 ./system.h
00000000 l    df *ABS*	00000000 HAL/src/crt0.S
00000000 l    df *ABS*	00000000 <command line>
00000000 l    df *ABS*	00000000 <built-in>
00000000 l    df *ABS*	00000000 /cygdrive/c/Users/150664/Documents/Micro2/DE2_115_demonstrations/DE2_115_SD_Card_Audio_Player/Software/DE2_115_SD_Card_Audio_Player_bsp//
00000000 l    df *ABS*	00000000 HAL/src/crt0.S
0304020c l       .text	00000000 alt_after_alt_main
00000000 l    df *ABS*	00000000 HAL/src/alt_irq_entry.S
00000000 l    df *ABS*	00000000 ./system.h
00000000 l    df *ABS*	00000000 ./linker.h
00000000 l    df *ABS*	00000000 ./system.h
00000000 l    df *ABS*	00000000 HAL/src/alt_irq_entry.S
00000000 l    df *ABS*	00000000 <command line>
00000000 l    df *ABS*	00000000 <built-in>
00000000 l    df *ABS*	00000000 /cygdrive/c/Users/150664/Documents/Micro2/DE2_115_demonstrations/DE2_115_SD_Card_Audio_Player/Software/DE2_115_SD_Card_Audio_Player_bsp//
00000000 l    df *ABS*	00000000 HAL/src/alt_irq_entry.S
00000000 l    df *ABS*	00000000 HAL/src/alt_exception_entry.S
00000000 l    df *ABS*	00000000 ./system.h
00000000 l    df *ABS*	00000000 ./linker.h
00000000 l    df *ABS*	00000000 ./system.h
00000000 l    df *ABS*	00000000 HAL/src/alt_exception_entry.S
00000000 l    df *ABS*	00000000 <command line>
00000000 l    df *ABS*	00000000 <built-in>
00000000 l    df *ABS*	00000000 /cygdrive/c/Users/150664/Documents/Micro2/DE2_115_demonstrations/DE2_115_SD_Card_Audio_Player/Software/DE2_115_SD_Card_Audio_Player_bsp//
00000000 l    df *ABS*	00000000 HAL/src/alt_exception_entry.S
00000000 l    df *ABS*	00000000 alt_irq_handler.c
00000000 l    df *ABS*	00000000 main.c
0305e7e4 l     O .bss	00000004 nMute_Volume
0305e7e8 l     O .bss	00000004 bLastSwitch
0305e7ec l     O .bss	00000004 bNextSwitch
0305e7f0 l     O .bss	00000004 bMuteSwitch
0305ca14 l     O .rwdata	00000004 bPlaySwitch
0305f81c l     O .bss	0000023c gWavePlay
0305e818 l     O .bss	00001004 gWavePlayList
0305e7f4 l     O .bss	00000004 hFat
0305ca18 l     O .rwdata	00000004 bFirsTime2SetupVol.4075
0305ca1c l     O .rwdata	00000004 bFirsTime2SetupVol.4129
00000000 l    df *ABS*	00000000 FatFileSystem.c
00000000 l    df *ABS*	00000000 FatInternal.c
03059f95 l     O .rodata	00000011 C.32.3818
03059fa6 l     O .rodata	0000000f C.35.3847
00000000 l    df *ABS*	00000000 AUDIO.c
0305fa58 l     O .bss	00000028 reg_file
00000000 l    df *ABS*	00000000 I2C.c
00000000 l    df *ABS*	00000000 LCD.c
0305e7f8 l     O .bss	00000004 fp
00000000 l    df *ABS*	00000000 LED.c
00000000 l    df *ABS*	00000000 SEG7.c
0305ad2c l     O .rwdata	00000010 szMap
00000000 l    df *ABS*	00000000 WaveLib.c
00000000 l    df *ABS*	00000000 debug.c
00000000 l    df *ABS*	00000000 crc16.c
0305a42c l     O .rodata	00000200 crc16tab
00000000 l    df *ABS*	00000000 crc7.c
0305a62c l     O .rodata	00000100 crc7_syndrome_table
00000000 l    df *ABS*	00000000 sd_hal.c
00000000 l    df *ABS*	00000000 sd_lib.c
0305fa80 l     O .bss	00000038 gSdInfo
00000000 l    df *ABS*	00000000 sd_protocol.c
00000000 l    df *ABS*	00000000 fp-bit.c
00000000 l    df *ABS*	00000000 fp-bit.c
00000000 l    df *ABS*	00000000 fp-bit.c
00000000 l    df *ABS*	00000000 fp-bit.c
00000000 l    df *ABS*	00000000 fp-bit.c
00000000 l    df *ABS*	00000000 dp-bit.c
00000000 l    df *ABS*	00000000 dp-bit.c
00000000 l    df *ABS*	00000000 dp-bit.c
00000000 l    df *ABS*	00000000 dp-bit.c
00000000 l    df *ABS*	00000000 lib2-divmod.c
030496b0 l     F .text	0000007c udivmodsi4
00000000 l    df *ABS*	00000000 libgcc2.c
00000000 l    df *ABS*	00000000 libgcc2.c
00000000 l    df *ABS*	00000000 fp-bit.c
00000000 l    df *ABS*	00000000 fp-bit.c
00000000 l    df *ABS*	00000000 fp-bit.c
00000000 l    df *ABS*	00000000 dp-bit.c
00000000 l    df *ABS*	00000000 dp-bit.c
00000000 l    df *ABS*	00000000 libgcc2.c
00000000 l    df *ABS*	00000000 fclose.c
00000000 l    df *ABS*	00000000 fflush.c
00000000 l    df *ABS*	00000000 findfp.c
0304a318 l     F .text	00000058 std
0304a424 l     F .text	00000008 __fp_lock
0304a42c l     F .text	00000008 __fp_unlock
00000000 l    df *ABS*	00000000 fopen.c
00000000 l    df *ABS*	00000000 mallocr.c
00000000 l    df *ABS*	00000000 fseek.c
00000000 l    df *ABS*	00000000 fstatr.c
00000000 l    df *ABS*	00000000 fwalk.c
00000000 l    df *ABS*	00000000 fwrite.c
00000000 l    df *ABS*	00000000 impure.c
0305ad3c l     O .rwdata	00000400 impure_data
00000000 l    df *ABS*	00000000 int_errno.c
00000000 l    df *ABS*	00000000 makebuf.c
00000000 l    df *ABS*	00000000 malloc.c
00000000 l    df *ABS*	00000000 mallocr.c
00000000 l    df *ABS*	00000000 memcpy.c
00000000 l    df *ABS*	00000000 memset.c
00000000 l    df *ABS*	00000000 openr.c
00000000 l    df *ABS*	00000000 printf.c
00000000 l    df *ABS*	00000000 putchar.c
00000000 l    df *ABS*	00000000 puts.c
00000000 l    df *ABS*	00000000 refill.c
0304c020 l     F .text	0000001c lflush
00000000 l    df *ABS*	00000000 sbrkr.c
00000000 l    df *ABS*	00000000 sprintf.c
00000000 l    df *ABS*	00000000 stdio.c
00000000 l    df *ABS*	00000000 strcasecmp.c
00000000 l    df *ABS*	00000000 strcmp.c
00000000 l    df *ABS*	00000000 strcpy.c
00000000 l    df *ABS*	00000000 strlen.c
00000000 l    df *ABS*	00000000 vfprintf.c
0304c538 l     F .text	00000058 __sprint_r
0305a8c6 l     O .rodata	00000010 blanks.3452
0305a8b6 l     O .rodata	00000010 zeroes.3453
00000000 l    df *ABS*	00000000 vsnprintf.c
00000000 l    df *ABS*	00000000 writer.c
00000000 l    df *ABS*	00000000 wsetup.c
00000000 l    df *ABS*	00000000 closer.c
00000000 l    df *ABS*	00000000 ctype_.c
0305a9d7 l     O .rodata	00000180 _ctype_b
00000000 l    df *ABS*	00000000 dtoa.c
0304e61c l     F .text	00000208 quorem
00000000 l    df *ABS*	00000000 flags.c
00000000 l    df *ABS*	00000000 fvwrite.c
00000000 l    df *ABS*	00000000 isattyr.c
00000000 l    df *ABS*	00000000 locale.c
0305ca38 l     O .rwdata	00000004 charset
0305ab78 l     O .rodata	00000030 lconv
00000000 l    df *ABS*	00000000 lseekr.c
00000000 l    df *ABS*	00000000 memchr.c
00000000 l    df *ABS*	00000000 memmove.c
00000000 l    df *ABS*	00000000 mprec.c
0305acc0 l     O .rodata	0000000c p05.2458
00000000 l    df *ABS*	00000000 putc.c
00000000 l    df *ABS*	00000000 readr.c
00000000 l    df *ABS*	00000000 mallocr.c
00000000 l    df *ABS*	00000000 s_isinfd.c
00000000 l    df *ABS*	00000000 s_isnand.c
00000000 l    df *ABS*	00000000 wbuf.c
00000000 l    df *ABS*	00000000 mallocr.c
00000000 l    df *ABS*	00000000 dp-bit.c
030521f4 l     F .text	00000410 _fpadd_parts
00000000 l    df *ABS*	00000000 dp-bit.c
00000000 l    df *ABS*	00000000 dp-bit.c
00000000 l    df *ABS*	00000000 dp-bit.c
00000000 l    df *ABS*	00000000 dp-bit.c
00000000 l    df *ABS*	00000000 dp-bit.c
00000000 l    df *ABS*	00000000 dp-bit.c
00000000 l    df *ABS*	00000000 dp-bit.c
00000000 l    df *ABS*	00000000 dp-bit.c
00000000 l    df *ABS*	00000000 dp-bit.c
00000000 l    df *ABS*	00000000 dp-bit.c
00000000 l    df *ABS*	00000000 alt_close.c
0305329c l     F .text	00000048 alt_get_errno
00000000 l    df *ABS*	00000000 alt_dev.c
030532e4 l     F .text	00000028 alt_dev_null_write
00000000 l    df *ABS*	00000000 alt_errno.c
00000000 l    df *ABS*	00000000 alt_fstat.c
030533e0 l     F .text	00000048 alt_get_errno
00000000 l    df *ABS*	00000000 alt_irq_register.c
00000000 l    df *ABS*	00000000 alt_irq_vars.c
00000000 l    df *ABS*	00000000 alt_isatty.c
0305368c l     F .text	00000048 alt_get_errno
00000000 l    df *ABS*	00000000 alt_load.c
03053750 l     F .text	00000068 alt_load_section
00000000 l    df *ABS*	00000000 alt_lseek.c
030538a8 l     F .text	00000048 alt_get_errno
00000000 l    df *ABS*	00000000 alt_main.c
00000000 l    df *ABS*	00000000 alt_malloc_lock.c
00000000 l    df *ABS*	00000000 alt_open.c
03053998 l     F .text	000000c8 alt_file_locked
03053be0 l     F .text	00000048 alt_get_errno
00000000 l    df *ABS*	00000000 alt_read.c
03053d48 l     F .text	00000048 alt_get_errno
00000000 l    df *ABS*	00000000 alt_release_fd.c
00000000 l    df *ABS*	00000000 alt_sbrk.c
0305ca68 l     O .rwdata	00000004 heap_end
00000000 l    df *ABS*	00000000 alt_tick.c
00000000 l    df *ABS*	00000000 alt_usleep.c
00000000 l    df *ABS*	00000000 alt_write.c
03054194 l     F .text	00000048 alt_get_errno
00000000 l    df *ABS*	00000000 alt_sys_init.c
0305b6f8 l     O .rwdata	000000d8 av_tri_s1_cfi_flash_0
0305b7d0 l     O .rwdata	00001060 jtag_uart
0305c830 l     O .rwdata	00000120 lcd
0305c950 l     O .rwdata	000000c4 rs232
030542a8 l     F .text	00000030 alt_dev_reg
00000000 l    df *ABS*	00000000 altera_avalon_cfi_flash.c
03054370 l     F .text	00000030 alt_flash_device_register
00000000 l    df *ABS*	00000000 altera_avalon_cfi_flash_table.c
030550dc l     F .text	00000074 alt_read_16bit_query_entry
00000000 l    df *ABS*	00000000 altera_avalon_jtag_uart_fd.c
00000000 l    df *ABS*	00000000 altera_avalon_jtag_uart_init.c
03056034 l     F .text	0000021c altera_avalon_jtag_uart_irq
03056250 l     F .text	000000c0 altera_avalon_jtag_uart_timeout
00000000 l    df *ABS*	00000000 altera_avalon_jtag_uart_ioctl.c
00000000 l    df *ABS*	00000000 altera_avalon_jtag_uart_read.c
00000000 l    df *ABS*	00000000 altera_avalon_jtag_uart_write.c
00000000 l    df *ABS*	00000000 altera_avalon_lcd_16207.c
0305ca7c l     O .rwdata	00000004 colstart
030568fc l     F .text	000000a4 lcd_write_command
030569a0 l     F .text	000000c0 lcd_write_data
03056a60 l     F .text	000000c0 lcd_clear_screen
03056b20 l     F .text	000001b0 lcd_repaint_screen
03056cd0 l     F .text	000000b8 lcd_scroll_up
03056d88 l     F .text	00000244 lcd_handle_escape
03057438 l     F .text	00000094 alt_lcd_16207_timeout
00000000 l    df *ABS*	00000000 altera_avalon_lcd_16207_fd.c
00000000 l    df *ABS*	00000000 altera_avalon_timer_sc.c
0305764c l     F .text	00000074 alt_avalon_timer_sc_irq
00000000 l    df *ABS*	00000000 altera_avalon_uart_fd.c
00000000 l    df *ABS*	00000000 altera_avalon_uart_init.c
03057904 l     F .text	00000098 altera_avalon_uart_irq
0305799c l     F .text	000000e8 altera_avalon_uart_rxirq
03057a84 l     F .text	00000168 altera_avalon_uart_txirq
00000000 l    df *ABS*	00000000 altera_avalon_uart_read.c
03057e84 l     F .text	00000048 alt_get_errno
00000000 l    df *ABS*	00000000 altera_avalon_uart_write.c
030580a4 l     F .text	00000048 alt_get_errno
00000000 l    df *ABS*	00000000 alt_alarm_start.c
00000000 l    df *ABS*	00000000 alt_busy_sleep.c
00000000 l    df *ABS*	00000000 alt_dcache_flush.c
00000000 l    df *ABS*	00000000 alt_dcache_flush_all.c
00000000 l    df *ABS*	00000000 alt_dev_llist_insert.c
030584ec l     F .text	00000048 alt_get_errno
00000000 l    df *ABS*	00000000 alt_do_ctors.c
00000000 l    df *ABS*	00000000 alt_do_dtors.c
00000000 l    df *ABS*	00000000 alt_find_dev.c
00000000 l    df *ABS*	00000000 alt_find_file.c
00000000 l    df *ABS*	00000000 alt_flash_dev.c
00000000 l    df *ABS*	00000000 alt_get_fd.c
00000000 l    df *ABS*	00000000 alt_icache_flush_all.c
00000000 l    df *ABS*	00000000 alt_iic.c
00000000 l    df *ABS*	00000000 alt_iic_isr_register.c
00000000 l    df *ABS*	00000000 alt_io_redirect.c
03058b94 l     F .text	000000c0 alt_open_fd
00000000 l    df *ABS*	00000000 altera_nios2_qsys_irq.c
00000000 l    df *ABS*	00000000 altera_avalon_cfi_flash_amd.c
03059064 l     F .text	000000b8 alt_write_word_amd
03058f50 l     F .text	00000114 alt_wait_for_command_to_complete_amd
00000000 l    df *ABS*	00000000 altera_avalon_cfi_flash_intel.c
03059300 l     F .text	00000168 alt_unlock_block_intel
03059468 l     F .text	000000c4 alt_write_word_intel
00000000 l    df *ABS*	00000000 alt_icache_flush.c
00000000 l    df *ABS*	00000000 atexit.c
00000000 l    df *ABS*	00000000 exit.c
00000000 l    df *ABS*	00000000 memcmp.c
00000000 l    df *ABS*	00000000 __atexit.c
00000000 l    df *ABS*	00000000 __call_atexit.c
030597ac l     F .text	00000004 register_fini
00000000 l    df *ABS*	00000000 alt_exit.c
03059958 l     F .text	0000003c alt_sim_halt
0304bd84 g     F .text	0000001c putchar
03050b04 g     F .text	0000009c _mprec_log10
030457ac g     F .text	00000128 I2C_Read
03050bf8 g     F .text	00000088 __any_on
03050360 g     F .text	00000070 _isatty_r
0305ac98 g     O .rodata	00000028 __mprec_tinytens
03046874 g     F .text	00000064 Wave_GetWaveOffset
030538f0 g     F .text	00000070 alt_main
0304c438 g     F .text	0000008c strcpy
03040490 g     F .text	00000030 led_display_count
0304bda8 g     F .text	000000a0 _puts_r
03054ba4 g     F .text	0000003c alt_read_query_entry_32bit
03041d10 g     F .text	0000007c Fat_FileBrowseBegin
0305fae0 g     O .bss	00000100 alt_irq
03050494 g     F .text	00000078 _lseek_r
030543a0 g     F .text	000002b4 alt_flash_cfi_write
0305ca88 g       *ABS*	00000000 __flash_rwdata_start
03040fcc g     F .text	0000001c waveplay_stop
0304fe24 g     F .text	000000a0 __sflags
03052ac0 g     F .text	00000088 __eqdf2
030477b8 g     F .text	00000090 SDLIB_WriteBlock512
0305fd70 g       *ABS*	00000000 __alt_heap_start
03044918 g     F .text	000001c4 AUDIO_Init
0304bd0c g     F .text	00000044 printf
03048ca0 g     F .text	000001a4 SD_CMD24
03044b94 g     F .text	00000078 AUDIO_AdcEnableHighPassFilter
0304c188 g     F .text	00000068 __sseek
0304a380 g     F .text	000000a4 __sinit
03051ff0 g     F .text	00000130 __swbuf_r
030503f4 g     F .text	00000084 _setlocale_r
0304a480 g     F .text	00000068 __sfmoreglue
0305397c g     F .text	0000001c __malloc_unlock
03041d8c g     F .text	000004f8 Fat_FileBrowseNext
0304911c g     F .text	00000178 __divsf3
03046364 g     F .text	00000134 waveGetChunkOffset
03046bd4 g     F .text	0000002c SDHAL_IsSupport4Bits
03046b14 g     F .text	0000004c crc7_byte
03043890 g     F .text	000000a8 fatIsValidDir
03050608 g     F .text	000000e0 memmove
0304a470 g     F .text	00000010 _cleanup
03045464 g     F .text	000000fc aduio_RegWrite
03045684 g     F .text	0000002c AUDIO_FifoClear
03050c80 g     F .text	000000bc _Balloc
03045f78 g     F .text	0000002c LED_AllOff
03052bd0 g     F .text	00000088 __gtdf2
00000000  w      *UND*	00000000 __errno
03045630 g     F .text	00000054 AUDIO_AdcFifoGetData
03054d1c g     F .text	00000040 alt_write_flash_command_32bit_device_16bit_mode
03045b58 g     F .text	00000124 i2c_write
03040000 g     F .entry	0000001c __reset
03046d58 g     F .text	000002a0 SDHAL_GetResponse
03040020 g       *ABS*	00000000 __flash_exceptions_start
03045e88 g     F .text	00000088 LCD_Clear
0304af88 g     F .text	00000074 _fstat_r
03054874 g     F .text	000002b8 alt_flash_program_block
0305e7fc g     O .bss	00000004 errno
03049604 g     F .text	00000038 __make_dp
03040314 g     F .text	0000009c update_status
03043284 g     F .text	00000158 fatNextCluster
03049b40 g     F .text	0000002c __make_fp
0305ca60 g     O .rwdata	00000004 alt_argv
03064a14 g       *ABS*	00000000 _gp
03054048 g     F .text	0000002c usleep
0305b578 g     O .rwdata	00000180 alt_fd_list
0304bda0 g     F .text	00000008 _putchar_r
03040564 g     F .text	000000a4 is_supporrted_sample_rate
030585e4 g     F .text	00000090 alt_find_dev
0304bb5c g     F .text	000000a0 memcpy
03045fa4 g     F .text	00000050 LED_Display
0304a464 g     F .text	0000000c _cleanup_r
03052d68 g     F .text	00000100 __floatsidf
03046498 g     F .text	00000188 WAVE_IsWaveFile
03058c54 g     F .text	00000074 alt_io_redirect
03052ce0 g     F .text	00000088 __ltdf2
030599b8 g       *ABS*	00000000 __DTOR_END__
03042564 g     F .text	000000b0 Fat_FileExist
0304be48 g     F .text	00000014 puts
030404c0 g     F .text	000000a4 wait_sdcard_insert
03047dd0 g     F .text	000001a4 SD_CMD2
03050a54 g     F .text	000000b0 __ratio
03056474 g     F .text	00000234 altera_avalon_jtag_uart_read
0304b408 g     F .text	00000014 malloc
0304bd50 g     F .text	00000034 _printf_r
030497ec g     F .text	00000008 __udivsi3
030535cc g     F .text	000000c0 isatty
0304534c g     F .text	0000008c AUDIO_EnableByPass
0305aba8 g     O .rodata	000000c8 __mprec_tens
03048980 g     F .text	0000017c SD_ACMD42
030503d0 g     F .text	00000008 __locale_charset
0304e3b8 g     F .text	00000040 vsnprintf
0305952c g     F .text	0000008c alt_icache_flush
030458d4 g     F .text	00000184 I2C_MultipleRead
0305e800 g     O .bss	00000004 __malloc_top_pad
03045114 g     F .text	0000011c AUDIO_SetLineInVol
0305ca34 g     O .rwdata	00000004 __mb_cur_max
030503d8 g     F .text	0000000c _localeconv_r
030484c0 g     F .text	00000188 SD_CMD7
0304042c g     F .text	00000034 lcd_display
03051370 g     F .text	0000003c __i2b
0304fec4 g     F .text	0000049c __sfvwrite_r
03046078 g     F .text	0000005c SEG7_Clear
0304c03c g     F .text	00000070 _sbrk_r
0305911c g     F .text	00000080 alt_program_intel
03048648 g     F .text	000001a0 SD_CMD16
03048ec4 g     F .text	00000078 ArrayToU32
030518d8 g     F .text	00000078 _read_r
03058388 g     F .text	00000074 alt_dcache_flush
0305b544 g     O .rwdata	0000000c __lc_ctype
0305ca4c g     O .rwdata	00000004 alt_max_fd
03054b2c g     F .text	00000038 alt_read_query_entry_8bit
03044368 g     F .text	000003cc fatMount
03049e84 g     F .text	00000140 __unpack_d
03049fc4 g     F .text	00000110 _fclose_r
0305919c g     F .text	00000164 alt_erase_block_intel
0304a2e4 g     F .text	00000034 fflush
03044cc4 g     F .text	000000e0 AUDIO_DacEnableZeroCross
0305e804 g     O .bss	00000004 __malloc_max_sbrked_mem
03045e24 g     F .text	00000064 LCD_TextOut
03053428 g     F .text	000001a4 alt_irq_register
03049294 g     F .text	00000054 __extendsfdf2
03052684 g     F .text	00000074 __adddf3
03043938 g     F .text	00000050 fatIsUnusedDir
03040c94 g     F .text	00000338 waveplay_execute
0305092c g     F .text	00000128 __b2d
030537b8 g     F .text	000000f0 lseek
0305ca24 g     O .rwdata	00000004 _global_impure_ptr
03051950 g     F .text	00000628 _realloc_r
0305fd70 g       *ABS*	00000000 __bss_end
03058a98 g     F .text	000000fc alt_iic_isr_register
03053f48 g     F .text	00000100 alt_tick
0305ac70 g     O .rodata	00000028 __mprec_bigtens
030515cc g     F .text	00000120 __s2b
03052f44 g     F .text	00000194 __floatunsidf
03044b1c g     F .text	00000078 AUDIO_MicBoost
03050844 g     F .text	00000060 __mcmp
03057838 g     F .text	000000cc altera_avalon_uart_init
0305ca30 g     O .rwdata	00000004 __ctype_ptr
03044734 g     F .text	0000003c SD_ReadBlock512
0304a44c g     F .text	00000018 __fp_lock_all
03058a58 g     F .text	00000040 alt_ic_irq_enabled
030456b0 g     F .text	000000fc I2C_Write
03042614 g     F .text	00000238 Fat_FileOpen
03046138 g     F .text	00000078 SEG7_Number
03053eac g     F .text	0000009c alt_alarm_stop
03045f10 g     F .text	0000003c LCD_Close
0305ca54 g     O .rwdata	00000004 alt_irq_active
03043554 g     F .text	000001e4 fatDelClusterList
030400ec g     F .exceptions	000000d8 alt_irq_handler
0305b550 g     O .rwdata	00000028 alt_dev_null
03046c64 g     F .text	000000f4 SDHAL_SendCmd
03049a78 g     F .text	000000c8 __unpack_f
03055024 g     F .text	000000b8 alt_set_flash_algorithm_func
03045a58 g     F .text	00000088 i2c_start
030583fc g     F .text	00000040 alt_dcache_flush_all
03050710 g     F .text	00000070 __hi0bits
03046ff8 g     F .text	00000158 SDHAL_ReadData
03052e68 g     F .text	000000dc __fixdfsi
03054be0 g     F .text	0000003c alt_write_flash_command_8bit_device_8bit_mode
0305ca88 g       *ABS*	00000000 __ram_rwdata_end
0305ca44 g     O .rwdata	00000008 alt_dev_list
03041bec g     F .text	00000048 Fat_Mount
03054074 g     F .text	00000120 write
030517f0 g     F .text	000000e8 _putc_r
0305ad2c g       *ABS*	00000000 __ram_rodata_end
0305330c g     F .text	000000d4 fstat
03046908 g     F .text	00000060 myprintf
03055d70 g     F .text	000000cc alt_check_primary_table
03040404 g     F .text	00000028 lcd_open
030514ac g     F .text	00000120 __pow5mult
0305e80c g     O .bss	00000004 __nlocale_changed
030497f4 g     F .text	00000008 __umodsi3
030546e0 g     F .text	00000058 alt_flash_cfi_read
03054d9c g     F .text	00000030 alt_write_native_8bit
030453d8 g     F .text	0000008c AUDIO_EnableSiteTone
0305fd70 g       *ABS*	00000000 end
03049918 g     F .text	00000160 __pack_f
03054c1c g     F .text	0000007c alt_write_flash_command_16bit_device_8bit_mode
03045f4c g     F .text	0000002c LED_AllOn
03056fcc g     F .text	0000046c altera_avalon_lcd_16207_write
03057ecc g     F .text	000001d8 altera_avalon_uart_write
0304af64 g     F .text	00000024 fseek
03055150 g     F .text	00000574 alt_read_cfi_table
03055f74 g     F .text	000000c0 altera_avalon_jtag_uart_init
030599b4 g       *ABS*	00000000 __CTOR_LIST__
03080000 g       *ABS*	00000000 __alt_stack_pointer
030576c0 g     F .text	0000008c alt_avalon_timer_sc_init
030577a0 g     F .text	00000054 altera_avalon_uart_write_fd
03049898 g     F .text	00000080 __clzsi2
030577f4 g     F .text	00000044 altera_avalon_uart_close_fd
030566a8 g     F .text	00000254 altera_avalon_jtag_uart_write
03042e98 g     F .text	00000044 Fat_FileClose
030542d8 g     F .text	00000098 alt_flash_cfi_init
0304a370 g     F .text	00000004 __sfp_lock_acquire
03042284 g     F .text	00000068 Fat_FileCount
0305050c g     F .text	000000fc memchr
0304c590 g     F .text	00001d50 ___vfprintf_internal_r
0304c120 g     F .text	00000060 _sprintf_r
0304a814 g     F .text	00000314 _free_r
030597b0 g     F .text	000001a8 __call_exitprocs
0305e810 g     O .bss	00000004 __mlocale_changed
0305ca2c g     O .rwdata	00000004 __malloc_sbrk_base
030401c4 g     F .text	0000004c _start
0305ca6c g     O .rwdata	00000004 _alt_tick_rate
03051044 g     F .text	0000014c __lshift
0305ca70 g     O .rwdata	00000004 _alt_nticks
03047898 g     F .text	00000080 SD_CMD0
03053c28 g     F .text	00000120 read
0305420c g     F .text	0000009c alt_sys_init
0304bc94 g     F .text	00000078 _open_r
03059678 g     F .text	00000134 __register_exitproc
03044da4 g     F .text	0000008c AUDIO_DacEnableSoftMute
0304732c g     F .text	0000005c SDHAL_DummyClock
0304284c g     F .text	00000050 Fat_FileSize
03054b64 g     F .text	00000040 alt_read_query_entry_16bit
03046a6c g     F .text	000000a8 crc16
03051190 g     F .text	000001e0 __multiply
03047848 g     F .text	00000028 SD_Init
03056310 g     F .text	0000006c altera_avalon_jtag_uart_close
0305ad2c g       *ABS*	00000000 __ram_rwdata_start
030599b8 g       *ABS*	00000000 __ram_rodata_start
0305fab8 g     O .bss	00000028 __malloc_current_mallinfo
03054e28 g     F .text	000001fc alt_set_flash_width_func
03050d3c g     F .text	0000017c __d2b
0304c2cc g     F .text	000000b0 strcasecmp
03040460 g     F .text	00000030 led_display
03055e3c g     F .text	00000054 altera_avalon_jtag_uart_read_fd
03058820 g     F .text	000000ac alt_get_fd
03058240 g     F .text	00000148 alt_busy_sleep
030530d8 g     F .text	000000c8 __fpcmp_parts_d
0304e5ac g     F .text	00000070 _close_r
03058d48 g     F .text	00000208 alt_erase_block_amd
0304289c g     F .text	000004d8 Fat_FileRead
03059604 g     F .text	00000074 memcmp
03055ee4 g     F .text	00000044 altera_avalon_jtag_uart_close_fd
0305fd70 g       *ABS*	00000000 __alt_stack_base
03055f28 g     F .text	0000004c altera_avalon_jtag_uart_ioctl_fd
0304b184 g     F .text	0000009c _fwrite_r
03044254 g     F .text	00000114 fatFindUnusedDirectory
03046c00 g     F .text	00000064 SDHAL_Init
0304e470 g     F .text	0000013c __swsetup_r
030556c4 g     F .text	000006ac alt_read_cfi_width
030493a8 g     F .text	0000025c __divdf3
0304a4e8 g     F .text	000000f0 __sfp
03050ba0 g     F .text	00000058 __copybits
03044c0c g     F .text	000000b8 AUDIO_DacDeemphasisControl
0305b13c g     O .rwdata	00000408 __malloc_av_
030467d8 g     F .text	0000009c Wave_GetDataByteSize
0304a37c g     F .text	00000004 __sinit_lock_release
0304e304 g     F .text	000000b4 _vsnprintf_r
03045ae0 g     F .text	00000078 i2c_stop
030526f8 g     F .text	000003c8 __muldf3
0304c26c g     F .text	00000060 __sread
0305a72c g     O .rodata	00000010 __thenan_sf
03042edc g     F .text	0000021c Fat_SpeedTest
030460d4 g     F .text	00000064 SEG7_Full
03040210 g     F .text	00000068 welcome_display
03058674 g     F .text	000000e4 alt_find_file
03046280 g     F .text	000000e4 SEG7_Decimal
0305843c g     F .text	000000b0 alt_dev_llist_insert
03053960 g     F .text	0000001c __malloc_lock
03053dec g     F .text	000000c0 sbrk
03044f9c g     F .text	0000008c AUDIO_SetInputSource
0304a0e8 g     F .text	000001fc _fflush_r
0305213c g     F .text	000000b8 _calloc_r
0305ca80 g     O .rwdata	00000008 alt_flash_dev_list
03044adc g     F .text	00000040 AUDIO_InterfaceActive
03054cd8 g     F .text	00000044 alt_write_flash_command_16bit_device_16bit_mode
030441b4 g     F .text	000000a0 fatFindDirectory
0304a6cc g     F .text	0000001c fopen
0305e7e4 g       *ABS*	00000000 __bss_start
030466c8 g     F .text	00000088 Wave_GetChannelNum
0304bbfc g     F .text	00000098 memset
03041814 g     F .text	000003d8 main
03044124 g     F .text	00000090 fatReadSecter
0305ca64 g     O .rwdata	00000004 alt_envp
0305e808 g     O .bss	00000004 __malloc_max_total_mem
03046968 g     F .text	00000080 myprintf_hexarray
03055e90 g     F .text	00000054 altera_avalon_jtag_uart_write_fd
03045c7c g     F .text	0000014c i2c_read
03052120 g     F .text	0000001c __swbuf
030574cc g     F .text	0000012c altera_avalon_lcd_16207_init
0304c180 g     F .text	00000008 __sclose
03043988 g     F .text	00000710 fatDump
03080000 g       *ABS*	00000000 __alt_heap_limit
0304a0d4 g     F .text	00000014 fclose
0304963c g     F .text	00000074 __truncdfsf2
0305fbe0 g     O .bss	00000190 _atexit0
0304e824 g     F .text	00001600 _dtoa_r
0304b41c g     F .text	00000740 _malloc_r
03048e84 g     F .text	00000040 SD_WriteData
0305ca50 g     O .rwdata	00000004 alt_errno
03054d5c g     F .text	00000040 alt_write_flash_command_32bit_device_32bit_mode
0304b0c8 g     F .text	000000bc _fwalk
03054738 g     F .text	0000013c alt_write_value_to_flash
03043738 g     F .text	00000084 fatDumpDate
03054dcc g     F .text	00000030 alt_write_native_16bit
03046b60 g     F .text	00000074 crc7
030516ec g     F .text	00000104 putc
03042d74 g     F .text	00000124 Fat_FileSeek
0304972c g     F .text	00000060 __divsi3
03045dc8 g     F .text	0000005c LCD_Open
030487e8 g     F .text	00000198 SD_ACMD6
0305a73c g     O .rodata	00000014 __thenan_df
0304a6e8 g     F .text	0000012c _malloc_trim_r
030599b8 g       *ABS*	00000000 __CTOR_END__
03048f3c g     F .text	000001e0 __mulsf3
03044ebc g     F .text	000000e0 AUDIO_LineInMute
0304c37c g     F .text	000000bc strcmp
03044770 g     F .text	0000003c SD_WriteBlock512
03044e30 g     F .text	0000008c AUDIO_MicMute
030599b8 g       *ABS*	00000000 __flash_rodata_start
030599b8 g       *ABS*	00000000 __DTOR_LIST__
03044098 g     F .text	0000008c fatArray2Value
03047870 g     F .text	00000028 SD_IsSupport4Bits
03052b48 g     F .text	00000088 __nedf2
030431b0 g     F .text	000000d4 fat32ClusterType
030541dc g     F .text	00000030 alt_irq_init
03053d90 g     F .text	0000005c alt_release_fd
0304c0ac g     F .text	00000074 sprintf
0305a750 g     O .rodata	00000100 __clz_tab
030461b0 g     F .text	000000d0 SEG7_Hex
030468d8 g     F .text	00000030 debug_output
0305e814 g     O .bss	00000004 _PathLocale
03047c2c g     F .text	000001a4 SD_ACMD41
030595b8 g     F .text	00000014 atexit
0304e3f8 g     F .text	00000078 _write_r
03047918 g     F .text	00000190 SD_CMD8
0304238c g     F .text	000001d8 fatComposeShortFilename
03050478 g     F .text	0000001c setlocale
0305ca20 g     O .rwdata	00000004 _impure_ptr
0305ca5c g     O .rwdata	00000004 alt_argc
0305858c g     F .text	00000058 _do_dtors
03041c80 g     F .text	00000090 Fat_Type
030469e8 g     F .text	00000084 myprintf_dwordarray
0304ab28 g     F .text	0000043c _fseek_r
030455f8 g     F .text	00000038 AUDIO_AdcFifoNotEmpty
0304be5c g     F .text	000001c4 __srefill_r
03040020 g       .exceptions	00000000 alt_irq_entry
030508a4 g     F .text	00000088 __ulp
03051f78 g     F .text	00000044 __isinfd
0304a434 g     F .text	00000018 __fp_unlock_all
03041550 g     F .text	000002c4 Fat_Test
030430f8 g     F .text	000000b8 fat16ClusterType
030575f8 g     F .text	00000054 altera_avalon_lcd_16207_write_fd
030455b4 g     F .text	00000044 AUDIO_DacFifoSetData
0305ca3c g     O .rwdata	00000008 alt_fs_list
03047aa8 g     F .text	00000184 SD_CMD55
030411e0 g     F .text	00000054 IRDA_init
03054c98 g     F .text	00000040 alt_write_flash_command_32bit_device_8bit_mode
030482ec g     F .text	000001d4 SD_CMD10
03040020 g       *ABS*	00000000 __ram_exceptions_start
03045028 g     F .text	000000ec AUDIO_SetSampleRate
030503e4 g     F .text	00000010 localeconv
03040000 g       *ABS*	00000000 __alt_mem_onchip_memory2
030422ec g     F .text	000000a0 fatSameLongFilename
03040fe8 g     F .text	000001f8 handle_key
02800000 g       *ABS*	00000000 __alt_mem_av_tri_s1_cfi_flash_0
030588f8 g     F .text	0000004c alt_ic_isr_register
0304b220 g     F .text	00000040 fwrite
0305ca88 g       *ABS*	00000000 _edata
030437bc g     F .text	00000084 fatDumpTime
0305774c g     F .text	00000054 altera_avalon_uart_read_fd
0305fd70 g       *ABS*	00000000 _end
03058758 g     F .text	00000078 alt_flash_open_dev
03045230 g     F .text	0000011c AUDIO_SetLineOutVol
03048118 g     F .text	000001d4 SD_CMD9
030401c4 g       *ABS*	00000000 __ram_exceptions_end
0305637c g     F .text	000000f8 altera_avalon_jtag_uart_ioctl
030589cc g     F .text	0000008c alt_ic_irq_disable
0304c1f0 g     F .text	0000007c __swrite
0305ca28 g     O .rwdata	00000004 __malloc_trim_threshold
03040608 g     F .text	00000410 build_wave_play_list
03058cc8 g     F .text	0000001c altera_nios2_qsys_irq_init
030595cc g     F .text	00000038 exit
03045ff4 g     F .text	00000084 LED_LightCount
03041234 g     F .text	0000031c handle_IrDA
030447ac g     F .text	0000016c fatMountSdcard
0304affc g     F .text	000000cc _fwalk_reent
030492e8 g     F .text	000000c0 __floatunsisf
03050eb8 g     F .text	0000018c __mdiff
03040a18 g     F .text	0000027c waveplay_start
030587d0 g     F .text	00000050 alt_flash_close_dev
0304978c g     F .text	00000060 __modsi3
03080000 g       *ABS*	00000000 __alt_data_end
03040020 g     F .exceptions	00000000 alt_exception
0304a374 g     F .text	00000004 __sfp_lock_release
03047388 g     F .text	000003a0 SDLIB_Init
0305a8d6 g     O .rodata	00000101 _ctype_
03048afc g     F .text	000001a4 SD_CMD17
03057bec g     F .text	00000058 altera_avalon_uart_close
0304a5d8 g     F .text	000000f4 _fopen_r
03059994 g     F .text	00000020 _exit
03051fbc g     F .text	00000034 __isnand
03040278 g     F .text	0000009c demo_introduce
030580ec g     F .text	00000154 alt_alarm_start
030497fc g     F .text	0000009c __muldi3
0304b260 g     F .text	00000194 __smakebuf_r
03054dfc g     F .text	0000002c alt_write_native_32bit
0304c4c4 g     F .text	00000074 strlen
03053a60 g     F .text	00000180 open
03045560 g     F .text	00000054 AUDIO_DacFifoNotFull
03052c58 g     F .text	00000088 __gedf2
03054654 g     F .text	0000008c alt_flash_cfi_get_info
030588cc g     F .text	0000002c alt_icache_flush_all
0305ca58 g     O .rwdata	00000004 alt_priority_mask
03058944 g     F .text	00000088 alt_ic_irq_enable
03047150 g     F .text	000001dc SDHAL_WriteData
03046620 g     F .text	000000a8 Wave_GetSampleRate
0304e2e0 g     F .text	00000024 __vfprintf_internal
030433dc g     F .text	00000178 fatFindUnusedCluster
03057c44 g     F .text	00000240 altera_avalon_uart_read
03046750 g     F .text	00000088 Wave_GetSampleBitNum
03052604 g     F .text	00000080 __subdf3
030403b0 g     F .text	00000054 DisplayTime
03050780 g     F .text	000000c4 __lo0bits
0305ca74 g     O .rwdata	00000008 alt_alarm_list
03058534 g     F .text	00000058 _do_ctors
03048e44 g     F .text	00000040 SD_ReadData
030531a0 g     F .text	000000fc close
03058ce4 g     F .text	00000064 alt_program_amd
03041c34 g     F .text	0000004c Fat_Unmount
030536d4 g     F .text	0000007c alt_load
03049b6c g     F .text	00000318 __pack_d
0304b3f4 g     F .text	00000014 free
0304a378 g     F .text	00000004 __sinit_lock_acquire
030513ac g     F .text	00000100 __multadd
03043840 g     F .text	00000050 fatIsLastDir
030506e8 g     F .text	00000028 _Bfree
03047f74 g     F .text	000001a4 SD_CMD3
03047728 g     F .text	00000090 SDLIB_ReadBlock512


Disassembly of section .entry:

03040000 <__reset>:
 3040000:	00840014 	movui	r2,4096
 3040004:	1001483a 	initi	r2
 3040008:	10bff804 	addi	r2,r2,-32
 304000c:	00bffd16 	blt	zero,r2,3040004 <__alt_mem_onchip_memory2+0x4>
 3040010:	0040c134 	movhi	at,772
 3040014:	08407114 	ori	at,at,452
 3040018:	0800683a 	jmp	at
 304001c:	00000000 	call	0 <__alt_mem_av_tri_s1_cfi_flash_0-0x2800000>
Disassembly of section .exceptions:

03040020 <alt_exception>:
 3040020:	deffed04 	addi	sp,sp,-76
 3040024:	dfc00015 	stw	ra,0(sp)
 3040028:	d8400215 	stw	at,8(sp)
 304002c:	d8800315 	stw	r2,12(sp)
 3040030:	d8c00415 	stw	r3,16(sp)
 3040034:	d9000515 	stw	r4,20(sp)
 3040038:	d9400615 	stw	r5,24(sp)
 304003c:	d9800715 	stw	r6,28(sp)
 3040040:	d9c00815 	stw	r7,32(sp)
 3040044:	000b307a 	rdctl	r5,estatus
 3040048:	da000915 	stw	r8,36(sp)
 304004c:	da400a15 	stw	r9,40(sp)
 3040050:	da800b15 	stw	r10,44(sp)
 3040054:	dac00c15 	stw	r11,48(sp)
 3040058:	db000d15 	stw	r12,52(sp)
 304005c:	db400e15 	stw	r13,56(sp)
 3040060:	db800f15 	stw	r14,60(sp)
 3040064:	dbc01015 	stw	r15,64(sp)
 3040068:	d9401115 	stw	r5,68(sp)
 304006c:	ebffff04 	addi	r15,ea,-4
 3040070:	dbc01215 	stw	r15,72(sp)
 3040074:	0009313a 	rdctl	r4,ipending
 3040078:	2880004c 	andi	r2,r5,1
 304007c:	10000326 	beq	r2,zero,304008c <__flash_exceptions_start+0x6c>
 3040080:	20000226 	beq	r4,zero,304008c <__flash_exceptions_start+0x6c>
 3040084:	30400ec0 	call	30400ec <alt_irq_handler>
 3040088:	00000306 	br	3040098 <__flash_exceptions_start+0x78>
 304008c:	df401215 	stw	ea,72(sp)
 3040090:	e8bfff17 	ldw	r2,-4(ea)
 3040094:	003da03a 	break	0
 3040098:	d9401117 	ldw	r5,68(sp)
 304009c:	df401217 	ldw	ea,72(sp)
 30400a0:	dfc00017 	ldw	ra,0(sp)
 30400a4:	2801707a 	wrctl	estatus,r5
 30400a8:	d8400217 	ldw	at,8(sp)
 30400ac:	d8800317 	ldw	r2,12(sp)
 30400b0:	d8c00417 	ldw	r3,16(sp)
 30400b4:	d9000517 	ldw	r4,20(sp)
 30400b8:	d9400617 	ldw	r5,24(sp)
 30400bc:	d9800717 	ldw	r6,28(sp)
 30400c0:	d9c00817 	ldw	r7,32(sp)
 30400c4:	da000917 	ldw	r8,36(sp)
 30400c8:	da400a17 	ldw	r9,40(sp)
 30400cc:	da800b17 	ldw	r10,44(sp)
 30400d0:	dac00c17 	ldw	r11,48(sp)
 30400d4:	db000d17 	ldw	r12,52(sp)
 30400d8:	db400e17 	ldw	r13,56(sp)
 30400dc:	db800f17 	ldw	r14,60(sp)
 30400e0:	dbc01017 	ldw	r15,64(sp)
 30400e4:	dec01304 	addi	sp,sp,76
 30400e8:	ef80083a 	eret

030400ec <alt_irq_handler>:
 30400ec:	defff904 	addi	sp,sp,-28
 30400f0:	dfc00615 	stw	ra,24(sp)
 30400f4:	df000515 	stw	fp,20(sp)
 30400f8:	df000504 	addi	fp,sp,20
 30400fc:	0005313a 	rdctl	r2,ipending
 3040100:	e0bfff15 	stw	r2,-4(fp)
 3040104:	e0bfff17 	ldw	r2,-4(fp)
 3040108:	e0bffe15 	stw	r2,-8(fp)
 304010c:	e0bffe17 	ldw	r2,-8(fp)
 3040110:	e0bffb15 	stw	r2,-20(fp)
 3040114:	e03ffd15 	stw	zero,-12(fp)
 3040118:	00800044 	movi	r2,1
 304011c:	e0bffc15 	stw	r2,-16(fp)
 3040120:	e0fffb17 	ldw	r3,-20(fp)
 3040124:	e0bffc17 	ldw	r2,-16(fp)
 3040128:	1884703a 	and	r2,r3,r2
 304012c:	1005003a 	cmpeq	r2,r2,zero
 3040130:	10000f1e 	bne	r2,zero,3040170 <alt_irq_handler+0x84>
 3040134:	00c0c1b4 	movhi	r3,774
 3040138:	18feb804 	addi	r3,r3,-1312
 304013c:	e0bffd17 	ldw	r2,-12(fp)
 3040140:	10800224 	muli	r2,r2,8
 3040144:	10c9883a 	add	r4,r2,r3
 3040148:	00c0c1b4 	movhi	r3,774
 304014c:	18feb804 	addi	r3,r3,-1312
 3040150:	e0bffd17 	ldw	r2,-12(fp)
 3040154:	10800224 	muli	r2,r2,8
 3040158:	10c5883a 	add	r2,r2,r3
 304015c:	10800104 	addi	r2,r2,4
 3040160:	20c00017 	ldw	r3,0(r4)
 3040164:	11000017 	ldw	r4,0(r2)
 3040168:	183ee83a 	callr	r3
 304016c:	00000706 	br	304018c <alt_irq_handler+0xa0>
 3040170:	e0bffc17 	ldw	r2,-16(fp)
 3040174:	1085883a 	add	r2,r2,r2
 3040178:	e0bffc15 	stw	r2,-16(fp)
 304017c:	e0bffd17 	ldw	r2,-12(fp)
 3040180:	10800044 	addi	r2,r2,1
 3040184:	e0bffd15 	stw	r2,-12(fp)
 3040188:	003fe506 	br	3040120 <alt_irq_handler+0x34>
 304018c:	0005313a 	rdctl	r2,ipending
 3040190:	e0bffe15 	stw	r2,-8(fp)
 3040194:	e0bffe17 	ldw	r2,-8(fp)
 3040198:	e0bfff15 	stw	r2,-4(fp)
 304019c:	e0bfff17 	ldw	r2,-4(fp)
 30401a0:	e0bffb15 	stw	r2,-20(fp)
 30401a4:	e0bffb17 	ldw	r2,-20(fp)
 30401a8:	1005003a 	cmpeq	r2,r2,zero
 30401ac:	1000011e 	bne	r2,zero,30401b4 <alt_irq_handler+0xc8>
 30401b0:	003fd806 	br	3040114 <alt_irq_handler+0x28>
 30401b4:	dfc00617 	ldw	ra,24(sp)
 30401b8:	df000517 	ldw	fp,20(sp)
 30401bc:	dec00704 	addi	sp,sp,28
 30401c0:	f800283a 	ret
Disassembly of section .text:

030401c4 <_start>:
 30401c4:	00820014 	movui	r2,2048
 30401c8:	10000033 	initd	0(r2)
 30401cc:	10bff804 	addi	r2,r2,-32
 30401d0:	00bffd16 	blt	zero,r2,30401c8 <__ram_exceptions_end+0x4>
 30401d4:	06c0c234 	movhi	sp,776
 30401d8:	dec00014 	ori	sp,sp,0
 30401dc:	0680c1b4 	movhi	gp,774
 30401e0:	d6928514 	ori	gp,gp,18964
 30401e4:	0080c174 	movhi	r2,773
 30401e8:	10b9f914 	ori	r2,r2,59364
 30401ec:	00c0c174 	movhi	r3,773
 30401f0:	18ff5c14 	ori	r3,r3,64880
 30401f4:	10c00326 	beq	r2,r3,3040204 <__ram_exceptions_end+0x40>
 30401f8:	10000015 	stw	zero,0(r2)
 30401fc:	10800104 	addi	r2,r2,4
 3040200:	10fffd36 	bltu	r2,r3,30401f8 <__ram_exceptions_end+0x34>
 3040204:	30536d40 	call	30536d4 <alt_load>
 3040208:	30538f00 	call	30538f0 <alt_main>

0304020c <alt_after_alt_main>:
 304020c:	003fff06 	br	304020c <alt_after_alt_main>

03040210 <welcome_display>:
/////////////////////////////////////////////////////////////////



void welcome_display(void){
 3040210:	defffd04 	addi	sp,sp,-12
 3040214:	dfc00215 	stw	ra,8(sp)
 3040218:	df000115 	stw	fp,4(sp)
 304021c:	df000104 	addi	fp,sp,4
    int i;
    lcd_display(("\rWelcome Demo\nCDCARD-AUDIO\n"));
 3040220:	0100c1b4 	movhi	r4,774
 3040224:	21266e04 	addi	r4,r4,-26184
 3040228:	304042c0 	call	304042c <lcd_display>
    for(i=0;i<5;i++){
 304022c:	e03fff15 	stw	zero,-4(fp)
 3040230:	00000906 	br	3040258 <welcome_display+0x48>
        LED_AllOn();
 3040234:	3045f4c0 	call	3045f4c <LED_AllOn>
        usleep(50*1000);
 3040238:	0130d414 	movui	r4,50000
 304023c:	30540480 	call	3054048 <usleep>
        LED_AllOff();
 3040240:	3045f780 	call	3045f78 <LED_AllOff>
        usleep(50*1000);
 3040244:	0130d414 	movui	r4,50000
 3040248:	30540480 	call	3054048 <usleep>
 304024c:	e0bfff17 	ldw	r2,-4(fp)
 3040250:	10800044 	addi	r2,r2,1
 3040254:	e0bfff15 	stw	r2,-4(fp)
 3040258:	e0bfff17 	ldw	r2,-4(fp)
 304025c:	10800150 	cmplti	r2,r2,5
 3040260:	103ff41e 	bne	r2,zero,3040234 <welcome_display+0x24>
    }        
}
 3040264:	e037883a 	mov	sp,fp
 3040268:	dfc00117 	ldw	ra,4(sp)
 304026c:	df000017 	ldw	fp,0(sp)
 3040270:	dec00204 	addi	sp,sp,8
 3040274:	f800283a 	ret

03040278 <demo_introduce>:

void demo_introduce(void){
 3040278:	defffe04 	addi	sp,sp,-8
 304027c:	dfc00115 	stw	ra,4(sp)
 3040280:	df000015 	stw	fp,0(sp)
 3040284:	d839883a 	mov	fp,sp
    DEMO_PRINTF("===== Welcome to Altera Player Program =====\r\n");
 3040288:	0100c1b4 	movhi	r4,774
 304028c:	21267504 	addi	r4,r4,-26156
 3040290:	304be480 	call	304be48 <puts>
    DEMO_PRINTF("Supported File System: FAT16,FAT32, English Short File Name,English Long File Name\r\n");
 3040294:	0100c1b4 	movhi	r4,774
 3040298:	21268104 	addi	r4,r4,-26108
 304029c:	304be480 	call	304be48 <puts>
    DEMO_PRINTF("Played Wave Files: Wave files on root directory.\r\n");
 30402a0:	0100c1b4 	movhi	r4,774
 30402a4:	21269604 	addi	r4,r4,-26024
 30402a8:	304be480 	call	304be48 <puts>
    DEMO_PRINTF("Supported Media File: Uncompressed WAV File, Sample-Rate 96K/48K/44.1K/32K/8K, Stereo, 16-bits Sample.\r\n");
 30402ac:	0100c1b4 	movhi	r4,774
 30402b0:	2126a304 	addi	r4,r4,-25972
 30402b4:	304be480 	call	304be48 <puts>
    DEMO_PRINTF("KEY4: Next Song\r\n");
 30402b8:	0100c1b4 	movhi	r4,774
 30402bc:	2126bd04 	addi	r4,r4,-25868
 30402c0:	304be480 	call	304be48 <puts>
#ifdef SUPPORT_PLAY_MODE
    DEMO_PRINTF("SW0 ON: Enable Repeat Mode\n");
 30402c4:	0100c1b4 	movhi	r4,774
 30402c8:	2126c204 	addi	r4,r4,-25848
 30402cc:	304be480 	call	304be48 <puts>
#endif    
    DEMO_PRINTF("KEY3: Volume Up\r\n");
 30402d0:	0100c1b4 	movhi	r4,774
 30402d4:	2126c904 	addi	r4,r4,-25820
 30402d8:	304be480 	call	304be48 <puts>
    DEMO_PRINTF("KEY2: Volume Down\r\n");
 30402dc:	0100c1b4 	movhi	r4,774
 30402e0:	2126ce04 	addi	r4,r4,-25800
 30402e4:	304be480 	call	304be48 <puts>
    DEMO_PRINTF("Current Voluem:%d(%d-%d)\r\n\r\n", HW_DEFAULT_VOL, HW_MIN_VOL, HW_MAX_VOL);    
 30402e8:	0100c1b4 	movhi	r4,774
 30402ec:	2126d304 	addi	r4,r4,-25780
 30402f0:	01401904 	movi	r5,100
 30402f4:	01800784 	movi	r6,30
 30402f8:	01c02584 	movi	r7,150
 30402fc:	304bd0c0 	call	304bd0c <printf>
}
 3040300:	e037883a 	mov	sp,fp
 3040304:	dfc00117 	ldw	ra,4(sp)
 3040308:	df000017 	ldw	fp,0(sp)
 304030c:	dec00204 	addi	sp,sp,8
 3040310:	f800283a 	ret

03040314 <update_status>:

void update_status(void){
 3040314:	deffe904 	addi	sp,sp,-92
 3040318:	dfc01615 	stw	ra,88(sp)
 304031c:	df001515 	stw	fp,84(sp)
 3040320:	df001504 	addi	fp,sp,84
#ifdef LCD_DISPLAY    
    char szText[64];       
    sprintf(szText, "\r%s\nVol:%d(%d-%d)%C\n", gWavePlay.szFilename, gWavePlay.nVolume, 
 3040324:	0080c1b4 	movhi	r2,774
 3040328:	10be0704 	addi	r2,r2,-2020
 304032c:	10808d03 	ldbu	r2,564(r2)
 3040330:	10803fcc 	andi	r2,r2,255
 3040334:	e0bfff15 	stw	r2,-4(fp)
 3040338:	0080c1b4 	movhi	r2,774
 304033c:	10be0704 	addi	r2,r2,-2020
 3040340:	10808e17 	ldw	r2,568(r2)
 3040344:	1005003a 	cmpeq	r2,r2,zero
 3040348:	1000031e 	bne	r2,zero,3040358 <update_status+0x44>
 304034c:	00801484 	movi	r2,82
 3040350:	e0bffe15 	stw	r2,-8(fp)
 3040354:	00000206 	br	3040360 <update_status+0x4c>
 3040358:	008014c4 	movi	r2,83
 304035c:	e0bffe15 	stw	r2,-8(fp)
 3040360:	00800784 	movi	r2,30
 3040364:	d8800015 	stw	r2,0(sp)
 3040368:	00802584 	movi	r2,150
 304036c:	d8800115 	stw	r2,4(sp)
 3040370:	e0bffe17 	ldw	r2,-8(fp)
 3040374:	d8800215 	stw	r2,8(sp)
 3040378:	e13fee04 	addi	r4,fp,-72
 304037c:	0140c1b4 	movhi	r5,774
 3040380:	2966db04 	addi	r5,r5,-25748
 3040384:	0180c1b4 	movhi	r6,774
 3040388:	31be8c04 	addi	r6,r6,-1488
 304038c:	e1ffff17 	ldw	r7,-4(fp)
 3040390:	304c0ac0 	call	304c0ac <sprintf>
        HW_MIN_VOL, HW_MAX_VOL, gWavePlay.bRepeatMode?'R':'S');
    lcd_display((szText));
 3040394:	e13fee04 	addi	r4,fp,-72
 3040398:	304042c0 	call	304042c <lcd_display>
#endif    
}
 304039c:	e037883a 	mov	sp,fp
 30403a0:	dfc00117 	ldw	ra,4(sp)
 30403a4:	df000017 	ldw	fp,0(sp)
 30403a8:	dec00204 	addi	sp,sp,8
 30403ac:	f800283a 	ret

030403b0 <DisplayTime>:

void DisplayTime(alt_u32 TimeElapsed){
 30403b0:	defffc04 	addi	sp,sp,-16
 30403b4:	dfc00315 	stw	ra,12(sp)
 30403b8:	df000215 	stw	fp,8(sp)
 30403bc:	df000204 	addi	fp,sp,8
 30403c0:	e13fff15 	stw	r4,-4(fp)
#ifdef SEG7_DISPLAY
    alt_u32 msx10;
    msx10 = TimeElapsed*100/alt_ticks_per_second();
 30403c4:	e0bfff17 	ldw	r2,-4(fp)
 30403c8:	11001924 	muli	r4,r2,100
 */

static ALT_INLINE alt_u32 ALT_ALWAYS_INLINE alt_ticks_per_second (void)
{
  return _alt_tick_rate;
 30403cc:	0080c1b4 	movhi	r2,774
 30403d0:	10b29b04 	addi	r2,r2,-13716
 30403d4:	10800017 	ldw	r2,0(r2)
 30403d8:	100b883a 	mov	r5,r2
 30403dc:	30497ec0 	call	30497ec <__udivsi3>
 30403e0:	e0bffe15 	stw	r2,-8(fp)
    SEG7_Decimal(msx10, 0x01 << 2);
 30403e4:	e13ffe17 	ldw	r4,-8(fp)
 30403e8:	01400104 	movi	r5,4
 30403ec:	30462800 	call	3046280 <SEG7_Decimal>
#endif
    
    
    
    
}
 30403f0:	e037883a 	mov	sp,fp
 30403f4:	dfc00117 	ldw	ra,4(sp)
 30403f8:	df000017 	ldw	fp,0(sp)
 30403fc:	dec00204 	addi	sp,sp,8
 3040400:	f800283a 	ret

03040404 <lcd_open>:

void lcd_open(void){
 3040404:	defffe04 	addi	sp,sp,-8
 3040408:	dfc00115 	stw	ra,4(sp)
 304040c:	df000015 	stw	fp,0(sp)
 3040410:	d839883a 	mov	fp,sp
#ifdef LCD_DISPLAY
    LCD_Open();
 3040414:	3045dc80 	call	3045dc8 <LCD_Open>
#endif  
}
 3040418:	e037883a 	mov	sp,fp
 304041c:	dfc00117 	ldw	ra,4(sp)
 3040420:	df000017 	ldw	fp,0(sp)
 3040424:	dec00204 	addi	sp,sp,8
 3040428:	f800283a 	ret

0304042c <lcd_display>:

void lcd_display(char *pText){
 304042c:	defffd04 	addi	sp,sp,-12
 3040430:	dfc00215 	stw	ra,8(sp)
 3040434:	df000115 	stw	fp,4(sp)
 3040438:	df000104 	addi	fp,sp,4
 304043c:	e13fff15 	stw	r4,-4(fp)
#ifdef LCD_DISPLAY     
    LCD_Clear();  
 3040440:	3045e880 	call	3045e88 <LCD_Clear>
    LCD_TextOut(pText);
 3040444:	e13fff17 	ldw	r4,-4(fp)
 3040448:	3045e240 	call	3045e24 <LCD_TextOut>
#endif    
}
 304044c:	e037883a 	mov	sp,fp
 3040450:	dfc00117 	ldw	ra,4(sp)
 3040454:	df000017 	ldw	fp,0(sp)
 3040458:	dec00204 	addi	sp,sp,8
 304045c:	f800283a 	ret

03040460 <led_display>:

void led_display(alt_u32 mask){
 3040460:	defffd04 	addi	sp,sp,-12
 3040464:	dfc00215 	stw	ra,8(sp)
 3040468:	df000115 	stw	fp,4(sp)
 304046c:	df000104 	addi	fp,sp,4
 3040470:	e13fff15 	stw	r4,-4(fp)
#ifdef LCD_DISPLAY       
    LED_Display(mask);
 3040474:	e13fff17 	ldw	r4,-4(fp)
 3040478:	3045fa40 	call	3045fa4 <LED_Display>
#endif    
}
 304047c:	e037883a 	mov	sp,fp
 3040480:	dfc00117 	ldw	ra,4(sp)
 3040484:	df000017 	ldw	fp,0(sp)
 3040488:	dec00204 	addi	sp,sp,8
 304048c:	f800283a 	ret

03040490 <led_display_count>:

void led_display_count(alt_u8 count){
 3040490:	defffd04 	addi	sp,sp,-12
 3040494:	dfc00215 	stw	ra,8(sp)
 3040498:	df000115 	stw	fp,4(sp)
 304049c:	df000104 	addi	fp,sp,4
 30404a0:	e13fff05 	stb	r4,-4(fp)
#ifdef DISPLAY_WAVE_POWER   
    LED_LightCount(count);
 30404a4:	e13fff03 	ldbu	r4,-4(fp)
 30404a8:	3045ff40 	call	3045ff4 <LED_LightCount>
#endif    
}
 30404ac:	e037883a 	mov	sp,fp
 30404b0:	dfc00117 	ldw	ra,4(sp)
 30404b4:	df000017 	ldw	fp,0(sp)
 30404b8:	dec00204 	addi	sp,sp,8
 30404bc:	f800283a 	ret

030404c0 <wait_sdcard_insert>:


/////////////////////////////////////////////////////////////////
/////////// Routing for detect SD-CARD //////////////////////////
/////////////////////////////////////////////////////////////////

void wait_sdcard_insert(void){
 30404c0:	defffc04 	addi	sp,sp,-16
 30404c4:	dfc00315 	stw	ra,12(sp)
 30404c8:	df000215 	stw	fp,8(sp)
 30404cc:	df000204 	addi	fp,sp,8
    bool bFirstTime2Detect = TRUE;
 30404d0:	00800044 	movi	r2,1
 30404d4:	e0bfff15 	stw	r2,-4(fp)
    alt_u8 led_mask = 0x02;
 30404d8:	00800084 	movi	r2,2
 30404dc:	e0bffe05 	stb	r2,-8(fp)
    LED_AllOff();
 30404e0:	3045f780 	call	3045f78 <LED_AllOff>
    //led = IORD_ALTERA_AVALON_PIO_DATA(LED_RED_SPAN); // low-active
    while(!SDLIB_Init()){
 30404e4:	00001206 	br	3040530 <wait_sdcard_insert+0x70>
        if (bFirstTime2Detect){
 30404e8:	e0bfff17 	ldw	r2,-4(fp)
 30404ec:	1005003a 	cmpeq	r2,r2,zero
 30404f0:	1000071e 	bne	r2,zero,3040510 <wait_sdcard_insert+0x50>
            DEMO_PRINTF("Please insert SD card.\r\n");
 30404f4:	0100c1b4 	movhi	r4,774
 30404f8:	2126e104 	addi	r4,r4,-25724
 30404fc:	304be480 	call	304be48 <puts>
            lcd_display(("\rPlease insert\nSD card.\n"));
 3040500:	0100c1b4 	movhi	r4,774
 3040504:	2126e704 	addi	r4,r4,-25700
 3040508:	304042c0 	call	304042c <lcd_display>
            bFirstTime2Detect = FALSE;
 304050c:	e03fff15 	stw	zero,-4(fp)
        }    
        led_display((led_mask));
 3040510:	e13ffe03 	ldbu	r4,-8(fp)
 3040514:	30404600 	call	3040460 <led_display>
        usleep(100*1000);
 3040518:	010000b4 	movhi	r4,2
 304051c:	2121a804 	addi	r4,r4,-31072
 3040520:	30540480 	call	3054048 <usleep>
        led_mask ^= 0x02;
 3040524:	e0bffe03 	ldbu	r2,-8(fp)
 3040528:	1080009c 	xori	r2,r2,2
 304052c:	e0bffe05 	stb	r2,-8(fp)
 3040530:	30473880 	call	3047388 <SDLIB_Init>
 3040534:	1005003a 	cmpeq	r2,r2,zero
 3040538:	103feb1e 	bne	r2,zero,30404e8 <wait_sdcard_insert+0x28>
    } // while
    led_display((0x02));
 304053c:	01000084 	movi	r4,2
 3040540:	30404600 	call	3040460 <led_display>
    DEMO_PRINTF("Find SD card\r\n");    
 3040544:	0100c1b4 	movhi	r4,774
 3040548:	2126ee04 	addi	r4,r4,-25672
 304054c:	304be480 	call	304be48 <puts>
    
}
 3040550:	e037883a 	mov	sp,fp
 3040554:	dfc00117 	ldw	ra,4(sp)
 3040558:	df000017 	ldw	fp,0(sp)
 304055c:	dec00204 	addi	sp,sp,8
 3040560:	f800283a 	ret

03040564 <is_supporrted_sample_rate>:

/////////////////////////////////////////////////////////////////
/////////// Routing for building wave-file play list ////////////
/////////////////////////////////////////////////////////////////

bool is_supporrted_sample_rate(int sample_rate){
 3040564:	defffb04 	addi	sp,sp,-20
 3040568:	dfc00415 	stw	ra,16(sp)
 304056c:	df000315 	stw	fp,12(sp)
 3040570:	df000304 	addi	fp,sp,12
 3040574:	e13ffe15 	stw	r4,-8(fp)
    bool bSupport = FALSE;
 3040578:	e03ffd15 	stw	zero,-12(fp)
    printf("SampleRate: %d \n", sample_rate);
 304057c:	0100c1b4 	movhi	r4,774
 3040580:	2126f204 	addi	r4,r4,-25656
 3040584:	e17ffe17 	ldw	r5,-8(fp)
 3040588:	304bd0c0 	call	304bd0c <printf>
    switch(sample_rate){
 304058c:	e0bffe17 	ldw	r2,-8(fp)
 3040590:	e0bfff15 	stw	r2,-4(fp)
 3040594:	00ab1114 	movui	r2,44100
 3040598:	e0ffff17 	ldw	r3,-4(fp)
 304059c:	18801226 	beq	r3,r2,30405e8 <is_supporrted_sample_rate+0x84>
 30405a0:	00ab1114 	movui	r2,44100
 30405a4:	e0ffff17 	ldw	r3,-4(fp)
 30405a8:	10c00716 	blt	r2,r3,30405c8 <is_supporrted_sample_rate+0x64>
 30405ac:	e0ffff17 	ldw	r3,-4(fp)
 30405b0:	1887d020 	cmpeqi	r2,r3,8000
 30405b4:	10000c1e 	bne	r2,zero,30405e8 <is_supporrted_sample_rate+0x84>
 30405b8:	e0ffff17 	ldw	r3,-4(fp)
 30405bc:	189f4020 	cmpeqi	r2,r3,32000
 30405c0:	1000091e 	bne	r2,zero,30405e8 <is_supporrted_sample_rate+0x84>
 30405c4:	00000a06 	br	30405f0 <is_supporrted_sample_rate+0x8c>
 30405c8:	00aee014 	movui	r2,48000
 30405cc:	e0ffff17 	ldw	r3,-4(fp)
 30405d0:	18800526 	beq	r3,r2,30405e8 <is_supporrted_sample_rate+0x84>
 30405d4:	00800074 	movhi	r2,1
 30405d8:	109dc004 	addi	r2,r2,30464
 30405dc:	e0ffff17 	ldw	r3,-4(fp)
 30405e0:	18800126 	beq	r3,r2,30405e8 <is_supporrted_sample_rate+0x84>
 30405e4:	00000206 	br	30405f0 <is_supporrted_sample_rate+0x8c>
        case 96000:
        case 48000:
        case 44100:
        case 32000:
        case 8000:
            bSupport = TRUE;
 30405e8:	00800044 	movi	r2,1
 30405ec:	e0bffd15 	stw	r2,-12(fp)
            break;
    }
    return bSupport;
 30405f0:	e0bffd17 	ldw	r2,-12(fp)
}
 30405f4:	e037883a 	mov	sp,fp
 30405f8:	dfc00117 	ldw	ra,4(sp)
 30405fc:	df000017 	ldw	fp,0(sp)
 3040600:	dec00204 	addi	sp,sp,8
 3040604:	f800283a 	ret

03040608 <build_wave_play_list>:


int build_wave_play_list(FAT_HANDLE hFat){
 3040608:	deff4804 	addi	sp,sp,-736
 304060c:	dfc0b715 	stw	ra,732(sp)
 3040610:	df00b615 	stw	fp,728(sp)
 3040614:	df00b604 	addi	fp,sp,728
 3040618:	e13ffe15 	stw	r4,-8(fp)
    int count = 0;
 304061c:	e03f5115 	stw	zero,-700(fp)
    FAT_BROWSE_HANDLE hFileBrowse;
    //FAT_DIRECTORY Directory;
    FILE_CONTEXT FileContext;
    FAT_FILE_HANDLE hFile;
    alt_u8 szHeader[128];
    char szWaveFilename[MAX_FILENAME_LENGTH];
    int sample_rate;
    bool bFlag = FALSE;
 3040620:	e03f4e15 	stw	zero,-712(fp)
    int nPos = 0;
 3040624:	e03f4d15 	stw	zero,-716(fp)
    int length=0;
 3040628:	e03f4c15 	stw	zero,-720(fp)
    //
    gWavePlayList.nFileNum = 0;
 304062c:	0080c1b4 	movhi	r2,774
 3040630:	10ba0604 	addi	r2,r2,-6120
 3040634:	10000015 	stw	zero,0(r2)
    if (!Fat_FileBrowseBegin(hFat,&hFileBrowse)){
 3040638:	e17f5204 	addi	r5,fp,-696
 304063c:	e13ffe17 	ldw	r4,-8(fp)
 3040640:	3041d100 	call	3041d10 <Fat_FileBrowseBegin>
 3040644:	1004c03a 	cmpne	r2,r2,zero
 3040648:	1000e21e 	bne	r2,zero,30409d4 <build_wave_play_list+0x3cc>
        DEMO_PRINTF("browse file fail.\n");
 304064c:	0100c1b4 	movhi	r4,774
 3040650:	2126f704 	addi	r4,r4,-25636
 3040654:	304be480 	call	304be48 <puts>
        return 0;
 3040658:	e03fff15 	stw	zero,-4(fp)
 304065c:	0000e806 	br	3040a00 <build_wave_play_list+0x3f8>
    } 
    
    //
    while (Fat_FileBrowseNext(&hFileBrowse,&FileContext)){
        if (FileContext.bLongFilename){
 3040660:	e0bf9417 	ldw	r2,-432(fp)
 3040664:	1005003a 	cmpeq	r2,r2,zero
 3040668:	1000411e 	bne	r2,zero,3040770 <build_wave_play_list+0x168>
                nPos = 0;
 304066c:	e03f4d15 	stw	zero,-716(fp)
                alt_u16 *pData16;
                alt_u8 *pData8;
                pData16 = (alt_u16 *)FileContext.szName;
 3040670:	e0bf5404 	addi	r2,fp,-688
 3040674:	e0bf4b15 	stw	r2,-724(fp)
                pData8 = FileContext.szName;
 3040678:	e0bf5404 	addi	r2,fp,-688
 304067c:	e0bf4a15 	stw	r2,-728(fp)
                while(*pData16){
 3040680:	00003106 	br	3040748 <build_wave_play_list+0x140>
                    if (*pData8 && *pData8 != ' ')
 3040684:	e0bf4a17 	ldw	r2,-728(fp)
 3040688:	10800003 	ldbu	r2,0(r2)
 304068c:	10803fcc 	andi	r2,r2,255
 3040690:	1005003a 	cmpeq	r2,r2,zero
 3040694:	10000f1e 	bne	r2,zero,30406d4 <build_wave_play_list+0xcc>
 3040698:	e0bf4a17 	ldw	r2,-728(fp)
 304069c:	10800003 	ldbu	r2,0(r2)
 30406a0:	10803fcc 	andi	r2,r2,255
 30406a4:	10800820 	cmpeqi	r2,r2,32
 30406a8:	10000a1e 	bne	r2,zero,30406d4 <build_wave_play_list+0xcc>
                        szWaveFilename[nPos++] = *pData8;
 30406ac:	e13f4d17 	ldw	r4,-716(fp)
 30406b0:	e0bf4a17 	ldw	r2,-728(fp)
 30406b4:	10800003 	ldbu	r2,0(r2)
 30406b8:	1007883a 	mov	r3,r2
 30406bc:	e0bfbe04 	addi	r2,fp,-264
 30406c0:	1105883a 	add	r2,r2,r4
 30406c4:	10c00005 	stb	r3,0(r2)
 30406c8:	e0bf4d17 	ldw	r2,-716(fp)
 30406cc:	10800044 	addi	r2,r2,1
 30406d0:	e0bf4d15 	stw	r2,-716(fp)
                    pData8++;
 30406d4:	e0bf4a17 	ldw	r2,-728(fp)
 30406d8:	10800044 	addi	r2,r2,1
 30406dc:	e0bf4a15 	stw	r2,-728(fp)
                    if (*pData8 && *pData8 != ' ')
 30406e0:	e0bf4a17 	ldw	r2,-728(fp)
 30406e4:	10800003 	ldbu	r2,0(r2)
 30406e8:	10803fcc 	andi	r2,r2,255
 30406ec:	1005003a 	cmpeq	r2,r2,zero
 30406f0:	10000f1e 	bne	r2,zero,3040730 <build_wave_play_list+0x128>
 30406f4:	e0bf4a17 	ldw	r2,-728(fp)
 30406f8:	10800003 	ldbu	r2,0(r2)
 30406fc:	10803fcc 	andi	r2,r2,255
 3040700:	10800820 	cmpeqi	r2,r2,32
 3040704:	10000a1e 	bne	r2,zero,3040730 <build_wave_play_list+0x128>
                        szWaveFilename[nPos++] = *pData8;
 3040708:	e13f4d17 	ldw	r4,-716(fp)
 304070c:	e0bf4a17 	ldw	r2,-728(fp)
 3040710:	10800003 	ldbu	r2,0(r2)
 3040714:	1007883a 	mov	r3,r2
 3040718:	e0bfbe04 	addi	r2,fp,-264
 304071c:	1105883a 	add	r2,r2,r4
 3040720:	10c00005 	stb	r3,0(r2)
 3040724:	e0bf4d17 	ldw	r2,-716(fp)
 3040728:	10800044 	addi	r2,r2,1
 304072c:	e0bf4d15 	stw	r2,-716(fp)
                    pData8++;                    
 3040730:	e0bf4a17 	ldw	r2,-728(fp)
 3040734:	10800044 	addi	r2,r2,1
 3040738:	e0bf4a15 	stw	r2,-728(fp)
                    //    
                    pData16++;
 304073c:	e0bf4b17 	ldw	r2,-724(fp)
 3040740:	10800084 	addi	r2,r2,2
 3040744:	e0bf4b15 	stw	r2,-724(fp)
 3040748:	e0bf4b17 	ldw	r2,-724(fp)
 304074c:	1080000b 	ldhu	r2,0(r2)
 3040750:	10bfffcc 	andi	r2,r2,65535
 3040754:	1004c03a 	cmpne	r2,r2,zero
 3040758:	103fca1e 	bne	r2,zero,3040684 <build_wave_play_list+0x7c>
                }
                szWaveFilename[nPos] = 0;
 304075c:	e0bf4d17 	ldw	r2,-716(fp)
 3040760:	e0ffbe04 	addi	r3,fp,-264
 3040764:	1885883a 	add	r2,r3,r2
 3040768:	10000005 	stb	zero,0(r2)
 304076c:	00000306 	br	304077c <build_wave_play_list+0x174>
                //printf("\n--Music Name:%s --\n",szWaveFilename);
            }else{
                strcpy(szWaveFilename,FileContext.szName);
 3040770:	e13fbe04 	addi	r4,fp,-264
 3040774:	e17f5404 	addi	r5,fp,-688
 3040778:	304c4380 	call	304c438 <strcpy>
                //printf("\n--Music Name:%s --\n",FileContext.szName);
            }       
            
            length= strlen(szWaveFilename);   
 304077c:	e13fbe04 	addi	r4,fp,-264
 3040780:	304c4c40 	call	304c4c4 <strlen>
 3040784:	e0bf4c15 	stw	r2,-720(fp)
            if(length >= 4){
 3040788:	e0bf4c17 	ldw	r2,-720(fp)
 304078c:	10800110 	cmplti	r2,r2,4
 3040790:	1000481e 	bne	r2,zero,30408b4 <build_wave_play_list+0x2ac>
               if((szWaveFilename[length-1] =='V' || szWaveFilename[length-1] =='v')
 3040794:	e0bf4c17 	ldw	r2,-720(fp)
 3040798:	10ffffc4 	addi	r3,r2,-1
 304079c:	e0bfbe04 	addi	r2,fp,-264
 30407a0:	10c5883a 	add	r2,r2,r3
 30407a4:	10800003 	ldbu	r2,0(r2)
 30407a8:	10803fcc 	andi	r2,r2,255
 30407ac:	1080201c 	xori	r2,r2,128
 30407b0:	10bfe004 	addi	r2,r2,-128
 30407b4:	108015a0 	cmpeqi	r2,r2,86
 30407b8:	10000a1e 	bne	r2,zero,30407e4 <build_wave_play_list+0x1dc>
 30407bc:	e0bf4c17 	ldw	r2,-720(fp)
 30407c0:	10ffffc4 	addi	r3,r2,-1
 30407c4:	e0bfbe04 	addi	r2,fp,-264
 30407c8:	10c5883a 	add	r2,r2,r3
 30407cc:	10800003 	ldbu	r2,0(r2)
 30407d0:	10803fcc 	andi	r2,r2,255
 30407d4:	1080201c 	xori	r2,r2,128
 30407d8:	10bfe004 	addi	r2,r2,-128
 30407dc:	10801d98 	cmpnei	r2,r2,118
 30407e0:	1000341e 	bne	r2,zero,30408b4 <build_wave_play_list+0x2ac>
 30407e4:	e0bf4c17 	ldw	r2,-720(fp)
 30407e8:	10ffff84 	addi	r3,r2,-2
 30407ec:	e0bfbe04 	addi	r2,fp,-264
 30407f0:	10c5883a 	add	r2,r2,r3
 30407f4:	10800003 	ldbu	r2,0(r2)
 30407f8:	10803fcc 	andi	r2,r2,255
 30407fc:	1080201c 	xori	r2,r2,128
 3040800:	10bfe004 	addi	r2,r2,-128
 3040804:	10801060 	cmpeqi	r2,r2,65
 3040808:	10000a1e 	bne	r2,zero,3040834 <build_wave_play_list+0x22c>
 304080c:	e0bf4c17 	ldw	r2,-720(fp)
 3040810:	10ffff84 	addi	r3,r2,-2
 3040814:	e0bfbe04 	addi	r2,fp,-264
 3040818:	10c5883a 	add	r2,r2,r3
 304081c:	10800003 	ldbu	r2,0(r2)
 3040820:	10803fcc 	andi	r2,r2,255
 3040824:	1080201c 	xori	r2,r2,128
 3040828:	10bfe004 	addi	r2,r2,-128
 304082c:	10801858 	cmpnei	r2,r2,97
 3040830:	1000201e 	bne	r2,zero,30408b4 <build_wave_play_list+0x2ac>
 3040834:	e0bf4c17 	ldw	r2,-720(fp)
 3040838:	10ffff44 	addi	r3,r2,-3
 304083c:	e0bfbe04 	addi	r2,fp,-264
 3040840:	10c5883a 	add	r2,r2,r3
 3040844:	10800003 	ldbu	r2,0(r2)
 3040848:	10803fcc 	andi	r2,r2,255
 304084c:	1080201c 	xori	r2,r2,128
 3040850:	10bfe004 	addi	r2,r2,-128
 3040854:	108015e0 	cmpeqi	r2,r2,87
 3040858:	10000a1e 	bne	r2,zero,3040884 <build_wave_play_list+0x27c>
 304085c:	e0bf4c17 	ldw	r2,-720(fp)
 3040860:	10ffff44 	addi	r3,r2,-3
 3040864:	e0bfbe04 	addi	r2,fp,-264
 3040868:	10c5883a 	add	r2,r2,r3
 304086c:	10800003 	ldbu	r2,0(r2)
 3040870:	10803fcc 	andi	r2,r2,255
 3040874:	1080201c 	xori	r2,r2,128
 3040878:	10bfe004 	addi	r2,r2,-128
 304087c:	10801dd8 	cmpnei	r2,r2,119
 3040880:	10000c1e 	bne	r2,zero,30408b4 <build_wave_play_list+0x2ac>
 3040884:	e0bf4c17 	ldw	r2,-720(fp)
 3040888:	10ffff04 	addi	r3,r2,-4
 304088c:	e0bfbe04 	addi	r2,fp,-264
 3040890:	10c5883a 	add	r2,r2,r3
 3040894:	10800003 	ldbu	r2,0(r2)
 3040898:	10803fcc 	andi	r2,r2,255
 304089c:	1080201c 	xori	r2,r2,128
 30408a0:	10bfe004 	addi	r2,r2,-128
 30408a4:	10800b98 	cmpnei	r2,r2,46
 30408a8:	1000021e 	bne	r2,zero,30408b4 <build_wave_play_list+0x2ac>
                &&(szWaveFilename[length-2] == 'A' || szWaveFilename[length-2] =='a')
                &&(szWaveFilename[length-3] == 'W' || szWaveFilename[length-3] == 'w')
                &&(szWaveFilename[length-4] == '.')){
                   bFlag = TRUE;
 30408ac:	00800044 	movi	r2,1
 30408b0:	e0bf4e15 	stw	r2,-712(fp)
                } 
            }
       
        if (bFlag){
 30408b4:	e0bf4e17 	ldw	r2,-712(fp)
 30408b8:	1005003a 	cmpeq	r2,r2,zero
 30408bc:	1000451e 	bne	r2,zero,30409d4 <build_wave_play_list+0x3cc>
            // parsing wave format
            hFile = Fat_FileOpen(hFat,szWaveFilename);
 30408c0:	e17fbe04 	addi	r5,fp,-264
 30408c4:	e13ffe17 	ldw	r4,-8(fp)
 30408c8:	30426140 	call	3042614 <Fat_FileOpen>
 30408cc:	e0bf5015 	stw	r2,-704(fp)
            if (!hFile){
 30408d0:	e0bf5017 	ldw	r2,-704(fp)
 30408d4:	1004c03a 	cmpne	r2,r2,zero
 30408d8:	1000041e 	bne	r2,zero,30408ec <build_wave_play_list+0x2e4>
                  DEMO_PRINTF("wave file open fail.\n");
 30408dc:	0100c1b4 	movhi	r4,774
 30408e0:	2126fc04 	addi	r4,r4,-25616
 30408e4:	304be480 	call	304be48 <puts>
                  continue;
 30408e8:	00003a06 	br	30409d4 <build_wave_play_list+0x3cc>
            }
            
            memset(szHeader,0,sizeof(szHeader));
 30408ec:	e0bf9e04 	addi	r2,fp,-392
 30408f0:	1009883a 	mov	r4,r2
 30408f4:	01802004 	movi	r6,128
 30408f8:	000b883a 	mov	r5,zero
 30408fc:	304bbfc0 	call	304bbfc <memset>
                    
            if (!Fat_FileRead(hFile, szHeader, sizeof(szHeader))){
 3040900:	e17f9e04 	addi	r5,fp,-392
 3040904:	e13f5017 	ldw	r4,-704(fp)
 3040908:	01802004 	movi	r6,128
 304090c:	304289c0 	call	304289c <Fat_FileRead>
 3040910:	1004c03a 	cmpne	r2,r2,zero
 3040914:	1000041e 	bne	r2,zero,3040928 <build_wave_play_list+0x320>
                  DEMO_PRINTF("wave file read fail.\n");
 3040918:	0100c1b4 	movhi	r4,774
 304091c:	21270204 	addi	r4,r4,-25592
 3040920:	304be480 	call	304be48 <puts>
                  continue;
 3040924:	00002b06 	br	30409d4 <build_wave_play_list+0x3cc>
            }
            Fat_FileClose(hFile);
 3040928:	e13f5017 	ldw	r4,-704(fp)
 304092c:	3042e980 	call	3042e98 <Fat_FileClose>
                
                        // check wave format
            sample_rate =  Wave_GetSampleRate(szHeader, sizeof(szHeader));
 3040930:	e13f9e04 	addi	r4,fp,-392
 3040934:	01402004 	movi	r5,128
 3040938:	30466200 	call	3046620 <Wave_GetSampleRate>
 304093c:	e0bf4f15 	stw	r2,-708(fp)
            DEMO_PRINTF("VER.\n");
 3040940:	0100c1b4 	movhi	r4,774
 3040944:	21270804 	addi	r4,r4,-25568
 3040948:	304be480 	call	304be48 <puts>
            if (WAVE_IsWaveFile(szHeader, sizeof(szHeader)) &&
 304094c:	e13f9e04 	addi	r4,fp,-392
 3040950:	01402004 	movi	r5,128
 3040954:	30464980 	call	3046498 <WAVE_IsWaveFile>
 3040958:	1005003a 	cmpeq	r2,r2,zero
 304095c:	10001d1e 	bne	r2,zero,30409d4 <build_wave_play_list+0x3cc>
 3040960:	e13f4f17 	ldw	r4,-708(fp)
 3040964:	30405640 	call	3040564 <is_supporrted_sample_rate>
 3040968:	1005003a 	cmpeq	r2,r2,zero
 304096c:	1000191e 	bne	r2,zero,30409d4 <build_wave_play_list+0x3cc>
 3040970:	e13f9e04 	addi	r4,fp,-392
 3040974:	01402004 	movi	r5,128
 3040978:	30466c80 	call	30466c8 <Wave_GetChannelNum>
 304097c:	10800098 	cmpnei	r2,r2,2
 3040980:	1000141e 	bne	r2,zero,30409d4 <build_wave_play_list+0x3cc>
 3040984:	e13f9e04 	addi	r4,fp,-392
 3040988:	01402004 	movi	r5,128
 304098c:	30467500 	call	3046750 <Wave_GetSampleBitNum>
 3040990:	10800418 	cmpnei	r2,r2,16
 3040994:	10000f1e 	bne	r2,zero,30409d4 <build_wave_play_list+0x3cc>
                is_supporrted_sample_rate(sample_rate) &&
                Wave_GetChannelNum(szHeader, sizeof(szHeader))==2 &&
                Wave_GetSampleBitNum(szHeader, sizeof(szHeader))==16){
                DEMO_PRINTF("VER aaaa.\n");
 3040998:	0100c1b4 	movhi	r4,774
 304099c:	21270a04 	addi	r4,r4,-25560
 30409a0:	304be480 	call	304be48 <puts>
                    strcpy(gWavePlayList.szFilename[count],szWaveFilename);
 30409a4:	e0bf5117 	ldw	r2,-700(fp)
 30409a8:	1004917a 	slli	r2,r2,5
 30409ac:	1007883a 	mov	r3,r2
 30409b0:	0080c1b4 	movhi	r2,774
 30409b4:	10ba0704 	addi	r2,r2,-6116
 30409b8:	1885883a 	add	r2,r3,r2
 30409bc:	1009883a 	mov	r4,r2
 30409c0:	e17fbe04 	addi	r5,fp,-264
 30409c4:	304c4380 	call	304c438 <strcpy>
                    count++;
 30409c8:	e0bf5117 	ldw	r2,-700(fp)
 30409cc:	10800044 	addi	r2,r2,1
 30409d0:	e0bf5115 	stw	r2,-700(fp)
 30409d4:	e13f5204 	addi	r4,fp,-696
 30409d8:	e17f5404 	addi	r5,fp,-688
 30409dc:	3041d8c0 	call	3041d8c <Fat_FileBrowseNext>
 30409e0:	1004c03a 	cmpne	r2,r2,zero
 30409e4:	103f1e1e 	bne	r2,zero,3040660 <build_wave_play_list+0x58>
            }
        }
    } // while  
    gWavePlayList.nFileNum = count;
 30409e8:	00c0c1b4 	movhi	r3,774
 30409ec:	18fa0604 	addi	r3,r3,-6120
 30409f0:	e0bf5117 	ldw	r2,-700(fp)
 30409f4:	18800015 	stw	r2,0(r3)
    
    //Fat_FileBrowseEnd(&hFileBrowse);   
    
    return count;
 30409f8:	e0bf5117 	ldw	r2,-700(fp)
 30409fc:	e0bfff15 	stw	r2,-4(fp)
 3040a00:	e0bfff17 	ldw	r2,-4(fp)
}
 3040a04:	e037883a 	mov	sp,fp
 3040a08:	dfc00117 	ldw	ra,4(sp)
 3040a0c:	df000017 	ldw	fp,0(sp)
 3040a10:	dec00204 	addi	sp,sp,8
 3040a14:	f800283a 	ret

03040a18 <waveplay_start>:




/////////////////////////////////////////////////////////////////
//// Function for wave playing /////////////////////////////////
/////////////////////////////////////////////////////////////////



void waveplay_stop(void);

bool waveplay_start(char *pFilename){
 3040a18:	defff904 	addi	sp,sp,-28
 3040a1c:	dfc00615 	stw	ra,24(sp)
 3040a20:	df000515 	stw	fp,20(sp)
 3040a24:	dc000415 	stw	r16,16(sp)
 3040a28:	df000404 	addi	fp,sp,16
 3040a2c:	e13fff15 	stw	r4,-4(fp)
    bool bSuccess;
    int nSize;
    //waveplay_stop();
    
  //  strcpyn(gWavePlay.szFilename, pFilename, FILENAME_LEN-1);
    strcpy(gWavePlay.szFilename, pFilename);
 3040a30:	0100c1b4 	movhi	r4,774
 3040a34:	213e8c04 	addi	r4,r4,-1488
 3040a38:	e17fff17 	ldw	r5,-4(fp)
 3040a3c:	304c4380 	call	304c438 <strcpy>
    gWavePlay.hFile = Fat_FileOpen(hFat, pFilename);
 3040a40:	d1277817 	ldw	r4,-25120(gp)
 3040a44:	e17fff17 	ldw	r5,-4(fp)
 3040a48:	30426140 	call	3042614 <Fat_FileOpen>
 3040a4c:	1007883a 	mov	r3,r2
 3040a50:	0080c1b4 	movhi	r2,774
 3040a54:	10be0704 	addi	r2,r2,-2020
 3040a58:	10c00015 	stw	r3,0(r2)
    if (!gWavePlay.hFile)
 3040a5c:	0080c1b4 	movhi	r2,774
 3040a60:	10be0704 	addi	r2,r2,-2020
 3040a64:	10800017 	ldw	r2,0(r2)
 3040a68:	1004c03a 	cmpne	r2,r2,zero
 3040a6c:	1000031e 	bne	r2,zero,3040a7c <waveplay_start+0x64>
        DEMO_PRINTF("wave file open fail.\n");
 3040a70:	0100c1b4 	movhi	r4,774
 3040a74:	2126fc04 	addi	r4,r4,-25616
 3040a78:	304be480 	call	304be48 <puts>
    
    //gWavePlay.szBuf = Fat_FileSize(gWavePlay.hFile);
    nSize = Fat_FileSize(gWavePlay.hFile);
 3040a7c:	0080c1b4 	movhi	r2,774
 3040a80:	10be0704 	addi	r2,r2,-2020
 3040a84:	11000017 	ldw	r4,0(r2)
 3040a88:	304284c0 	call	304284c <Fat_FileSize>
 3040a8c:	e0bffd15 	stw	r2,-12(fp)

    if (gWavePlay.hFile){                    
 3040a90:	0080c1b4 	movhi	r2,774
 3040a94:	10be0704 	addi	r2,r2,-2020
 3040a98:	10800017 	ldw	r2,0(r2)
 3040a9c:	1005003a 	cmpeq	r2,r2,zero
 3040aa0:	10000e1e 	bne	r2,zero,3040adc <waveplay_start+0xc4>
        bSuccess = Fat_FileRead(gWavePlay.hFile, gWavePlay.szBuf, WAVE_BUF_SIZE);
 3040aa4:	0080c1b4 	movhi	r2,774
 3040aa8:	10be0704 	addi	r2,r2,-2020
 3040aac:	11000017 	ldw	r4,0(r2)
 3040ab0:	0140c1b4 	movhi	r5,774
 3040ab4:	297e0804 	addi	r5,r5,-2016
 3040ab8:	01808004 	movi	r6,512
 3040abc:	304289c0 	call	304289c <Fat_FileRead>
 3040ac0:	e0bffe15 	stw	r2,-8(fp)
        if (!bSuccess)
 3040ac4:	e0bffe17 	ldw	r2,-8(fp)
 3040ac8:	1004c03a 	cmpne	r2,r2,zero
 3040acc:	1000031e 	bne	r2,zero,3040adc <waveplay_start+0xc4>
            DEMO_PRINTF("wave file read fail.\n");
 3040ad0:	0100c1b4 	movhi	r4,774
 3040ad4:	21270204 	addi	r4,r4,-25592
 3040ad8:	304be480 	call	304be48 <puts>
    }            
                
                        // check wave format
    if (bSuccess){      
 3040adc:	e0bffe17 	ldw	r2,-8(fp)
 3040ae0:	1005003a 	cmpeq	r2,r2,zero
 3040ae4:	1000601e 	bne	r2,zero,3040c68 <waveplay_start+0x250>
            int sample_rate =  Wave_GetSampleRate(gWavePlay.szBuf, WAVE_BUF_SIZE);                 
 3040ae8:	0100c1b4 	movhi	r4,774
 3040aec:	213e0804 	addi	r4,r4,-2016
 3040af0:	01408004 	movi	r5,512
 3040af4:	30466200 	call	3046620 <Wave_GetSampleRate>
 3040af8:	e0bffc15 	stw	r2,-16(fp)
            if (WAVE_IsWaveFile(gWavePlay.szBuf, WAVE_BUF_SIZE) &&
 3040afc:	0100c1b4 	movhi	r4,774
 3040b00:	213e0804 	addi	r4,r4,-2016
 3040b04:	01408004 	movi	r5,512
 3040b08:	30464980 	call	3046498 <WAVE_IsWaveFile>
 3040b0c:	1005003a 	cmpeq	r2,r2,zero
 3040b10:	1000541e 	bne	r2,zero,3040c64 <waveplay_start+0x24c>
 3040b14:	e13ffc17 	ldw	r4,-16(fp)
 3040b18:	30405640 	call	3040564 <is_supporrted_sample_rate>
 3040b1c:	1005003a 	cmpeq	r2,r2,zero
 3040b20:	1000501e 	bne	r2,zero,3040c64 <waveplay_start+0x24c>
 3040b24:	0100c1b4 	movhi	r4,774
 3040b28:	213e0804 	addi	r4,r4,-2016
 3040b2c:	01408004 	movi	r5,512
 3040b30:	30466c80 	call	30466c8 <Wave_GetChannelNum>
 3040b34:	10800098 	cmpnei	r2,r2,2
 3040b38:	10004a1e 	bne	r2,zero,3040c64 <waveplay_start+0x24c>
 3040b3c:	0100c1b4 	movhi	r4,774
 3040b40:	213e0804 	addi	r4,r4,-2016
 3040b44:	01408004 	movi	r5,512
 3040b48:	30467500 	call	3046750 <Wave_GetSampleBitNum>
 3040b4c:	10800418 	cmpnei	r2,r2,16
 3040b50:	1000441e 	bne	r2,zero,3040c64 <waveplay_start+0x24c>
                is_supporrted_sample_rate(sample_rate) &&
                Wave_GetChannelNum(gWavePlay.szBuf, WAVE_BUF_SIZE)==2 &&
                Wave_GetSampleBitNum(gWavePlay.szBuf, WAVE_BUF_SIZE)==16){
                    
                gWavePlay.uWavePlayPos = Wave_GetWaveOffset(gWavePlay.szBuf, WAVE_BUF_SIZE);
 3040b54:	0100c1b4 	movhi	r4,774
 3040b58:	213e0804 	addi	r4,r4,-2016
 3040b5c:	01408004 	movi	r5,512
 3040b60:	30468740 	call	3046874 <Wave_GetWaveOffset>
 3040b64:	1007883a 	mov	r3,r2
 3040b68:	0080c1b4 	movhi	r2,774
 3040b6c:	10be0704 	addi	r2,r2,-2020
 3040b70:	10c08315 	stw	r3,524(r2)
                gWavePlay.uWaveMaxPlayPos = gWavePlay.uWavePlayPos + Wave_GetDataByteSize(gWavePlay.szBuf, WAVE_BUF_SIZE);
 3040b74:	0080c1b4 	movhi	r2,774
 3040b78:	10be0704 	addi	r2,r2,-2020
 3040b7c:	14008317 	ldw	r16,524(r2)
 3040b80:	0100c1b4 	movhi	r4,774
 3040b84:	213e0804 	addi	r4,r4,-2016
 3040b88:	01408004 	movi	r5,512
 3040b8c:	30467d80 	call	30467d8 <Wave_GetDataByteSize>
 3040b90:	8087883a 	add	r3,r16,r2
 3040b94:	0080c1b4 	movhi	r2,774
 3040b98:	10be0704 	addi	r2,r2,-2020
 3040b9c:	10c08415 	stw	r3,528(r2)
                gWavePlay.uWaveReadPos = WAVE_BUF_SIZE;
 3040ba0:	00c0c1b4 	movhi	r3,774
 3040ba4:	18fe0704 	addi	r3,r3,-2020
 3040ba8:	00808004 	movi	r2,512
 3040bac:	18808215 	stw	r2,520(r3)

                // setup sample rate
                AUDIO_InterfaceActive(FALSE);
 3040bb0:	0009883a 	mov	r4,zero
 3040bb4:	3044adc0 	call	3044adc <AUDIO_InterfaceActive>
                if (sample_rate == 96000)
 3040bb8:	e0fffc17 	ldw	r3,-16(fp)
 3040bbc:	00800074 	movhi	r2,1
 3040bc0:	109dc004 	addi	r2,r2,30464
 3040bc4:	1880031e 	bne	r3,r2,3040bd4 <waveplay_start+0x1bc>
                    AUDIO_SetSampleRate(RATE_ADC96K_DAC96K);
 3040bc8:	01000144 	movi	r4,5
 3040bcc:	30450280 	call	3045028 <AUDIO_SetSampleRate>
 3040bd0:	00001c06 	br	3040c44 <waveplay_start+0x22c>
                else if (sample_rate == 48000)
 3040bd4:	e0fffc17 	ldw	r3,-16(fp)
 3040bd8:	00aee014 	movui	r2,48000
 3040bdc:	1880031e 	bne	r3,r2,3040bec <waveplay_start+0x1d4>
                    AUDIO_SetSampleRate(RATE_ADC48K_DAC48K);
 3040be0:	0009883a 	mov	r4,zero
 3040be4:	30450280 	call	3045028 <AUDIO_SetSampleRate>
 3040be8:	00001606 	br	3040c44 <waveplay_start+0x22c>
                else if (sample_rate == 44100)                    
 3040bec:	e0fffc17 	ldw	r3,-16(fp)
 3040bf0:	00ab1114 	movui	r2,44100
 3040bf4:	1880031e 	bne	r3,r2,3040c04 <waveplay_start+0x1ec>
                    AUDIO_SetSampleRate(RATE_ADC44K1_DAC44K1);
 3040bf8:	01000184 	movi	r4,6
 3040bfc:	30450280 	call	3045028 <AUDIO_SetSampleRate>
 3040c00:	00001006 	br	3040c44 <waveplay_start+0x22c>
                else if (sample_rate == 32000)                    
 3040c04:	e0bffc17 	ldw	r2,-16(fp)
 3040c08:	109f4018 	cmpnei	r2,r2,32000
 3040c0c:	1000031e 	bne	r2,zero,3040c1c <waveplay_start+0x204>
                    AUDIO_SetSampleRate(RATE_ADC32K_DAC32K);
 3040c10:	01000104 	movi	r4,4
 3040c14:	30450280 	call	3045028 <AUDIO_SetSampleRate>
 3040c18:	00000a06 	br	3040c44 <waveplay_start+0x22c>
                else if (sample_rate == 8000)                    
 3040c1c:	e0bffc17 	ldw	r2,-16(fp)
 3040c20:	1087d018 	cmpnei	r2,r2,8000
 3040c24:	1000031e 	bne	r2,zero,3040c34 <waveplay_start+0x21c>
                    AUDIO_SetSampleRate(RATE_ADC8K_DAC8K);
 3040c28:	010000c4 	movi	r4,3
 3040c2c:	30450280 	call	3045028 <AUDIO_SetSampleRate>
 3040c30:	00000406 	br	3040c44 <waveplay_start+0x22c>
                else    
                    DEMO_PRINTF("unsupported sample rate=%d\n", sample_rate);
 3040c34:	0100c1b4 	movhi	r4,774
 3040c38:	21270d04 	addi	r4,r4,-25548
 3040c3c:	e17ffc17 	ldw	r5,-16(fp)
 3040c40:	304bd0c0 	call	304bd0c <printf>
                AUDIO_FifoClear();
 3040c44:	30456840 	call	3045684 <AUDIO_FifoClear>
                AUDIO_InterfaceActive(TRUE);
 3040c48:	01000044 	movi	r4,1
 3040c4c:	3044adc0 	call	3044adc <AUDIO_InterfaceActive>
                
                  
                DEMO_PRINTF("sample rate=%d\n", sample_rate);    
 3040c50:	0100c1b4 	movhi	r4,774
 3040c54:	21271404 	addi	r4,r4,-25520
 3040c58:	e17ffc17 	ldw	r5,-16(fp)
 3040c5c:	304bd0c0 	call	304bd0c <printf>
 3040c60:	00000106 	br	3040c68 <waveplay_start+0x250>
            }else{
                bSuccess = FALSE;
 3040c64:	e03ffe15 	stw	zero,-8(fp)
            }    
    }            

    if (!bSuccess)
 3040c68:	e0bffe17 	ldw	r2,-8(fp)
 3040c6c:	1004c03a 	cmpne	r2,r2,zero
 3040c70:	1000011e 	bne	r2,zero,3040c78 <waveplay_start+0x260>
        waveplay_stop();    
 3040c74:	3040fcc0 	call	3040fcc <waveplay_stop>
    
    return bSuccess;
 3040c78:	e0bffe17 	ldw	r2,-8(fp)
}
 3040c7c:	e037883a 	mov	sp,fp
 3040c80:	dfc00217 	ldw	ra,8(sp)
 3040c84:	df000117 	ldw	fp,4(sp)
 3040c88:	dc000017 	ldw	r16,0(sp)
 3040c8c:	dec00304 	addi	sp,sp,12
 3040c90:	f800283a 	ret

03040c94 <waveplay_execute>:

bool waveplay_execute(bool *bEOF){
 3040c94:	defff004 	addi	sp,sp,-64
 3040c98:	dfc00f15 	stw	ra,60(sp)
 3040c9c:	df000e15 	stw	fp,56(sp)
 3040ca0:	df000e04 	addi	fp,sp,56
 3040ca4:	e13ffb15 	stw	r4,-20(fp)
    bool bSuccess = TRUE;
 3040ca8:	00800044 	movi	r2,1
 3040cac:	e0bffa15 	stw	r2,-24(fp)
    bool bDataReady = FALSE;
 3040cb0:	e03ff915 	stw	zero,-28(fp)
   
    
    // end of play data !
    if (gWavePlay.uWavePlayPos >= gWavePlay.uWaveMaxPlayPos){
 3040cb4:	0080c1b4 	movhi	r2,774
 3040cb8:	10be0704 	addi	r2,r2,-2020
 3040cbc:	10c08317 	ldw	r3,524(r2)
 3040cc0:	0080c1b4 	movhi	r2,774
 3040cc4:	10be0704 	addi	r2,r2,-2020
 3040cc8:	10808417 	ldw	r2,528(r2)
 3040ccc:	18800636 	bltu	r3,r2,3040ce8 <waveplay_execute+0x54>
        *bEOF = TRUE;
 3040cd0:	e0fffb17 	ldw	r3,-20(fp)
 3040cd4:	00800044 	movi	r2,1
 3040cd8:	18800015 	stw	r2,0(r3)
        return TRUE;
 3040cdc:	00800044 	movi	r2,1
 3040ce0:	e0bffe15 	stw	r2,-8(fp)
 3040ce4:	0000b306 	br	3040fb4 <waveplay_execute+0x320>
    }
    
    //
    *bEOF = FALSE;
 3040ce8:	e0bffb17 	ldw	r2,-20(fp)
 3040cec:	10000015 	stw	zero,0(r2)
    while (!bDataReady && bSuccess){
 3040cf0:	00003b06 	br	3040de0 <waveplay_execute+0x14c>
        if (gWavePlay.uWavePlayPos < gWavePlay.uWaveReadPos){
 3040cf4:	0080c1b4 	movhi	r2,774
 3040cf8:	10be0704 	addi	r2,r2,-2020
 3040cfc:	10c08317 	ldw	r3,524(r2)
 3040d00:	0080c1b4 	movhi	r2,774
 3040d04:	10be0704 	addi	r2,r2,-2020
 3040d08:	10808217 	ldw	r2,520(r2)
 3040d0c:	1880032e 	bgeu	r3,r2,3040d1c <waveplay_execute+0x88>
            bDataReady = TRUE;
 3040d10:	00800044 	movi	r2,1
 3040d14:	e0bff915 	stw	r2,-28(fp)
 3040d18:	00003106 	br	3040de0 <waveplay_execute+0x14c>
            //DEBUG_PRINTF("it is not neccessary to read data from sd-card\r\n");
        }else{
            int read_size = WAVE_BUF_SIZE;
 3040d1c:	00808004 	movi	r2,512
 3040d20:	e0bff815 	stw	r2,-32(fp)
            if (read_size > (gWavePlay.uWaveMaxPlayPos - gWavePlay.uWavePlayPos))
 3040d24:	e13ff817 	ldw	r4,-32(fp)
 3040d28:	0080c1b4 	movhi	r2,774
 3040d2c:	10be0704 	addi	r2,r2,-2020
 3040d30:	10c08417 	ldw	r3,528(r2)
 3040d34:	0080c1b4 	movhi	r2,774
 3040d38:	10be0704 	addi	r2,r2,-2020
 3040d3c:	10808317 	ldw	r2,524(r2)
 3040d40:	1885c83a 	sub	r2,r3,r2
 3040d44:	1100082e 	bgeu	r2,r4,3040d68 <waveplay_execute+0xd4>
                read_size = gWavePlay.uWaveMaxPlayPos - gWavePlay.uWavePlayPos;
 3040d48:	0080c1b4 	movhi	r2,774
 3040d4c:	10be0704 	addi	r2,r2,-2020
 3040d50:	10c08417 	ldw	r3,528(r2)
 3040d54:	0080c1b4 	movhi	r2,774
 3040d58:	10be0704 	addi	r2,r2,-2020
 3040d5c:	10808317 	ldw	r2,524(r2)
 3040d60:	1885c83a 	sub	r2,r3,r2
 3040d64:	e0bff815 	stw	r2,-32(fp)
            bSuccess = Fat_FileRead(gWavePlay.hFile, gWavePlay.szBuf, read_size);
 3040d68:	0080c1b4 	movhi	r2,774
 3040d6c:	10be0704 	addi	r2,r2,-2020
 3040d70:	11000017 	ldw	r4,0(r2)
 3040d74:	0140c1b4 	movhi	r5,774
 3040d78:	297e0804 	addi	r5,r5,-2016
 3040d7c:	e1bff817 	ldw	r6,-32(fp)
 3040d80:	304289c0 	call	304289c <Fat_FileRead>
 3040d84:	e0bffa15 	stw	r2,-24(fp)
            if (bSuccess)
 3040d88:	e0bffa17 	ldw	r2,-24(fp)
 3040d8c:	1005003a 	cmpeq	r2,r2,zero
 3040d90:	1000091e 	bne	r2,zero,3040db8 <waveplay_execute+0x124>
                gWavePlay.uWaveReadPos += read_size;
 3040d94:	0080c1b4 	movhi	r2,774
 3040d98:	10be0704 	addi	r2,r2,-2020
 3040d9c:	10c08217 	ldw	r3,520(r2)
 3040da0:	e0bff817 	ldw	r2,-32(fp)
 3040da4:	1887883a 	add	r3,r3,r2
 3040da8:	0080c1b4 	movhi	r2,774
 3040dac:	10be0704 	addi	r2,r2,-2020
 3040db0:	10c08215 	stw	r3,520(r2)
 3040db4:	00000a06 	br	3040de0 <waveplay_execute+0x14c>
            else    
                DEMO_PRINTF("[APP]sdcard read fail, read_pos:%ld, read_size:%d, max_play_pos:%ld !\r\n", gWavePlay.uWaveReadPos, read_size, gWavePlay.uWaveMaxPlayPos);
 3040db8:	0080c1b4 	movhi	r2,774
 3040dbc:	10be0704 	addi	r2,r2,-2020
 3040dc0:	11408217 	ldw	r5,520(r2)
 3040dc4:	0080c1b4 	movhi	r2,774
 3040dc8:	10be0704 	addi	r2,r2,-2020
 3040dcc:	11c08417 	ldw	r7,528(r2)
 3040dd0:	0100c1b4 	movhi	r4,774
 3040dd4:	21271804 	addi	r4,r4,-25504
 3040dd8:	e1bff817 	ldw	r6,-32(fp)
 3040ddc:	304bd0c0 	call	304bd0c <printf>
 3040de0:	e0bff917 	ldw	r2,-28(fp)
 3040de4:	1004c03a 	cmpne	r2,r2,zero
 3040de8:	1000031e 	bne	r2,zero,3040df8 <waveplay_execute+0x164>
 3040dec:	e0bffa17 	ldw	r2,-24(fp)
 3040df0:	1004c03a 	cmpne	r2,r2,zero
 3040df4:	103fbf1e 	bne	r2,zero,3040cf4 <waveplay_execute+0x60>
        }    
    } // while
    
    //
    if (bDataReady && bSuccess){
 3040df8:	e0bff917 	ldw	r2,-28(fp)
 3040dfc:	1005003a 	cmpeq	r2,r2,zero
 3040e00:	10006a1e 	bne	r2,zero,3040fac <waveplay_execute+0x318>
 3040e04:	e0bffa17 	ldw	r2,-24(fp)
 3040e08:	1005003a 	cmpeq	r2,r2,zero
 3040e0c:	1000671e 	bne	r2,zero,3040fac <waveplay_execute+0x318>
#ifdef DISPLAY_WAVE_POWER
        alt_u32 power_sum = 0, power;
 3040e10:	e03ff715 	stw	zero,-36(fp)
#endif        
        int play_size; 
        short *pSample = (short *)(gWavePlay.szBuf + gWavePlay.uWavePlayPos%WAVE_BUF_SIZE);
 3040e14:	0080c1b4 	movhi	r2,774
 3040e18:	10be0704 	addi	r2,r2,-2020
 3040e1c:	10808317 	ldw	r2,524(r2)
 3040e20:	10807fcc 	andi	r2,r2,511
 3040e24:	1007883a 	mov	r3,r2
 3040e28:	0080c1b4 	movhi	r2,774
 3040e2c:	10be0804 	addi	r2,r2,-2016
 3040e30:	1885883a 	add	r2,r3,r2
 3040e34:	e0bff415 	stw	r2,-48(fp)
        int i = 0;
 3040e38:	e03ff315 	stw	zero,-52(fp)
        play_size = gWavePlay.uWaveReadPos - gWavePlay.uWavePlayPos;
 3040e3c:	0080c1b4 	movhi	r2,774
 3040e40:	10be0704 	addi	r2,r2,-2020
 3040e44:	10c08217 	ldw	r3,520(r2)
 3040e48:	0080c1b4 	movhi	r2,774
 3040e4c:	10be0704 	addi	r2,r2,-2020
 3040e50:	10808317 	ldw	r2,524(r2)
 3040e54:	1885c83a 	sub	r2,r3,r2
 3040e58:	e0bff515 	stw	r2,-44(fp)
        play_size = play_size/4*4;
 3040e5c:	e0bff517 	ldw	r2,-44(fp)
 3040e60:	e0bfff15 	stw	r2,-4(fp)
 3040e64:	e0ffff17 	ldw	r3,-4(fp)
 3040e68:	1804403a 	cmpge	r2,r3,zero
 3040e6c:	1000031e 	bne	r2,zero,3040e7c <waveplay_execute+0x1e8>
 3040e70:	e13fff17 	ldw	r4,-4(fp)
 3040e74:	210000c4 	addi	r4,r4,3
 3040e78:	e13fff15 	stw	r4,-4(fp)
 3040e7c:	e0ffff17 	ldw	r3,-4(fp)
 3040e80:	1805d0ba 	srai	r2,r3,2
 3040e84:	1085883a 	add	r2,r2,r2
 3040e88:	1085883a 	add	r2,r2,r2
 3040e8c:	e0bff515 	stw	r2,-44(fp)
        while(i < play_size){
 3040e90:	00003b06 	br	3040f80 <waveplay_execute+0x2ec>
            if(AUDIO_DacFifoNotFull()){ // if audio ready (not full)
 3040e94:	30455600 	call	3045560 <AUDIO_DacFifoNotFull>
 3040e98:	1005003a 	cmpeq	r2,r2,zero
 3040e9c:	1000381e 	bne	r2,zero,3040f80 <waveplay_execute+0x2ec>
                short ch_right, ch_left;
                ch_left = *pSample++;
 3040ea0:	e0bff417 	ldw	r2,-48(fp)
 3040ea4:	1080000b 	ldhu	r2,0(r2)
 3040ea8:	e0bff20d 	sth	r2,-56(fp)
 3040eac:	e0bff417 	ldw	r2,-48(fp)
 3040eb0:	10800084 	addi	r2,r2,2
 3040eb4:	e0bff415 	stw	r2,-48(fp)
                ch_right = *pSample++;
 3040eb8:	e0bff417 	ldw	r2,-48(fp)
 3040ebc:	1080000b 	ldhu	r2,0(r2)
 3040ec0:	e0bff28d 	sth	r2,-54(fp)
 3040ec4:	e0bff417 	ldw	r2,-48(fp)
 3040ec8:	10800084 	addi	r2,r2,2
 3040ecc:	e0bff415 	stw	r2,-48(fp)
                
#ifdef DISPLAY_WAVE_POWER  // indicate power by avg 64 sample
                power = abs(ch_left) + abs(ch_right);
 3040ed0:	e0bff20f 	ldh	r2,-56(fp)
 3040ed4:	e0bffd15 	stw	r2,-12(fp)
 3040ed8:	e13ffd17 	ldw	r4,-12(fp)
 3040edc:	2004403a 	cmpge	r2,r4,zero
 3040ee0:	1000031e 	bne	r2,zero,3040ef0 <waveplay_execute+0x25c>
 3040ee4:	e0bffd17 	ldw	r2,-12(fp)
 3040ee8:	0085c83a 	sub	r2,zero,r2
 3040eec:	e0bffd15 	stw	r2,-12(fp)
 3040ef0:	e0bff28f 	ldh	r2,-54(fp)
 3040ef4:	e0bffc15 	stw	r2,-16(fp)
 3040ef8:	e0fffc17 	ldw	r3,-16(fp)
 3040efc:	1804403a 	cmpge	r2,r3,zero
 3040f00:	1000031e 	bne	r2,zero,3040f10 <waveplay_execute+0x27c>
 3040f04:	e13ffc17 	ldw	r4,-16(fp)
 3040f08:	0109c83a 	sub	r4,zero,r4
 3040f0c:	e13ffc15 	stw	r4,-16(fp)
 3040f10:	e0fffd17 	ldw	r3,-12(fp)
 3040f14:	e13ffc17 	ldw	r4,-16(fp)
 3040f18:	1905883a 	add	r2,r3,r4
 3040f1c:	e0bff615 	stw	r2,-40(fp)
                power_sum += power;     
 3040f20:	e0fff717 	ldw	r3,-36(fp)
 3040f24:	e0bff617 	ldw	r2,-40(fp)
 3040f28:	1885883a 	add	r2,r3,r2
 3040f2c:	e0bff715 	stw	r2,-36(fp)
                if ((i & 0x01F) == 0 && i != 0){
 3040f30:	e0bff317 	ldw	r2,-52(fp)
 3040f34:	108007cc 	andi	r2,r2,31
 3040f38:	1004c03a 	cmpne	r2,r2,zero
 3040f3c:	10000a1e 	bne	r2,zero,3040f68 <waveplay_execute+0x2d4>
 3040f40:	e0bff317 	ldw	r2,-52(fp)
 3040f44:	1005003a 	cmpeq	r2,r2,zero
 3040f48:	1000071e 	bne	r2,zero,3040f68 <waveplay_execute+0x2d4>
                    power = power_sum >> (6+7);  // 6: divide 64,  7: power scale
 3040f4c:	e0bff717 	ldw	r2,-36(fp)
 3040f50:	1004d37a 	srli	r2,r2,13
 3040f54:	e0bff615 	stw	r2,-40(fp)
                    led_display_count(power); 
 3040f58:	e0bff617 	ldw	r2,-40(fp)
 3040f5c:	11003fcc 	andi	r4,r2,255
 3040f60:	30404900 	call	3040490 <led_display_count>
                    power_sum = 0;
 3040f64:	e03ff715 	stw	zero,-36(fp)
                }                        
#endif                

                AUDIO_DacFifoSetData(ch_left, ch_right); // play wave
 3040f68:	e13ff20f 	ldh	r4,-56(fp)
 3040f6c:	e17ff28f 	ldh	r5,-54(fp)
 3040f70:	30455b40 	call	30455b4 <AUDIO_DacFifoSetData>
                i+=4;
 3040f74:	e0bff317 	ldw	r2,-52(fp)
 3040f78:	10800104 	addi	r2,r2,4
 3040f7c:	e0bff315 	stw	r2,-52(fp)
 3040f80:	e0fff317 	ldw	r3,-52(fp)
 3040f84:	e0bff517 	ldw	r2,-44(fp)
 3040f88:	18bfc216 	blt	r3,r2,3040e94 <waveplay_execute+0x200>
            }
        } // while
        gWavePlay.uWavePlayPos += play_size;
 3040f8c:	0080c1b4 	movhi	r2,774
 3040f90:	10be0704 	addi	r2,r2,-2020
 3040f94:	10c08317 	ldw	r3,524(r2)
 3040f98:	e0bff517 	ldw	r2,-44(fp)
 3040f9c:	1887883a 	add	r3,r3,r2
 3040fa0:	0080c1b4 	movhi	r2,774
 3040fa4:	10be0704 	addi	r2,r2,-2020
 3040fa8:	10c08315 	stw	r3,524(r2)
                    
    } //
    
    return bSuccess;
 3040fac:	e0bffa17 	ldw	r2,-24(fp)
 3040fb0:	e0bffe15 	stw	r2,-8(fp)
 3040fb4:	e0bffe17 	ldw	r2,-8(fp)
}
 3040fb8:	e037883a 	mov	sp,fp
 3040fbc:	dfc00117 	ldw	ra,4(sp)
 3040fc0:	df000017 	ldw	fp,0(sp)
 3040fc4:	dec00204 	addi	sp,sp,8
 3040fc8:	f800283a 	ret

03040fcc <waveplay_stop>:

void waveplay_stop(void){
 3040fcc:	deffff04 	addi	sp,sp,-4
 3040fd0:	df000015 	stw	fp,0(sp)
 3040fd4:	d839883a 	mov	fp,sp
    /*if (gWavePlay.hFile.IsOpened){
        Fat_FileClose(&gWavePlay.hFile);
    }*/
}
 3040fd8:	e037883a 	mov	sp,fp
 3040fdc:	df000017 	ldw	fp,0(sp)
 3040fe0:	dec00104 	addi	sp,sp,4
 3040fe4:	f800283a 	ret

03040fe8 <handle_key>:

/////////////////////////////////////////////////////////////////
/////////// Routing for button handle ///////////////////////////
/////////////////////////////////////////////////////////////////
// return true if next-song 
void handle_key(bool *pNexSongPressed){
 3040fe8:	defff704 	addi	sp,sp,-36
 3040fec:	dfc00815 	stw	ra,32(sp)
 3040ff0:	df000715 	stw	fp,28(sp)
 3040ff4:	df000704 	addi	fp,sp,28
 3040ff8:	e13fff15 	stw	r4,-4(fp)
    static bool bFirsTime2SetupVol = TRUE;
    alt_u8 button;
    bool bNextSong, bVolUp, bVolDown;
    int nHwVol;


#ifdef SUPPORT_PLAY_MODE
    bool bRepeat;
    bRepeat = (IORD_ALTERA_AVALON_PIO_DATA(SW_BASE) & 0x01)?TRUE:FALSE;
 3040ffc:	00804034 	movhi	r2,256
 3041000:	10801c04 	addi	r2,r2,112
 3041004:	10800037 	ldwio	r2,0(r2)
 3041008:	1080004c 	andi	r2,r2,1
 304100c:	e0bff915 	stw	r2,-28(fp)
    if (bRepeat ^ gWavePlay.bRepeatMode){
 3041010:	0080c1b4 	movhi	r2,774
 3041014:	10be0704 	addi	r2,r2,-2020
 3041018:	10c08e17 	ldw	r3,568(r2)
 304101c:	e0bff917 	ldw	r2,-28(fp)
 3041020:	18800526 	beq	r3,r2,3041038 <handle_key+0x50>
        gWavePlay.bRepeatMode = bRepeat;
 3041024:	00c0c1b4 	movhi	r3,774
 3041028:	18fe0704 	addi	r3,r3,-2020
 304102c:	e0bff917 	ldw	r2,-28(fp)
 3041030:	18808e15 	stw	r2,568(r3)
        update_status();
 3041034:	30403140 	call	3040314 <update_status>
    }                    
#endif        
        

    *pNexSongPressed = FALSE;
 3041038:	e0bfff17 	ldw	r2,-4(fp)
 304103c:	10000015 	stw	zero,0(r2)
#ifdef ENABLE_DEBOUNCE
    static alt_u32 next_active_time = 0;
    if (alt_nticks() < next_active_time ){
        return;
    }
    next_active_time = alt_nticks();
#endif   
    
    button = IORD_ALTERA_AVALON_PIO_DATA(KEY_BASE);
 3041040:	00804034 	movhi	r2,256
 3041044:	10801804 	addi	r2,r2,96
 3041048:	10800037 	ldwio	r2,0(r2)
 304104c:	e0bffe05 	stb	r2,-8(fp)
    button = IORD_ALTERA_AVALON_PIO_EDGE_CAP(KEY_BASE);
 3041050:	00804034 	movhi	r2,256
 3041054:	10801b04 	addi	r2,r2,108
 3041058:	10800037 	ldwio	r2,0(r2)
 304105c:	e0bffe05 	stb	r2,-8(fp)
    IOWR_ALTERA_AVALON_PIO_EDGE_CAP(KEY_BASE, 0); // clear flag 
 3041060:	00804034 	movhi	r2,256
 3041064:	10801b04 	addi	r2,r2,108
 3041068:	10000035 	stwio	zero,0(r2)
    bNextSong = (button & 0x08)?TRUE:FALSE;
 304106c:	e0bffe03 	ldbu	r2,-8(fp)
 3041070:	1080020c 	andi	r2,r2,8
 3041074:	1004c03a 	cmpne	r2,r2,zero
 3041078:	e0bffd15 	stw	r2,-12(fp)
    bVolUp = (button & 0x04)?TRUE:FALSE;
 304107c:	e0bffe03 	ldbu	r2,-8(fp)
 3041080:	1080010c 	andi	r2,r2,4
 3041084:	1004c03a 	cmpne	r2,r2,zero
 3041088:	e0bffc15 	stw	r2,-16(fp)
    bVolDown = (button & 0x02)?TRUE:FALSE;
 304108c:	e0bffe03 	ldbu	r2,-8(fp)
 3041090:	1080008c 	andi	r2,r2,2
 3041094:	1004c03a 	cmpne	r2,r2,zero
 3041098:	e0bffb15 	stw	r2,-20(fp)
    
    
    
    // adjust volument    
    if ((bVolUp || bVolDown || bFirsTime2SetupVol) && !bMuteSwitch){
 304109c:	e0bffc17 	ldw	r2,-16(fp)
 30410a0:	1004c03a 	cmpne	r2,r2,zero
 30410a4:	1000061e 	bne	r2,zero,30410c0 <handle_key+0xd8>
 30410a8:	e0bffb17 	ldw	r2,-20(fp)
 30410ac:	1004c03a 	cmpne	r2,r2,zero
 30410b0:	1000031e 	bne	r2,zero,30410c0 <handle_key+0xd8>
 30410b4:	d0a00117 	ldw	r2,-32764(gp)
 30410b8:	1005003a 	cmpeq	r2,r2,zero
 30410bc:	10003a1e 	bne	r2,zero,30411a8 <handle_key+0x1c0>
 30410c0:	d0a77717 	ldw	r2,-25124(gp)
 30410c4:	1004c03a 	cmpne	r2,r2,zero
 30410c8:	1000371e 	bne	r2,zero,30411a8 <handle_key+0x1c0>
        nHwVol = gWavePlay.nVolume;    
 30410cc:	0080c1b4 	movhi	r2,774
 30410d0:	10be0704 	addi	r2,r2,-2020
 30410d4:	10808d03 	ldbu	r2,564(r2)
 30410d8:	10803fcc 	andi	r2,r2,255
 30410dc:	e0bffa15 	stw	r2,-24(fp)
        if (bFirsTime2SetupVol){
 30410e0:	d0a00117 	ldw	r2,-32764(gp)
 30410e4:	1005003a 	cmpeq	r2,r2,zero
 30410e8:	1000081e 	bne	r2,zero,304110c <handle_key+0x124>
            bFirsTime2SetupVol = FALSE;
 30410ec:	d0200115 	stw	zero,-32764(gp)
            DEMO_PRINTF("current volume %d(%d-%d)\r\n", nHwVol, HW_MIN_VOL, HW_MAX_VOL);
 30410f0:	0100c1b4 	movhi	r4,774
 30410f4:	21272a04 	addi	r4,r4,-25432
 30410f8:	e17ffa17 	ldw	r5,-24(fp)
 30410fc:	01800784 	movi	r6,30
 3041100:	01c02584 	movi	r7,150
 3041104:	304bd0c0 	call	304bd0c <printf>
 3041108:	00001c06 	br	304117c <handle_key+0x194>
        }else if (bVolUp){
 304110c:	e0bffc17 	ldw	r2,-16(fp)
 3041110:	1005003a 	cmpeq	r2,r2,zero
 3041114:	10000d1e 	bne	r2,zero,304114c <handle_key+0x164>
            if (nHwVol < HW_MAX_VOL) 
 3041118:	e0bffa17 	ldw	r2,-24(fp)
 304111c:	10802588 	cmpgei	r2,r2,150
 3041120:	1000031e 	bne	r2,zero,3041130 <handle_key+0x148>
                nHwVol++;
 3041124:	e0bffa17 	ldw	r2,-24(fp)
 3041128:	10800044 	addi	r2,r2,1
 304112c:	e0bffa15 	stw	r2,-24(fp)
            DEMO_PRINTF("volume up %d(%d-%d)\r\n", nHwVol, HW_MIN_VOL, HW_MAX_VOL);
 3041130:	0100c1b4 	movhi	r4,774
 3041134:	21273104 	addi	r4,r4,-25404
 3041138:	e17ffa17 	ldw	r5,-24(fp)
 304113c:	01800784 	movi	r6,30
 3041140:	01c02584 	movi	r7,150
 3041144:	304bd0c0 	call	304bd0c <printf>
 3041148:	00000c06 	br	304117c <handle_key+0x194>
        }else{
            if (nHwVol > HW_MIN_VOL)
 304114c:	e0bffa17 	ldw	r2,-24(fp)
 3041150:	108007d0 	cmplti	r2,r2,31
 3041154:	1000031e 	bne	r2,zero,3041164 <handle_key+0x17c>
                nHwVol--;
 3041158:	e0bffa17 	ldw	r2,-24(fp)
 304115c:	10bfffc4 	addi	r2,r2,-1
 3041160:	e0bffa15 	stw	r2,-24(fp)
            DEMO_PRINTF("volume down %d(%d-%d)\r\n", nHwVol, HW_MIN_VOL, HW_MAX_VOL);
 3041164:	0100c1b4 	movhi	r4,774
 3041168:	21273704 	addi	r4,r4,-25380
 304116c:	e17ffa17 	ldw	r5,-24(fp)
 3041170:	01800784 	movi	r6,30
 3041174:	01c02584 	movi	r7,150
 3041178:	304bd0c0 	call	304bd0c <printf>
        }                    
        AUDIO_SetLineOutVol(nHwVol, nHwVol); 
 304117c:	e0bffa17 	ldw	r2,-24(fp)
 3041180:	113fffcc 	andi	r4,r2,65535
 3041184:	e0bffa17 	ldw	r2,-24(fp)
 3041188:	117fffcc 	andi	r5,r2,65535
 304118c:	30452300 	call	3045230 <AUDIO_SetLineOutVol>
        gWavePlay.nVolume = nHwVol;
 3041190:	e0bffa17 	ldw	r2,-24(fp)
 3041194:	1007883a 	mov	r3,r2
 3041198:	0080c1b4 	movhi	r2,774
 304119c:	10be0704 	addi	r2,r2,-2020
 30411a0:	10c08d05 	stb	r3,564(r2)
        update_status();
 30411a4:	30403140 	call	3040314 <update_status>
    }
 
    
    if (bNextSong){
 30411a8:	e0bffd17 	ldw	r2,-12(fp)
 30411ac:	1005003a 	cmpeq	r2,r2,zero
 30411b0:	1000061e 	bne	r2,zero,30411cc <handle_key+0x1e4>
        *pNexSongPressed = TRUE;
 30411b4:	e0ffff17 	ldw	r3,-4(fp)
 30411b8:	00800044 	movi	r2,1
 30411bc:	18800015 	stw	r2,0(r3)
        DEMO_PRINTF("Play Next Song\r\n");
 30411c0:	0100c1b4 	movhi	r4,774
 30411c4:	21273d04 	addi	r4,r4,-25356
 30411c8:	304be480 	call	304be48 <puts>
    }        
#ifdef ENABLE_DEBOUNCE        
    if (bNextSong || bVolUp || bVolDown){
        next_active_time +=  alt_ticks_per_second()/5;  // debounce
    }        
#endif    
    
}
 30411cc:	e037883a 	mov	sp,fp
 30411d0:	dfc00117 	ldw	ra,4(sp)
 30411d4:	df000017 	ldw	fp,0(sp)
 30411d8:	dec00204 	addi	sp,sp,8
 30411dc:	f800283a 	ret

030411e0 <IRDA_init>:

/////////////////////////////////////////////////////////////////
/////////// Routing for IrDA handle /////////////////////////////
/////////////////////////////////////////////////////////////////

//IRDA  initial
void IRDA_init()
{
 30411e0:	defffd04 	addi	sp,sp,-12
 30411e4:	dfc00215 	stw	ra,8(sp)
 30411e8:	df000115 	stw	fp,4(sp)
 30411ec:	df000104 	addi	fp,sp,4
    alt_irq_register(TERASIC_IRDA_0_IRQ,0,handle_IrDA);            //irda irq register
 30411f0:	010001c4 	movi	r4,7
 30411f4:	000b883a 	mov	r5,zero
 30411f8:	0180c134 	movhi	r6,772
 30411fc:	31848d04 	addi	r6,r6,4660
 3041200:	30534280 	call	3053428 <alt_irq_register>
 3041204:	008001c4 	movi	r2,7
 3041208:	e0bfff15 	stw	r2,-4(fp)
  status |= (context & NIOS2_STATUS_PIE_MSK);
  
  NIOS2_WRITE_STATUS (status);
#else
  NIOS2_WRITE_STATUS (context);
 304120c:	e0bfff17 	ldw	r2,-4(fp)
 3041210:	1001703a 	wrctl	status,r2
    alt_irq_enable_all(TERASIC_IRDA_0_IRQ);
    IOWR(TERASIC_IRDA_0_BASE,0,0);
 3041214:	0080c234 	movhi	r2,776
 3041218:	10841e04 	addi	r2,r2,4216
 304121c:	10000035 	stwio	zero,0(r2)
}
 3041220:	e037883a 	mov	sp,fp
 3041224:	dfc00117 	ldw	ra,4(sp)
 3041228:	df000017 	ldw	fp,0(sp)
 304122c:	dec00204 	addi	sp,sp,8
 3041230:	f800283a 	ret

03041234 <handle_IrDA>:

// return true if next-song
void handle_IrDA(bool * p,alt_u32 id){
 3041234:	defff304 	addi	sp,sp,-52
 3041238:	dfc00c15 	stw	ra,48(sp)
 304123c:	df000b15 	stw	fp,44(sp)
 3041240:	df000b04 	addi	fp,sp,44
 3041244:	e13ffe15 	stw	r4,-8(fp)
 3041248:	e17fff15 	stw	r5,-4(fp)
    static bool bFirsTime2SetupVol = TRUE;
    alt_u32 button;
    bool bLastSong,bNextSong, bVolUp, bVolDown,bMute,bPlay;
    int nHwVol;


#ifdef SUPPORT_PLAY_MODE
    bool bRepeat;
    bRepeat = (IORD_ALTERA_AVALON_PIO_DATA(SW_BASE) & 0x01)?TRUE:FALSE;
 304124c:	00804034 	movhi	r2,256
 3041250:	10801c04 	addi	r2,r2,112
 3041254:	10800037 	ldwio	r2,0(r2)
 3041258:	1080004c 	andi	r2,r2,1
 304125c:	e0bff515 	stw	r2,-44(fp)
    if (bRepeat ^ gWavePlay.bRepeatMode){
 3041260:	0080c1b4 	movhi	r2,774
 3041264:	10be0704 	addi	r2,r2,-2020
 3041268:	10c08e17 	ldw	r3,568(r2)
 304126c:	e0bff517 	ldw	r2,-44(fp)
 3041270:	18800526 	beq	r3,r2,3041288 <handle_IrDA+0x54>
        gWavePlay.bRepeatMode = bRepeat;
 3041274:	00c0c1b4 	movhi	r3,774
 3041278:	18fe0704 	addi	r3,r3,-2020
 304127c:	e0bff517 	ldw	r2,-44(fp)
 3041280:	18808e15 	stw	r2,568(r3)
        update_status();
 3041284:	30403140 	call	3040314 <update_status>
    }                    
#endif        
        
#ifdef ENABLE_DEBOUNCE
    static alt_u32 next_active_time = 0;
    if (alt_nticks() < next_active_time ){
        return;
    }
    next_active_time = alt_nticks();
#endif   
   
    button = IORD(TERASIC_IRDA_0_BASE,0);
 3041288:	0080c234 	movhi	r2,776
 304128c:	10841e04 	addi	r2,r2,4216
 3041290:	10800037 	ldwio	r2,0(r2)
 3041294:	e0bffd15 	stw	r2,-12(fp)
    button <<= 8;
 3041298:	e0bffd17 	ldw	r2,-12(fp)
 304129c:	1004923a 	slli	r2,r2,8
 30412a0:	e0bffd15 	stw	r2,-12(fp)
    button >>= 24;
 30412a4:	e0bffd17 	ldw	r2,-12(fp)
 30412a8:	1004d63a 	srli	r2,r2,24
 30412ac:	e0bffd15 	stw	r2,-12(fp)
    IOWR_ALTERA_AVALON_PIO_EDGE_CAP(TERASIC_IRDA_0_BASE, 0); // clear flag 
 30412b0:	0080c234 	movhi	r2,776
 30412b4:	10842104 	addi	r2,r2,4228
 30412b8:	10000035 	stwio	zero,0(r2)
    
    IOWR(TERASIC_IRDA_0_BASE,0,0);
 30412bc:	0080c234 	movhi	r2,776
 30412c0:	10841e04 	addi	r2,r2,4216
 30412c4:	10000035 	stwio	zero,0(r2)
    bLastSong = (button == 0x1a) ? TRUE : FALSE;
 30412c8:	e0bffd17 	ldw	r2,-12(fp)
 30412cc:	108006a0 	cmpeqi	r2,r2,26
 30412d0:	e0bffc15 	stw	r2,-16(fp)
    bNextSong = (button == 0x1e) ? TRUE : FALSE;
 30412d4:	e0bffd17 	ldw	r2,-12(fp)
 30412d8:	108007a0 	cmpeqi	r2,r2,30
 30412dc:	e0bffb15 	stw	r2,-20(fp)
    bVolUp    = (button == 0x1b) ? TRUE : FALSE;
 30412e0:	e0bffd17 	ldw	r2,-12(fp)
 30412e4:	108006e0 	cmpeqi	r2,r2,27
 30412e8:	e0bffa15 	stw	r2,-24(fp)
    bVolDown  = (button == 0x1f) ? TRUE : FALSE;
 30412ec:	e0bffd17 	ldw	r2,-12(fp)
 30412f0:	108007e0 	cmpeqi	r2,r2,31
 30412f4:	e0bff915 	stw	r2,-28(fp)
    bMute     = (button == 0x0c) ? TRUE : FALSE;
 30412f8:	e0bffd17 	ldw	r2,-12(fp)
 30412fc:	10800320 	cmpeqi	r2,r2,12
 3041300:	e0bff815 	stw	r2,-32(fp)
    bPlay     = (button == 0x16) ? TRUE : FALSE;
 3041304:	e0bffd17 	ldw	r2,-12(fp)
 3041308:	108005a0 	cmpeqi	r2,r2,22
 304130c:	e0bff715 	stw	r2,-36(fp)
   
    
    // adjust volument    
    if ((bVolUp || bVolDown || bFirsTime2SetupVol) && !bMuteSwitch){
 3041310:	e0bffa17 	ldw	r2,-24(fp)
 3041314:	1004c03a 	cmpne	r2,r2,zero
 3041318:	1000061e 	bne	r2,zero,3041334 <handle_IrDA+0x100>
 304131c:	e0bff917 	ldw	r2,-28(fp)
 3041320:	1004c03a 	cmpne	r2,r2,zero
 3041324:	1000031e 	bne	r2,zero,3041334 <handle_IrDA+0x100>
 3041328:	d0a00217 	ldw	r2,-32760(gp)
 304132c:	1005003a 	cmpeq	r2,r2,zero
 3041330:	10003a1e 	bne	r2,zero,304141c <handle_IrDA+0x1e8>
 3041334:	d0a77717 	ldw	r2,-25124(gp)
 3041338:	1004c03a 	cmpne	r2,r2,zero
 304133c:	1000371e 	bne	r2,zero,304141c <handle_IrDA+0x1e8>
        nHwVol = gWavePlay.nVolume;    
 3041340:	0080c1b4 	movhi	r2,774
 3041344:	10be0704 	addi	r2,r2,-2020
 3041348:	10808d03 	ldbu	r2,564(r2)
 304134c:	10803fcc 	andi	r2,r2,255
 3041350:	e0bff615 	stw	r2,-40(fp)
        if (bFirsTime2SetupVol){
 3041354:	d0a00217 	ldw	r2,-32760(gp)
 3041358:	1005003a 	cmpeq	r2,r2,zero
 304135c:	1000081e 	bne	r2,zero,3041380 <handle_IrDA+0x14c>
            bFirsTime2SetupVol = FALSE;
 3041360:	d0200215 	stw	zero,-32760(gp)
            DEMO_PRINTF("current volume %d(%d-%d)\r\n", nHwVol, HW_MIN_VOL, HW_MAX_VOL);
 3041364:	0100c1b4 	movhi	r4,774
 3041368:	21272a04 	addi	r4,r4,-25432
 304136c:	e17ff617 	ldw	r5,-40(fp)
 3041370:	01800784 	movi	r6,30
 3041374:	01c02584 	movi	r7,150
 3041378:	304bd0c0 	call	304bd0c <printf>
 304137c:	00001c06 	br	30413f0 <handle_IrDA+0x1bc>
        }else if (bVolUp){
 3041380:	e0bffa17 	ldw	r2,-24(fp)
 3041384:	1005003a 	cmpeq	r2,r2,zero
 3041388:	10000d1e 	bne	r2,zero,30413c0 <handle_IrDA+0x18c>
            if (nHwVol < HW_MAX_VOL) 
 304138c:	e0bff617 	ldw	r2,-40(fp)
 3041390:	10802588 	cmpgei	r2,r2,150
 3041394:	1000031e 	bne	r2,zero,30413a4 <handle_IrDA+0x170>
                nHwVol++;
 3041398:	e0bff617 	ldw	r2,-40(fp)
 304139c:	10800044 	addi	r2,r2,1
 30413a0:	e0bff615 	stw	r2,-40(fp)
            DEMO_PRINTF("volume up %d(%d-%d)\r\n", nHwVol, HW_MIN_VOL, HW_MAX_VOL);
 30413a4:	0100c1b4 	movhi	r4,774
 30413a8:	21273104 	addi	r4,r4,-25404
 30413ac:	e17ff617 	ldw	r5,-40(fp)
 30413b0:	01800784 	movi	r6,30
 30413b4:	01c02584 	movi	r7,150
 30413b8:	304bd0c0 	call	304bd0c <printf>
 30413bc:	00000c06 	br	30413f0 <handle_IrDA+0x1bc>
        }else{
            if (nHwVol > HW_MIN_VOL)
 30413c0:	e0bff617 	ldw	r2,-40(fp)
 30413c4:	108007d0 	cmplti	r2,r2,31
 30413c8:	1000031e 	bne	r2,zero,30413d8 <handle_IrDA+0x1a4>
                nHwVol--;
 30413cc:	e0bff617 	ldw	r2,-40(fp)
 30413d0:	10bfffc4 	addi	r2,r2,-1
 30413d4:	e0bff615 	stw	r2,-40(fp)
            DEMO_PRINTF("volume down %d(%d-%d)\r\n", nHwVol, HW_MIN_VOL, HW_MAX_VOL);
 30413d8:	0100c1b4 	movhi	r4,774
 30413dc:	21273704 	addi	r4,r4,-25380
 30413e0:	e17ff617 	ldw	r5,-40(fp)
 30413e4:	01800784 	movi	r6,30
 30413e8:	01c02584 	movi	r7,150
 30413ec:	304bd0c0 	call	304bd0c <printf>
        }                    
        AUDIO_SetLineOutVol(nHwVol, nHwVol); 
 30413f0:	e0bff617 	ldw	r2,-40(fp)
 30413f4:	113fffcc 	andi	r4,r2,65535
 30413f8:	e0bff617 	ldw	r2,-40(fp)
 30413fc:	117fffcc 	andi	r5,r2,65535
 3041400:	30452300 	call	3045230 <AUDIO_SetLineOutVol>
        gWavePlay.nVolume = nHwVol;
 3041404:	e0bff617 	ldw	r2,-40(fp)
 3041408:	1007883a 	mov	r3,r2
 304140c:	0080c1b4 	movhi	r2,774
 3041410:	10be0704 	addi	r2,r2,-2020
 3041414:	10c08d05 	stb	r3,564(r2)
        update_status();
 3041418:	30403140 	call	3040314 <update_status>
    }
 
    if (bLastSong){
 304141c:	e0bffc17 	ldw	r2,-16(fp)
 3041420:	1005003a 	cmpeq	r2,r2,zero
 3041424:	1000051e 	bne	r2,zero,304143c <handle_IrDA+0x208>
        bLastSwitch = TRUE ;
 3041428:	00800044 	movi	r2,1
 304142c:	d0a77515 	stw	r2,-25132(gp)
        DEMO_PRINTF("Play Last Song\r\n");
 3041430:	0100c1b4 	movhi	r4,774
 3041434:	21274104 	addi	r4,r4,-25340
 3041438:	304be480 	call	304be48 <puts>
    } 
    if (bNextSong){
 304143c:	e0bffb17 	ldw	r2,-20(fp)
 3041440:	1005003a 	cmpeq	r2,r2,zero
 3041444:	1000051e 	bne	r2,zero,304145c <handle_IrDA+0x228>
        bNextSwitch = TRUE ;
 3041448:	00800044 	movi	r2,1
 304144c:	d0a77615 	stw	r2,-25128(gp)
        DEMO_PRINTF("Play Next Song\r\n");
 3041450:	0100c1b4 	movhi	r4,774
 3041454:	21273d04 	addi	r4,r4,-25356
 3041458:	304be480 	call	304be48 <puts>
    }       
    
    if(bMute){
 304145c:	e0bff817 	ldw	r2,-32(fp)
 3041460:	1005003a 	cmpeq	r2,r2,zero
 3041464:	1000231e 	bne	r2,zero,30414f4 <handle_IrDA+0x2c0>
        nHwVol = gWavePlay.nVolume;
 3041468:	0080c1b4 	movhi	r2,774
 304146c:	10be0704 	addi	r2,r2,-2020
 3041470:	10808d03 	ldbu	r2,564(r2)
 3041474:	10803fcc 	andi	r2,r2,255
 3041478:	e0bff615 	stw	r2,-40(fp)
        if(nHwVol != 47){
 304147c:	e0bff617 	ldw	r2,-40(fp)
 3041480:	10800be0 	cmpeqi	r2,r2,47
 3041484:	10000a1e 	bne	r2,zero,30414b0 <handle_IrDA+0x27c>
            nMute_Volume = nHwVol;
 3041488:	e0bff617 	ldw	r2,-40(fp)
 304148c:	d0a77415 	stw	r2,-25136(gp)
            nHwVol = 47;
 3041490:	00800bc4 	movi	r2,47
 3041494:	e0bff615 	stw	r2,-40(fp)
            DEMO_PRINTF("Open Mute...\r\n");
 3041498:	0100c1b4 	movhi	r4,774
 304149c:	21274504 	addi	r4,r4,-25324
 30414a0:	304be480 	call	304be48 <puts>
            
            bMuteSwitch = TRUE;
 30414a4:	00800044 	movi	r2,1
 30414a8:	d0a77715 	stw	r2,-25124(gp)
 30414ac:	00000606 	br	30414c8 <handle_IrDA+0x294>
        }else{
            nHwVol = nMute_Volume;
 30414b0:	d0a77417 	ldw	r2,-25136(gp)
 30414b4:	e0bff615 	stw	r2,-40(fp)
            DEMO_PRINTF("Shut Mute...\r\n");
 30414b8:	0100c1b4 	movhi	r4,774
 30414bc:	21274904 	addi	r4,r4,-25308
 30414c0:	304be480 	call	304be48 <puts>
            
            bMuteSwitch = FALSE;
 30414c4:	d0277715 	stw	zero,-25124(gp)
        }
        AUDIO_SetLineOutVol(nHwVol, nHwVol);
 30414c8:	e0bff617 	ldw	r2,-40(fp)
 30414cc:	113fffcc 	andi	r4,r2,65535
 30414d0:	e0bff617 	ldw	r2,-40(fp)
 30414d4:	117fffcc 	andi	r5,r2,65535
 30414d8:	30452300 	call	3045230 <AUDIO_SetLineOutVol>
        gWavePlay.nVolume = nHwVol;
 30414dc:	e0bff617 	ldw	r2,-40(fp)
 30414e0:	1007883a 	mov	r3,r2
 30414e4:	0080c1b4 	movhi	r2,774
 30414e8:	10be0704 	addi	r2,r2,-2020
 30414ec:	10c08d05 	stb	r3,564(r2)
        update_status();
 30414f0:	30403140 	call	3040314 <update_status>
        
    } 
    if(bPlay){
 30414f4:	e0bff717 	ldw	r2,-36(fp)
 30414f8:	1005003a 	cmpeq	r2,r2,zero
 30414fc:	10000f1e 	bne	r2,zero,304153c <handle_IrDA+0x308>
        bPlaySwitch = !bPlaySwitch;
 3041500:	d0a00017 	ldw	r2,-32768(gp)
 3041504:	1005003a 	cmpeq	r2,r2,zero
 3041508:	d0a00015 	stw	r2,-32768(gp)
        if(bPlaySwitch)
 304150c:	d0a00017 	ldw	r2,-32768(gp)
 3041510:	1005003a 	cmpeq	r2,r2,zero
 3041514:	1000041e 	bne	r2,zero,3041528 <handle_IrDA+0x2f4>
           printf("Play Continue...\r\n");
 3041518:	0100c1b4 	movhi	r4,774
 304151c:	21274d04 	addi	r4,r4,-25292
 3041520:	304be480 	call	304be48 <puts>
 3041524:	00000306 	br	3041534 <handle_IrDA+0x300>
        else
           printf("Play Pause...\r\n");
 3041528:	0100c1b4 	movhi	r4,774
 304152c:	21275204 	addi	r4,r4,-25272
 3041530:	304be480 	call	304be48 <puts>
        AUDIO_InterfaceActive(bPlaySwitch);
 3041534:	d1200017 	ldw	r4,-32768(gp)
 3041538:	3044adc0 	call	3044adc <AUDIO_InterfaceActive>
    }
#ifdef ENABLE_DEBOUNCE        
    if (bLastSong || bNextSong || bVolUp || bVolDown){
        next_active_time +=  alt_ticks_per_second()/5;  // debounce
    }        
#endif    
    
}
 304153c:	e037883a 	mov	sp,fp
 3041540:	dfc00117 	ldw	ra,4(sp)
 3041544:	df000017 	ldw	fp,0(sp)
 3041548:	dec00204 	addi	sp,sp,8
 304154c:	f800283a 	ret

03041550 <Fat_Test>:

bool Fat_Test(FAT_HANDLE hFat, char *pDumpFile){
 3041550:	deff6704 	addi	sp,sp,-612
 3041554:	dfc09815 	stw	ra,608(sp)
 3041558:	df009715 	stw	fp,604(sp)
 304155c:	df009704 	addi	fp,sp,604
 3041560:	e13ffe15 	stw	r4,-8(fp)
 3041564:	e17fff15 	stw	r5,-4(fp)
    bool bSuccess;
    int nCount = 0;
 3041568:	e03f7015 	stw	zero,-576(fp)
    FAT_BROWSE_HANDLE hBrowse;
    FILE_CONTEXT FileContext;
    
    bSuccess = Fat_FileBrowseBegin(hFat, &hBrowse);
 304156c:	e17f7204 	addi	r5,fp,-568
 3041570:	e13ffe17 	ldw	r4,-8(fp)
 3041574:	3041d100 	call	3041d10 <Fat_FileBrowseBegin>
 3041578:	e0bf7115 	stw	r2,-572(fp)
    if (bSuccess){
 304157c:	e0bf7117 	ldw	r2,-572(fp)
 3041580:	1005003a 	cmpeq	r2,r2,zero
 3041584:	10003d1e 	bne	r2,zero,304167c <Fat_Test+0x12c>
        while(Fat_FileBrowseNext(&hBrowse, &FileContext)){
 3041588:	00003706 	br	3041668 <Fat_Test+0x118>
            if (FileContext.bLongFilename){
 304158c:	e0bfb417 	ldw	r2,-304(fp)
 3041590:	1005003a 	cmpeq	r2,r2,zero
 3041594:	10002c1e 	bne	r2,zero,3041648 <Fat_Test+0xf8>
                alt_u16 *pData16;
                alt_u8 *pData8;
                pData16 = (alt_u16 *)FileContext.szName;
 3041598:	e0bf7404 	addi	r2,fp,-560
 304159c:	e0bf6f15 	stw	r2,-580(fp)
                pData8 = FileContext.szName;
 30415a0:	e0bf7404 	addi	r2,fp,-560
 30415a4:	e0bf6e15 	stw	r2,-584(fp)
                printf("[%d]", nCount);
 30415a8:	0100c1b4 	movhi	r4,774
 30415ac:	21275604 	addi	r4,r4,-25256
 30415b0:	e17f7017 	ldw	r5,-576(fp)
 30415b4:	304bd0c0 	call	304bd0c <printf>
                while(*pData16){
 30415b8:	00001b06 	br	3041628 <Fat_Test+0xd8>
                    if (*pData8)
 30415bc:	e0bf6e17 	ldw	r2,-584(fp)
 30415c0:	10800003 	ldbu	r2,0(r2)
 30415c4:	10803fcc 	andi	r2,r2,255
 30415c8:	1005003a 	cmpeq	r2,r2,zero
 30415cc:	1000041e 	bne	r2,zero,30415e0 <Fat_Test+0x90>
                        printf("%c", *pData8);
 30415d0:	e0bf6e17 	ldw	r2,-584(fp)
 30415d4:	10800003 	ldbu	r2,0(r2)
 30415d8:	11003fcc 	andi	r4,r2,255
 30415dc:	304bd840 	call	304bd84 <putchar>
                    pData8++;
 30415e0:	e0bf6e17 	ldw	r2,-584(fp)
 30415e4:	10800044 	addi	r2,r2,1
 30415e8:	e0bf6e15 	stw	r2,-584(fp)
                    if (*pData8)
 30415ec:	e0bf6e17 	ldw	r2,-584(fp)
 30415f0:	10800003 	ldbu	r2,0(r2)
 30415f4:	10803fcc 	andi	r2,r2,255
 30415f8:	1005003a 	cmpeq	r2,r2,zero
 30415fc:	1000041e 	bne	r2,zero,3041610 <Fat_Test+0xc0>
                        printf("%c", *pData8);
 3041600:	e0bf6e17 	ldw	r2,-584(fp)
 3041604:	10800003 	ldbu	r2,0(r2)
 3041608:	11003fcc 	andi	r4,r2,255
 304160c:	304bd840 	call	304bd84 <putchar>
                    pData8++;                    
 3041610:	e0bf6e17 	ldw	r2,-584(fp)
 3041614:	10800044 	addi	r2,r2,1
 3041618:	e0bf6e15 	stw	r2,-584(fp)
                    //    
                    pData16++;
 304161c:	e0bf6f17 	ldw	r2,-580(fp)
 3041620:	10800084 	addi	r2,r2,2
 3041624:	e0bf6f15 	stw	r2,-580(fp)
 3041628:	e0bf6f17 	ldw	r2,-580(fp)
 304162c:	1080000b 	ldhu	r2,0(r2)
 3041630:	10bfffcc 	andi	r2,r2,65535
 3041634:	1004c03a 	cmpne	r2,r2,zero
 3041638:	103fe01e 	bne	r2,zero,30415bc <Fat_Test+0x6c>
                }
                printf("\n");
 304163c:	01000284 	movi	r4,10
 3041640:	304bd840 	call	304bd84 <putchar>
 3041644:	00000506 	br	304165c <Fat_Test+0x10c>
            }else{
                printf("---[%d]%s\n", nCount, FileContext.szName);
 3041648:	e1bf7404 	addi	r6,fp,-560
 304164c:	0100c1b4 	movhi	r4,774
 3041650:	21275804 	addi	r4,r4,-25248
 3041654:	e17f7017 	ldw	r5,-576(fp)
 3041658:	304bd0c0 	call	304bd0c <printf>
            }                
            nCount++;
 304165c:	e0bf7017 	ldw	r2,-576(fp)
 3041660:	10800044 	addi	r2,r2,1
 3041664:	e0bf7015 	stw	r2,-576(fp)
 3041668:	e13f7204 	addi	r4,fp,-568
 304166c:	e17f7404 	addi	r5,fp,-560
 3041670:	3041d8c0 	call	3041d8c <Fat_FileBrowseNext>
 3041674:	1004c03a 	cmpne	r2,r2,zero
 3041678:	103fc41e 	bne	r2,zero,304158c <Fat_Test+0x3c>
        }    
    }
    if (bSuccess && pDumpFile && strlen(pDumpFile)){
 304167c:	e0bf7117 	ldw	r2,-572(fp)
 3041680:	1005003a 	cmpeq	r2,r2,zero
 3041684:	10005d1e 	bne	r2,zero,30417fc <Fat_Test+0x2ac>
 3041688:	e0bfff17 	ldw	r2,-4(fp)
 304168c:	1005003a 	cmpeq	r2,r2,zero
 3041690:	10005a1e 	bne	r2,zero,30417fc <Fat_Test+0x2ac>
 3041694:	e0bfff17 	ldw	r2,-4(fp)
 3041698:	10800003 	ldbu	r2,0(r2)
 304169c:	10803fcc 	andi	r2,r2,255
 30416a0:	1080201c 	xori	r2,r2,128
 30416a4:	10bfe004 	addi	r2,r2,-128
 30416a8:	1005003a 	cmpeq	r2,r2,zero
 30416ac:	1000531e 	bne	r2,zero,30417fc <Fat_Test+0x2ac>
        FAT_FILE_HANDLE hFile;
        hFile =  Fat_FileOpen(hFat, pDumpFile);
 30416b0:	e13ffe17 	ldw	r4,-8(fp)
 30416b4:	e17fff17 	ldw	r5,-4(fp)
 30416b8:	30426140 	call	3042614 <Fat_FileOpen>
 30416bc:	e0bf6d15 	stw	r2,-588(fp)
        if (hFile){
 30416c0:	e0bf6d17 	ldw	r2,-588(fp)
 30416c4:	1005003a 	cmpeq	r2,r2,zero
 30416c8:	1000471e 	bne	r2,zero,30417e8 <Fat_Test+0x298>
            char szRead[256];
            int nReadSize, nFileSize, nTotalReadSize=0;
 30416cc:	e03f6a15 	stw	zero,-600(fp)
            nFileSize = Fat_FileSize(hFile);
 30416d0:	e13f6d17 	ldw	r4,-588(fp)
 30416d4:	304284c0 	call	304284c <Fat_FileSize>
 30416d8:	e0bf6b15 	stw	r2,-596(fp)
            if (nReadSize > sizeof(szRead))
 30416dc:	e0bf6c17 	ldw	r2,-592(fp)
 30416e0:	10804070 	cmpltui	r2,r2,257
 30416e4:	1000021e 	bne	r2,zero,30416f0 <Fat_Test+0x1a0>
                nReadSize = sizeof(szRead);
 30416e8:	00804004 	movi	r2,256
 30416ec:	e0bf6c15 	stw	r2,-592(fp)
            printf("%s dump:\n", pDumpFile);
 30416f0:	0100c1b4 	movhi	r4,774
 30416f4:	21275b04 	addi	r4,r4,-25236
 30416f8:	e17fff17 	ldw	r5,-4(fp)
 30416fc:	304bd0c0 	call	304bd0c <printf>
            while(bSuccess && nTotalReadSize < nFileSize){
 3041700:	00002b06 	br	30417b0 <Fat_Test+0x260>
                nReadSize = sizeof(szRead);
 3041704:	00804004 	movi	r2,256
 3041708:	e0bf6c15 	stw	r2,-592(fp)
                if (nReadSize > (nFileSize - nTotalReadSize))
 304170c:	e0ff6b17 	ldw	r3,-596(fp)
 3041710:	e0bf6a17 	ldw	r2,-600(fp)
 3041714:	1887c83a 	sub	r3,r3,r2
 3041718:	e0bf6c17 	ldw	r2,-592(fp)
 304171c:	1880040e 	bge	r3,r2,3041730 <Fat_Test+0x1e0>
                    nReadSize = (nFileSize - nTotalReadSize);
 3041720:	e0bf6b17 	ldw	r2,-596(fp)
 3041724:	e0ff6a17 	ldw	r3,-600(fp)
 3041728:	10c5c83a 	sub	r2,r2,r3
 304172c:	e0bf6c15 	stw	r2,-592(fp)
                //    
                if (Fat_FileRead(hFile, szRead, nReadSize)){
 3041730:	e17fbe04 	addi	r5,fp,-264
 3041734:	e13f6d17 	ldw	r4,-588(fp)
 3041738:	e1bf6c17 	ldw	r6,-592(fp)
 304173c:	304289c0 	call	304289c <Fat_FileRead>
 3041740:	1005003a 	cmpeq	r2,r2,zero
 3041744:	1000151e 	bne	r2,zero,304179c <Fat_Test+0x24c>
                    int i;
                    for(i=0;i<nReadSize;i++){
 3041748:	e03f6915 	stw	zero,-604(fp)
 304174c:	00000b06 	br	304177c <Fat_Test+0x22c>
                        printf("%c", szRead[i]);
 3041750:	e0ff6917 	ldw	r3,-604(fp)
 3041754:	e0bfbe04 	addi	r2,fp,-264
 3041758:	10c5883a 	add	r2,r2,r3
 304175c:	10800003 	ldbu	r2,0(r2)
 3041760:	11003fcc 	andi	r4,r2,255
 3041764:	2100201c 	xori	r4,r4,128
 3041768:	213fe004 	addi	r4,r4,-128
 304176c:	304bd840 	call	304bd84 <putchar>
 3041770:	e0bf6917 	ldw	r2,-604(fp)
 3041774:	10800044 	addi	r2,r2,1
 3041778:	e0bf6915 	stw	r2,-604(fp)
 304177c:	e0ff6917 	ldw	r3,-604(fp)
 3041780:	e0bf6c17 	ldw	r2,-592(fp)
 3041784:	18bff216 	blt	r3,r2,3041750 <Fat_Test+0x200>
                    }
                    nTotalReadSize += nReadSize;
 3041788:	e0bf6a17 	ldw	r2,-600(fp)
 304178c:	e0ff6c17 	ldw	r3,-592(fp)
 3041790:	10c5883a 	add	r2,r2,r3
 3041794:	e0bf6a15 	stw	r2,-600(fp)
 3041798:	00000506 	br	30417b0 <Fat_Test+0x260>
                }else{
                    bSuccess = FALSE;
 304179c:	e03f7115 	stw	zero,-572(fp)
                    printf("\nFaied to read the file \"%s\"\n", pDumpFile);
 30417a0:	0100c1b4 	movhi	r4,774
 30417a4:	21275e04 	addi	r4,r4,-25224
 30417a8:	e17fff17 	ldw	r5,-4(fp)
 30417ac:	304bd0c0 	call	304bd0c <printf>
 30417b0:	e0bf7117 	ldw	r2,-572(fp)
 30417b4:	1005003a 	cmpeq	r2,r2,zero
 30417b8:	1000031e 	bne	r2,zero,30417c8 <Fat_Test+0x278>
 30417bc:	e0ff6a17 	ldw	r3,-600(fp)
 30417c0:	e0bf6b17 	ldw	r2,-596(fp)
 30417c4:	18bfcf16 	blt	r3,r2,3041704 <Fat_Test+0x1b4>
                }     
            } // while
            if (bSuccess)
 30417c8:	e0bf7117 	ldw	r2,-572(fp)
 30417cc:	1005003a 	cmpeq	r2,r2,zero
 30417d0:	1000021e 	bne	r2,zero,30417dc <Fat_Test+0x28c>
                printf("\n");
 30417d4:	01000284 	movi	r4,10
 30417d8:	304bd840 	call	304bd84 <putchar>
            Fat_FileClose(hFile);
 30417dc:	e13f6d17 	ldw	r4,-588(fp)
 30417e0:	3042e980 	call	3042e98 <Fat_FileClose>
 30417e4:	00000506 	br	30417fc <Fat_Test+0x2ac>
        }else{            
            bSuccess = FALSE;
 30417e8:	e03f7115 	stw	zero,-572(fp)
            printf("Cannot find the file \"%s\"\n", pDumpFile);
 30417ec:	0100c1b4 	movhi	r4,774
 30417f0:	21276604 	addi	r4,r4,-25192
 30417f4:	e17fff17 	ldw	r5,-4(fp)
 30417f8:	304bd0c0 	call	304bd0c <printf>
        }            
    }
    
    return bSuccess;
 30417fc:	e0bf7117 	ldw	r2,-572(fp)
}
 3041800:	e037883a 	mov	sp,fp
 3041804:	dfc00117 	ldw	ra,4(sp)
 3041808:	df000017 	ldw	fp,0(sp)
 304180c:	dec00204 	addi	sp,sp,8
 3041810:	f800283a 	ret

03041814 <main>:

int main()
{
 3041814:	deffe904 	addi	sp,sp,-92
 3041818:	dfc01615 	stw	ra,88(sp)
 304181c:	df001515 	stw	fp,84(sp)
 3041820:	df001504 	addi	fp,sp,84

    int nPlayIndex;
    alt_u32 cnt, uSongStartTime, uTimeElapsed;
    alt_8 led_mask = 0x03;
 3041824:	008000c4 	movi	r2,3
 3041828:	e0bff005 	stb	r2,-64(fp)
    alt_u8 szWaveFile[FILENAME_LEN];
    IRDA_init();
 304182c:	30411e00 	call	30411e0 <IRDA_init>
    lcd_open();
 3041830:	30404040 	call	3040404 <lcd_open>
    welcome_display();
 3041834:	30402100 	call	3040210 <welcome_display>
    demo_introduce();
 3041838:	30402780 	call	3040278 <demo_introduce>
	DEMO_PRINTF("Opa tudo bom guri");
 304183c:	0100c1b4 	movhi	r4,774
 3041840:	21276d04 	addi	r4,r4,-25164
 3041844:	304bd0c0 	call	304bd0c <printf>
    if (!AUDIO_Init()){
 3041848:	30449180 	call	3044918 <AUDIO_Init>
 304184c:	1004c03a 	cmpne	r2,r2,zero
 3041850:	1000081e 	bne	r2,zero,3041874 <main+0x60>
        DEMO_PRINTF("Audio Init fail!\n");
 3041854:	0100c1b4 	movhi	r4,774
 3041858:	21277204 	addi	r4,r4,-25144
 304185c:	304be480 	call	304be48 <puts>
        lcd_display(("Audio Init fail!\n\n"));
 3041860:	0100c1b4 	movhi	r4,774
 3041864:	21277704 	addi	r4,r4,-25124
 3041868:	304042c0 	call	304042c <lcd_display>
        return 0;
 304186c:	e03fff15 	stw	zero,-4(fp)
 3041870:	0000d806 	br	3041bd4 <main+0x3c0>
    }
    
    //AUDIO_EnableByPass(TRUE);
    //AUDIO_EnableSiteTone(TRUE);

    
    memset(&gWavePlay, 0, sizeof(gWavePlay));
 3041874:	0080c1b4 	movhi	r2,774
 3041878:	10be0704 	addi	r2,r2,-2020
 304187c:	1009883a 	mov	r4,r2
 3041880:	01808f04 	movi	r6,572
 3041884:	000b883a 	mov	r5,zero
 3041888:	304bbfc0 	call	304bbfc <memset>
    gWavePlay.nVolume = HW_DEFAULT_VOL;
 304188c:	00c0c1b4 	movhi	r3,774
 3041890:	18fe0704 	addi	r3,r3,-2020
 3041894:	00801904 	movi	r2,100
 3041898:	18808d05 	stb	r2,564(r3)
    AUDIO_SetLineOutVol(gWavePlay.nVolume, gWavePlay.nVolume); 
 304189c:	0080c1b4 	movhi	r2,774
 30418a0:	10be0704 	addi	r2,r2,-2020
 30418a4:	10808d03 	ldbu	r2,564(r2)
 30418a8:	11003fcc 	andi	r4,r2,255
 30418ac:	0080c1b4 	movhi	r2,774
 30418b0:	10be0704 	addi	r2,r2,-2020
 30418b4:	10808d03 	ldbu	r2,564(r2)
 30418b8:	11403fcc 	andi	r5,r2,255
 30418bc:	30452300 	call	3045230 <AUDIO_SetLineOutVol>
  
    while(1){
        
        // check SD card
        wait_sdcard_insert();
 30418c0:	30404c00 	call	30404c0 <wait_sdcard_insert>
    
        // Mount SD-CARD
        hFat = Fat_Mount(FAT_SD_CARD, 0);
 30418c4:	0009883a 	mov	r4,zero
 30418c8:	000b883a 	mov	r5,zero
 30418cc:	3041bec0 	call	3041bec <Fat_Mount>
 30418d0:	d0a77815 	stw	r2,-25120(gp)
        if (!hFat){
 30418d4:	d0a77817 	ldw	r2,-25120(gp)
 30418d8:	1004c03a 	cmpne	r2,r2,zero
 30418dc:	1000081e 	bne	r2,zero,3041900 <main+0xec>
            DEMO_PRINTF("SD card mount fail.\n");
 30418e0:	0100c1b4 	movhi	r4,774
 30418e4:	21277c04 	addi	r4,r4,-25104
 30418e8:	304be480 	call	304be48 <puts>
            lcd_display(("SD card mount fail.\n\n"));
 30418ec:	0100c1b4 	movhi	r4,774
 30418f0:	21278104 	addi	r4,r4,-25084
 30418f4:	304042c0 	call	304042c <lcd_display>
            return 0;
 30418f8:	e03fff15 	stw	zero,-4(fp)
 30418fc:	0000b506 	br	3041bd4 <main+0x3c0>
        }  
        else{
           if (build_wave_play_list(hFat) == 0){
 3041900:	d1277817 	ldw	r4,-25120(gp)
 3041904:	30406080 	call	3040608 <build_wave_play_list>
 3041908:	1004c03a 	cmpne	r2,r2,zero
 304190c:	1000081e 	bne	r2,zero,3041930 <main+0x11c>
            DEMO_PRINTF("There is no wave file in the root directory of SD card.\n");
 3041910:	0100c1b4 	movhi	r4,774
 3041914:	21278704 	addi	r4,r4,-25060
 3041918:	304be480 	call	304be48 <puts>
            lcd_display(("No Wave Files.\n\n"));
 304191c:	0100c1b4 	movhi	r4,774
 3041920:	21279504 	addi	r4,r4,-25004
 3041924:	304042c0 	call	304042c <lcd_display>
            return 0;
 3041928:	e03fff15 	stw	zero,-4(fp)
 304192c:	0000a906 	br	3041bd4 <main+0x3c0>
            }
        }
        
   
        bool bSdacrdReady = TRUE;
 3041930:	00800044 	movi	r2,1
 3041934:	e0bfef15 	stw	r2,-68(fp)
        nPlayIndex = 0;
 3041938:	e03ff415 	stw	zero,-48(fp)
        while(bSdacrdReady){
 304193c:	0000a106 	br	3041bc4 <main+0x3b0>
            // find a wave file
            bool bPlayDone = FALSE;
 3041940:	e03fee15 	stw	zero,-72(fp)
            strcpy(szWaveFile, gWavePlayList.szFilename[nPlayIndex]);
 3041944:	e13ff504 	addi	r4,fp,-44
 3041948:	e0bff417 	ldw	r2,-48(fp)
 304194c:	1004917a 	slli	r2,r2,5
 3041950:	1007883a 	mov	r3,r2
 3041954:	0080c1b4 	movhi	r2,774
 3041958:	10ba0704 	addi	r2,r2,-6116
 304195c:	1885883a 	add	r2,r3,r2
 3041960:	100b883a 	mov	r5,r2
 3041964:	304c4380 	call	304c438 <strcpy>
            DEMO_PRINTF("Play Song:%s\r\n", szWaveFile);
 3041968:	e17ff504 	addi	r5,fp,-44
 304196c:	0100c1b4 	movhi	r4,774
 3041970:	21279a04 	addi	r4,r4,-24984
 3041974:	304bd0c0 	call	304bd0c <printf>
            if (!waveplay_start(szWaveFile)){
 3041978:	e13ff504 	addi	r4,fp,-44
 304197c:	3040a180 	call	3040a18 <waveplay_start>
 3041980:	1004c03a 	cmpne	r2,r2,zero
 3041984:	1000071e 	bne	r2,zero,30419a4 <main+0x190>
                DEMO_PRINTF("waveplay_start error\r\n");
 3041988:	0100c1b4 	movhi	r4,774
 304198c:	21279e04 	addi	r4,r4,-24968
 3041990:	304be480 	call	304be48 <puts>
                lcd_display("Play Error.\n\n");
 3041994:	0100c1b4 	movhi	r4,774
 3041998:	2127a404 	addi	r4,r4,-24944
 304199c:	304042c0 	call	304042c <lcd_display>
                bSdacrdReady = FALSE;
 30419a0:	e03fef15 	stw	zero,-68(fp)
            }                
            update_status();
 30419a4:	30403140 	call	3040314 <update_status>
            cnt = 0;
 30419a8:	e03ff315 	stw	zero,-52(fp)
 */

static ALT_INLINE alt_u32 ALT_ALWAYS_INLINE alt_nticks (void)
{
  return _alt_nticks;
 30419ac:	0080c1b4 	movhi	r2,774
 30419b0:	10b29c04 	addi	r2,r2,-13712
 30419b4:	10800017 	ldw	r2,0(r2)
            uSongStartTime = alt_nticks();
 30419b8:	e0bff215 	stw	r2,-56(fp)
            while(!bPlayDone && bSdacrdReady){
 30419bc:	00007a06 	br	3041ba8 <main+0x394>
                bool bLastSongPressed  = FALSE;
 30419c0:	e03fed15 	stw	zero,-76(fp)
                bool bNextSongPressed  = FALSE;
 30419c4:	e03ffd15 	stw	zero,-12(fp)
                bool bEndOfFile = FALSE;
 30419c8:	e03ffe15 	stw	zero,-8(fp)
                if ((cnt++ & 0x1F) == 0){
 30419cc:	e0bff317 	ldw	r2,-52(fp)
 30419d0:	108007cc 	andi	r2,r2,31
 30419d4:	1005003a 	cmpeq	r2,r2,zero
 30419d8:	1007883a 	mov	r3,r2
 30419dc:	e0bff317 	ldw	r2,-52(fp)
 30419e0:	10800044 	addi	r2,r2,1
 30419e4:	e0bff315 	stw	r2,-52(fp)
 30419e8:	18803fcc 	andi	r2,r3,255
 30419ec:	1005003a 	cmpeq	r2,r2,zero
 30419f0:	1000051e 	bne	r2,zero,3041a08 <main+0x1f4>
                    led_display(led_mask);
 30419f4:	e13ff007 	ldb	r4,-64(fp)
 30419f8:	30404600 	call	3040460 <led_display>
                    led_mask ^= 0x01;
 30419fc:	e0bff003 	ldbu	r2,-64(fp)
 3041a00:	1080005c 	xori	r2,r2,1
 3041a04:	e0bff005 	stb	r2,-64(fp)
                }                    
                // play wave file
                if (!waveplay_execute(&bEndOfFile)){
 3041a08:	e13ffe04 	addi	r4,fp,-8
 3041a0c:	3040c940 	call	3040c94 <waveplay_execute>
 3041a10:	1004c03a 	cmpne	r2,r2,zero
 3041a14:	1000071e 	bne	r2,zero,3041a34 <main+0x220>
                    DEMO_PRINTF("waveplay_execute error\r\n");
 3041a18:	0100c1b4 	movhi	r4,774
 3041a1c:	2127a804 	addi	r4,r4,-24928
 3041a20:	304be480 	call	304be48 <puts>
                    lcd_display("Play Error.\n\n");
 3041a24:	0100c1b4 	movhi	r4,774
 3041a28:	2127a404 	addi	r4,r4,-24944
 3041a2c:	304042c0 	call	304042c <lcd_display>
                    bSdacrdReady = FALSE;
 3041a30:	e03fef15 	stw	zero,-68(fp)
                }    
                
                // handle key event   
                handle_key(&bNextSongPressed);
 3041a34:	e13ffd04 	addi	r4,fp,-12
 3041a38:	3040fe80 	call	3040fe8 <handle_key>
                if(bLastSwitch){
 3041a3c:	d0a77517 	ldw	r2,-25132(gp)
 3041a40:	1005003a 	cmpeq	r2,r2,zero
 3041a44:	1000031e 	bne	r2,zero,3041a54 <main+0x240>
                    bLastSongPressed = TRUE;
 3041a48:	00800044 	movi	r2,1
 3041a4c:	e0bfed15 	stw	r2,-76(fp)
                    bNextSongPressed = FALSE;
 3041a50:	e03ffd15 	stw	zero,-12(fp)
                }
                 if(bNextSwitch){
 3041a54:	d0a77617 	ldw	r2,-25128(gp)
 3041a58:	1005003a 	cmpeq	r2,r2,zero
 3041a5c:	1000031e 	bne	r2,zero,3041a6c <main+0x258>
                    bLastSongPressed = FALSE;
 3041a60:	e03fed15 	stw	zero,-76(fp)
                    bNextSongPressed = TRUE;
 3041a64:	00800044 	movi	r2,1
 3041a68:	e0bffd15 	stw	r2,-12(fp)
                }
                if (bSdacrdReady && (bEndOfFile || bLastSongPressed || bNextSongPressed)){
 3041a6c:	e0bfef17 	ldw	r2,-68(fp)
 3041a70:	1005003a 	cmpeq	r2,r2,zero
 3041a74:	1000411e 	bne	r2,zero,3041b7c <main+0x368>
 3041a78:	e0bffe17 	ldw	r2,-8(fp)
 3041a7c:	1004c03a 	cmpne	r2,r2,zero
 3041a80:	1000061e 	bne	r2,zero,3041a9c <main+0x288>
 3041a84:	e0bfed17 	ldw	r2,-76(fp)
 3041a88:	1004c03a 	cmpne	r2,r2,zero
 3041a8c:	1000031e 	bne	r2,zero,3041a9c <main+0x288>
 3041a90:	e0bffd17 	ldw	r2,-12(fp)
 3041a94:	1005003a 	cmpeq	r2,r2,zero
 3041a98:	1000381e 	bne	r2,zero,3041b7c <main+0x368>
                    bool bNextSong = FALSE;
 3041a9c:	e03fec15 	stw	zero,-80(fp)
                    bool bLastSong = FALSE;
 3041aa0:	e03feb15 	stw	zero,-84(fp)
                    
                    if(bLastSongPressed) bLastSong = TRUE;
 3041aa4:	e0bfed17 	ldw	r2,-76(fp)
 3041aa8:	1005003a 	cmpeq	r2,r2,zero
 3041aac:	1000021e 	bne	r2,zero,3041ab8 <main+0x2a4>
 3041ab0:	00800044 	movi	r2,1
 3041ab4:	e0bfeb15 	stw	r2,-84(fp)
                    if(bNextSongPressed || bEndOfFile) bNextSong = TRUE;
 3041ab8:	e0bffd17 	ldw	r2,-12(fp)
 3041abc:	1004c03a 	cmpne	r2,r2,zero
 3041ac0:	1000031e 	bne	r2,zero,3041ad0 <main+0x2bc>
 3041ac4:	e0bffe17 	ldw	r2,-8(fp)
 3041ac8:	1005003a 	cmpeq	r2,r2,zero
 3041acc:	1000021e 	bne	r2,zero,3041ad8 <main+0x2c4>
 3041ad0:	00800044 	movi	r2,1
 3041ad4:	e0bfec15 	stw	r2,-80(fp)
                    // check whether in REPEAT mode
                    if (!bLastSongPressed && !bNextSongPressed && gWavePlay.bRepeatMode){
 3041ad8:	e0bfed17 	ldw	r2,-76(fp)
 3041adc:	1004c03a 	cmpne	r2,r2,zero
 3041ae0:	10000a1e 	bne	r2,zero,3041b0c <main+0x2f8>
 3041ae4:	e0bffd17 	ldw	r2,-12(fp)
 3041ae8:	1004c03a 	cmpne	r2,r2,zero
 3041aec:	1000071e 	bne	r2,zero,3041b0c <main+0x2f8>
 3041af0:	0080c1b4 	movhi	r2,774
 3041af4:	10be0704 	addi	r2,r2,-2020
 3041af8:	10808e17 	ldw	r2,568(r2)
 3041afc:	1005003a 	cmpeq	r2,r2,zero
 3041b00:	1000021e 	bne	r2,zero,3041b0c <main+0x2f8>
                        bNextSong = FALSE;  // in repeat mode
 3041b04:	e03fec15 	stw	zero,-80(fp)
                        bLastSong = FALSE;
 3041b08:	e03feb15 	stw	zero,-84(fp)
                    }
                    if (bNextSong){  // index update for next song
 3041b0c:	e0bfec17 	ldw	r2,-80(fp)
 3041b10:	1005003a 	cmpeq	r2,r2,zero
 3041b14:	1000091e 	bne	r2,zero,3041b3c <main+0x328>
                        nPlayIndex++;
 3041b18:	e0bff417 	ldw	r2,-48(fp)
 3041b1c:	10800044 	addi	r2,r2,1
 3041b20:	e0bff415 	stw	r2,-48(fp)
                        if (nPlayIndex >= gWavePlayList.nFileNum)
 3041b24:	0080c1b4 	movhi	r2,774
 3041b28:	10ba0604 	addi	r2,r2,-6120
 3041b2c:	10c00017 	ldw	r3,0(r2)
 3041b30:	e0bff417 	ldw	r2,-48(fp)
 3041b34:	10c00116 	blt	r2,r3,3041b3c <main+0x328>
                            nPlayIndex = 0;
 3041b38:	e03ff415 	stw	zero,-48(fp)
                    }   
                    if (bLastSong){  // index update for last song
 3041b3c:	e0bfeb17 	ldw	r2,-84(fp)
 3041b40:	1005003a 	cmpeq	r2,r2,zero
 3041b44:	10000b1e 	bne	r2,zero,3041b74 <main+0x360>
                        nPlayIndex--;
 3041b48:	e0bff417 	ldw	r2,-48(fp)
 3041b4c:	10bfffc4 	addi	r2,r2,-1
 3041b50:	e0bff415 	stw	r2,-48(fp)
                        if (nPlayIndex < 0)
 3041b54:	e0bff417 	ldw	r2,-48(fp)
 3041b58:	1004403a 	cmpge	r2,r2,zero
 3041b5c:	1000051e 	bne	r2,zero,3041b74 <main+0x360>
                            nPlayIndex = gWavePlayList.nFileNum-1;
 3041b60:	0080c1b4 	movhi	r2,774
 3041b64:	10ba0604 	addi	r2,r2,-6120
 3041b68:	10800017 	ldw	r2,0(r2)
 3041b6c:	10bfffc4 	addi	r2,r2,-1
 3041b70:	e0bff415 	stw	r2,-48(fp)
                    }                           
                    bPlayDone = TRUE;                        
 3041b74:	00800044 	movi	r2,1
 3041b78:	e0bfee15 	stw	r2,-72(fp)
                } 
                bLastSwitch = FALSE;
 3041b7c:	d0277515 	stw	zero,-25132(gp)
                bNextSwitch = FALSE;
 3041b80:	d0277615 	stw	zero,-25128(gp)
 */

static ALT_INLINE alt_u32 ALT_ALWAYS_INLINE alt_nticks (void)
{
  return _alt_nticks;
 3041b84:	0080c1b4 	movhi	r2,774
 3041b88:	10b29c04 	addi	r2,r2,-13712
 3041b8c:	10800017 	ldw	r2,0(r2)
 3041b90:	1007883a 	mov	r3,r2
                
                uTimeElapsed = alt_nticks() - uSongStartTime;    
 3041b94:	e0bff217 	ldw	r2,-56(fp)
 3041b98:	1885c83a 	sub	r2,r3,r2
 3041b9c:	e0bff115 	stw	r2,-60(fp)
                DisplayTime(uTimeElapsed);    
 3041ba0:	e13ff117 	ldw	r4,-60(fp)
 3041ba4:	30403b00 	call	30403b0 <DisplayTime>
 3041ba8:	e0bfee17 	ldw	r2,-72(fp)
 3041bac:	1004c03a 	cmpne	r2,r2,zero
 3041bb0:	1000031e 	bne	r2,zero,3041bc0 <main+0x3ac>
 3041bb4:	e0bfef17 	ldw	r2,-68(fp)
 3041bb8:	1004c03a 	cmpne	r2,r2,zero
 3041bbc:	103f801e 	bne	r2,zero,30419c0 <main+0x1ac>
            }  // while(!bPlayNextSong && bSdacrdReady)
            waveplay_stop();    
 3041bc0:	3040fcc0 	call	3040fcc <waveplay_stop>
 3041bc4:	e0bfef17 	ldw	r2,-68(fp)
 3041bc8:	1004c03a 	cmpne	r2,r2,zero
 3041bcc:	103f5c1e 	bne	r2,zero,3041940 <main+0x12c>
        }  // while(bSdacrdReady)
  } // while (1)
 3041bd0:	003f3b06 	br	30418c0 <main+0xac>
 3041bd4:	e0bfff17 	ldw	r2,-4(fp)

  return 0;
}
 3041bd8:	e037883a 	mov	sp,fp
 3041bdc:	dfc00117 	ldw	ra,4(sp)
 3041be0:	df000017 	ldw	fp,0(sp)
 3041be4:	dec00204 	addi	sp,sp,8
 3041be8:	f800283a 	ret

03041bec <Fat_Mount>:




FAT_HANDLE Fat_Mount(FAT_DEVICE FatDevice, DEVICE_HANDLE hUsbDisk){
 3041bec:	defffb04 	addi	sp,sp,-20
 3041bf0:	dfc00415 	stw	ra,16(sp)
 3041bf4:	df000315 	stw	fp,12(sp)
 3041bf8:	df000304 	addi	fp,sp,12
 3041bfc:	e13ffe15 	stw	r4,-8(fp)
 3041c00:	e17fff15 	stw	r5,-4(fp)
    
    //Fat_Unmount();
    FAT_HANDLE hFat = 0;
 3041c04:	e03ffd15 	stw	zero,-12(fp)
    
    if (FatDevice == FAT_SD_CARD){
 3041c08:	e0bffe17 	ldw	r2,-8(fp)
 3041c0c:	1004c03a 	cmpne	r2,r2,zero
 3041c10:	1000021e 	bne	r2,zero,3041c1c <Fat_Mount+0x30>
        #ifdef SUPPORT_SD_CARD
        hFat = fatMountSdcard();
 3041c14:	30447ac0 	call	30447ac <fatMountSdcard>
 3041c18:	e0bffd15 	stw	r2,-12(fp)
        #endif //SUPPORT_SD_CARD
    }else if (FatDevice == FAT_USB_DISK){
        #ifdef SUPPORT_USB_DISK
        hFat = fatMountUsbDisk(hUsbDisk);
        #endif
    }  
    return hFat;      
 3041c1c:	e0bffd17 	ldw	r2,-12(fp)
        
}
 3041c20:	e037883a 	mov	sp,fp
 3041c24:	dfc00117 	ldw	ra,4(sp)
 3041c28:	df000017 	ldw	fp,0(sp)
 3041c2c:	dec00204 	addi	sp,sp,8
 3041c30:	f800283a 	ret

03041c34 <Fat_Unmount>:

void Fat_Unmount(FAT_HANDLE Fat){
 3041c34:	defffc04 	addi	sp,sp,-16
 3041c38:	dfc00315 	stw	ra,12(sp)
 3041c3c:	df000215 	stw	fp,8(sp)
 3041c40:	df000204 	addi	fp,sp,8
 3041c44:	e13fff15 	stw	r4,-4(fp)
    VOLUME_INFO *pVol = (VOLUME_INFO *)Fat;
 3041c48:	e0bfff17 	ldw	r2,-4(fp)
 3041c4c:	e0bffe15 	stw	r2,-8(fp)
    if (!pVol)
 3041c50:	e0bffe17 	ldw	r2,-8(fp)
 3041c54:	1005003a 	cmpeq	r2,r2,zero
 3041c58:	1000041e 	bne	r2,zero,3041c6c <Fat_Unmount+0x38>
        return;
#ifdef FAT_READONLY      
    if (pVol->szFatTable){
        free(pVol->szFatTable);
        pVol->szFatTable = 0;
    }        
#endif //#ifdef FAT_READONLY
    pVol->bMount = FALSE;
 3041c5c:	e0bffe17 	ldw	r2,-8(fp)
 3041c60:	10000415 	stw	zero,16(r2)
    
    free(pVol);  
 3041c64:	e13ffe17 	ldw	r4,-8(fp)
 3041c68:	304b3f40 	call	304b3f4 <free>
}   
 3041c6c:	e037883a 	mov	sp,fp
 3041c70:	dfc00117 	ldw	ra,4(sp)
 3041c74:	df000017 	ldw	fp,0(sp)
 3041c78:	dec00204 	addi	sp,sp,8
 3041c7c:	f800283a 	ret

03041c80 <Fat_Type>:

FAT_TYPE Fat_Type(FAT_HANDLE Fat){
 3041c80:	defffb04 	addi	sp,sp,-20
 3041c84:	dfc00415 	stw	ra,16(sp)
 3041c88:	df000315 	stw	fp,12(sp)
 3041c8c:	df000304 	addi	fp,sp,12
 3041c90:	e13fff15 	stw	r4,-4(fp)
    VOLUME_INFO *pVol = (VOLUME_INFO *)Fat;
 3041c94:	e0bfff17 	ldw	r2,-4(fp)
 3041c98:	e0bffe15 	stw	r2,-8(fp)
    FAT_TYPE Type = FAT_UNKNOWN;
 3041c9c:	e03ffd15 	stw	zero,-12(fp)
    if (pVol){
 3041ca0:	e0bffe17 	ldw	r2,-8(fp)
 3041ca4:	1005003a 	cmpeq	r2,r2,zero
 3041ca8:	1000131e 	bne	r2,zero,3041cf8 <Fat_Type+0x78>
        if (pVol->Partition_Type == PARTITION_FAT16) {
 3041cac:	e0bffe17 	ldw	r2,-8(fp)
 3041cb0:	10800317 	ldw	r2,12(r2)
 3041cb4:	10800198 	cmpnei	r2,r2,6
 3041cb8:	1000061e 	bne	r2,zero,3041cd4 <Fat_Type+0x54>
            Type = FAT_FAT16;
 3041cbc:	00800044 	movi	r2,1
 3041cc0:	e0bffd15 	stw	r2,-12(fp)
            FAT_DEBUG(("[FAT 16] \r\n"));
 3041cc4:	0100c1b4 	movhi	r4,774
 3041cc8:	2127ae04 	addi	r4,r4,-24904
 3041ccc:	30469080 	call	3046908 <myprintf>
 3041cd0:	00000906 	br	3041cf8 <Fat_Type+0x78>
        }
        else if (pVol->Partition_Type == PARTITION_FAT32) {
 3041cd4:	e0bffe17 	ldw	r2,-8(fp)
 3041cd8:	10800317 	ldw	r2,12(r2)
 3041cdc:	108002d8 	cmpnei	r2,r2,11
 3041ce0:	1000051e 	bne	r2,zero,3041cf8 <Fat_Type+0x78>
            Type = FAT_FAT32;
 3041ce4:	00800084 	movi	r2,2
 3041ce8:	e0bffd15 	stw	r2,-12(fp)
            FAT_DEBUG(("[FAT 32] \r\n"));
 3041cec:	0100c1b4 	movhi	r4,774
 3041cf0:	2127b104 	addi	r4,r4,-24892
 3041cf4:	30469080 	call	3046908 <myprintf>
        }
    }
    return Type;        
 3041cf8:	e0bffd17 	ldw	r2,-12(fp)
}
 3041cfc:	e037883a 	mov	sp,fp
 3041d00:	dfc00117 	ldw	ra,4(sp)
 3041d04:	df000017 	ldw	fp,0(sp)
 3041d08:	dec00204 	addi	sp,sp,8
 3041d0c:	f800283a 	ret

03041d10 <Fat_FileBrowseBegin>:

bool Fat_FileBrowseBegin(FAT_HANDLE hFat, FAT_BROWSE_HANDLE *pFatBrowseHandle){
 3041d10:	defffb04 	addi	sp,sp,-20
 3041d14:	df000415 	stw	fp,16(sp)
 3041d18:	df000404 	addi	fp,sp,16
 3041d1c:	e13ffd15 	stw	r4,-12(fp)
 3041d20:	e17ffe15 	stw	r5,-8(fp)
    VOLUME_INFO *pVol = (VOLUME_INFO *)hFat;
 3041d24:	e0bffd17 	ldw	r2,-12(fp)
 3041d28:	e0bffc15 	stw	r2,-16(fp)
    if (!pVol)
 3041d2c:	e0bffc17 	ldw	r2,-16(fp)
 3041d30:	1004c03a 	cmpne	r2,r2,zero
 3041d34:	1000021e 	bne	r2,zero,3041d40 <Fat_FileBrowseBegin+0x30>
        return FALSE;
 3041d38:	e03fff15 	stw	zero,-4(fp)
 3041d3c:	00000e06 	br	3041d78 <Fat_FileBrowseBegin+0x68>
    if (!pVol->bMount)
 3041d40:	e0bffc17 	ldw	r2,-16(fp)
 3041d44:	10800417 	ldw	r2,16(r2)
 3041d48:	1004c03a 	cmpne	r2,r2,zero
 3041d4c:	1000021e 	bne	r2,zero,3041d58 <Fat_FileBrowseBegin+0x48>
        return FALSE;
 3041d50:	e03fff15 	stw	zero,-4(fp)
 3041d54:	00000806 	br	3041d78 <Fat_FileBrowseBegin+0x68>
    pFatBrowseHandle->DirectoryIndex = -1;
 3041d58:	e0fffe17 	ldw	r3,-8(fp)
 3041d5c:	00bfffc4 	movi	r2,-1
 3041d60:	18800015 	stw	r2,0(r3)
    pFatBrowseHandle->hFat = hFat;
 3041d64:	e0fffe17 	ldw	r3,-8(fp)
 3041d68:	e0bffd17 	ldw	r2,-12(fp)
 3041d6c:	18800115 	stw	r2,4(r3)
    return TRUE;
 3041d70:	00800044 	movi	r2,1
 3041d74:	e0bfff15 	stw	r2,-4(fp)
 3041d78:	e0bfff17 	ldw	r2,-4(fp)
}
 3041d7c:	e037883a 	mov	sp,fp
 3041d80:	df000017 	ldw	fp,0(sp)
 3041d84:	dec00104 	addi	sp,sp,4
 3041d88:	f800283a 	ret

03041d8c <Fat_FileBrowseNext>:

bool Fat_FileBrowseNext(FAT_BROWSE_HANDLE *pFatBrowseHandle, FILE_CONTEXT *pFileContext){
 3041d8c:	defff304 	addi	sp,sp,-52
 3041d90:	dfc00c15 	stw	ra,48(sp)
 3041d94:	df000b15 	stw	fp,44(sp)
 3041d98:	df000b04 	addi	fp,sp,44
 3041d9c:	e13ffd15 	stw	r4,-12(fp)
 3041da0:	e17ffe15 	stw	r5,-8(fp)
    bool bFind = FALSE, bError=FALSE, bLongFilename = FALSE;
 3041da4:	e03ffc15 	stw	zero,-16(fp)
 3041da8:	e03ffb15 	stw	zero,-20(fp)
 3041dac:	e03ffa15 	stw	zero,-24(fp)
    int OrderValue = 0;
 3041db0:	e03ff915 	stw	zero,-28(fp)
    FAT_DIRECTORY *pDir;
    //unsigned int nSecter, nSecterOffset,nByteOffset;
    VOLUME_INFO *pVol = (VOLUME_INFO *)pFatBrowseHandle->hFat;
 3041db4:	e0bffd17 	ldw	r2,-12(fp)
 3041db8:	10800117 	ldw	r2,4(r2)
 3041dbc:	e0bff715 	stw	r2,-36(fp)
    
    if (!pVol)
 3041dc0:	e0bff717 	ldw	r2,-36(fp)
 3041dc4:	1004c03a 	cmpne	r2,r2,zero
 3041dc8:	1000021e 	bne	r2,zero,3041dd4 <Fat_FileBrowseNext+0x48>
        return FALSE;    
 3041dcc:	e03fff15 	stw	zero,-4(fp)
 3041dd0:	00012606 	br	304226c <Fat_FileBrowseNext+0x4e0>
    
    if (!pVol->bMount)
 3041dd4:	e0bff717 	ldw	r2,-36(fp)
 3041dd8:	10800417 	ldw	r2,16(r2)
 3041ddc:	1004c03a 	cmpne	r2,r2,zero
 3041de0:	1000021e 	bne	r2,zero,3041dec <Fat_FileBrowseNext+0x60>
        return FALSE;
 3041de4:	e03fff15 	stw	zero,-4(fp)
 3041de8:	00012006 	br	304226c <Fat_FileBrowseNext+0x4e0>
    
    
    do{  // search Directory Table
        pFatBrowseHandle->DirectoryIndex++;        
 3041dec:	e0bffd17 	ldw	r2,-12(fp)
 3041df0:	10800017 	ldw	r2,0(r2)
 3041df4:	10c00044 	addi	r3,r2,1
 3041df8:	e0bffd17 	ldw	r2,-12(fp)
 3041dfc:	10c00015 	stw	r3,0(r2)
        pDir = fatFindDirectory(pVol,pFatBrowseHandle->DirectoryIndex);
 3041e00:	e0bffd17 	ldw	r2,-12(fp)
 3041e04:	11400017 	ldw	r5,0(r2)
 3041e08:	e13ff717 	ldw	r4,-36(fp)
 3041e0c:	30441b40 	call	30441b4 <fatFindDirectory>
 3041e10:	e0bff815 	stw	r2,-32(fp)
        if (!pDir)
 3041e14:	e0bff817 	ldw	r2,-32(fp)
 3041e18:	1004c03a 	cmpne	r2,r2,zero
 3041e1c:	1000021e 	bne	r2,zero,3041e28 <Fat_FileBrowseNext+0x9c>
            bError = TRUE;
 3041e20:	00800044 	movi	r2,1
 3041e24:	e0bffb15 	stw	r2,-20(fp)
            
        if (!bError){                        
 3041e28:	e0bffb17 	ldw	r2,-20(fp)
 3041e2c:	1004c03a 	cmpne	r2,r2,zero
 3041e30:	1001021e 	bne	r2,zero,304223c <Fat_FileBrowseNext+0x4b0>
            if (fatIsValidDir(pDir) && !fatIsUnusedDir(pDir)){
 3041e34:	e13ff817 	ldw	r4,-32(fp)
 3041e38:	30438900 	call	3043890 <fatIsValidDir>
 3041e3c:	1005003a 	cmpeq	r2,r2,zero
 3041e40:	1000fe1e 	bne	r2,zero,304223c <Fat_FileBrowseNext+0x4b0>
 3041e44:	e13ff817 	ldw	r4,-32(fp)
 3041e48:	30439380 	call	3043938 <fatIsUnusedDir>
 3041e4c:	1004c03a 	cmpne	r2,r2,zero
 3041e50:	1000fa1e 	bne	r2,zero,304223c <Fat_FileBrowseNext+0x4b0>
                if ((pDir->Attribute & ATTR_LONG_NAME) == ATTR_LONG_NAME){
 3041e54:	e0bff817 	ldw	r2,-32(fp)
 3041e58:	108002c3 	ldbu	r2,11(r2)
 3041e5c:	10803fcc 	andi	r2,r2,255
 3041e60:	108003cc 	andi	r2,r2,15
 3041e64:	108003d8 	cmpnei	r2,r2,15
 3041e68:	10007c1e 	bne	r2,zero,304205c <Fat_FileBrowseNext+0x2d0>
                    FAT_LONG_DIRECTORY *pLDIR = (FAT_LONG_DIRECTORY *)pDir;
 3041e6c:	e0bff817 	ldw	r2,-32(fp)
 3041e70:	e0bff615 	stw	r2,-40(fp)
                    // check attribute
                    if ((pLDIR->LDIR_Attr & ATTR_LONG_NAME) != ATTR_LONG_NAME){
 3041e74:	e0bff617 	ldw	r2,-40(fp)
 3041e78:	108002c3 	ldbu	r2,11(r2)
 3041e7c:	10803fcc 	andi	r2,r2,255
 3041e80:	108003cc 	andi	r2,r2,15
 3041e84:	108003e0 	cmpeqi	r2,r2,15
 3041e88:	1000031e 	bne	r2,zero,3041e98 <Fat_FileBrowseNext+0x10c>
                        bError = TRUE;
 3041e8c:	00800044 	movi	r2,1
 3041e90:	e0bffb15 	stw	r2,-20(fp)
 3041e94:	00002006 	br	3041f18 <Fat_FileBrowseNext+0x18c>
                    }else{                        
                        // check order
                        if (OrderValue == 0){
 3041e98:	e0bff917 	ldw	r2,-28(fp)
 3041e9c:	1004c03a 	cmpne	r2,r2,zero
 3041ea0:	1000151e 	bne	r2,zero,3041ef8 <Fat_FileBrowseNext+0x16c>
                            // last entry
                            if (bLongFilename || ((OrderValue & LAST_LONG_ENTRY) != OrderValue))
 3041ea4:	e0bffa17 	ldw	r2,-24(fp)
 3041ea8:	1004c03a 	cmpne	r2,r2,zero
 3041eac:	1000041e 	bne	r2,zero,3041ec0 <Fat_FileBrowseNext+0x134>
 3041eb0:	e0bff917 	ldw	r2,-28(fp)
 3041eb4:	10c0100c 	andi	r3,r2,64
 3041eb8:	e0bff917 	ldw	r2,-28(fp)
 3041ebc:	18800326 	beq	r3,r2,3041ecc <Fat_FileBrowseNext+0x140>
                                bError = TRUE;
 3041ec0:	00800044 	movi	r2,1
 3041ec4:	e0bffb15 	stw	r2,-20(fp)
 3041ec8:	00000506 	br	3041ee0 <Fat_FileBrowseNext+0x154>
                            else
                                OrderValue = pLDIR->LDIR_Ord & 0x3F;
 3041ecc:	e0bff617 	ldw	r2,-40(fp)
 3041ed0:	10800003 	ldbu	r2,0(r2)
 3041ed4:	10803fcc 	andi	r2,r2,255
 3041ed8:	10800fcc 	andi	r2,r2,63
 3041edc:	e0bff915 	stw	r2,-28(fp)
                            memset(pFileContext->szName, 0, sizeof(pFileContext->szName));        
 3041ee0:	e0bffe17 	ldw	r2,-8(fp)
 3041ee4:	1009883a 	mov	r4,r2
 3041ee8:	01804004 	movi	r6,256
 3041eec:	000b883a 	mov	r5,zero
 3041ef0:	304bbfc0 	call	304bbfc <memset>
 3041ef4:	00000806 	br	3041f18 <Fat_FileBrowseNext+0x18c>
                        }else{
                            if ((pLDIR->LDIR_Ord & 0x3F) != OrderValue)
 3041ef8:	e0bff617 	ldw	r2,-40(fp)
 3041efc:	10800003 	ldbu	r2,0(r2)
 3041f00:	10803fcc 	andi	r2,r2,255
 3041f04:	10c00fcc 	andi	r3,r2,63
 3041f08:	e0bff917 	ldw	r2,-28(fp)
 3041f0c:	18800226 	beq	r3,r2,3041f18 <Fat_FileBrowseNext+0x18c>
                                bError = TRUE;
 3041f10:	00800044 	movi	r2,1
 3041f14:	e0bffb15 	stw	r2,-20(fp)
                        }
                    }
                    
                    //                        
                    if (!bError){
 3041f18:	e0bffb17 	ldw	r2,-20(fp)
 3041f1c:	1004c03a 	cmpne	r2,r2,zero
 3041f20:	1000c61e 	bne	r2,zero,304223c <Fat_FileBrowseNext+0x4b0>
                        int BaseOffset;
                        bLongFilename = TRUE;
 3041f24:	00800044 	movi	r2,1
 3041f28:	e0bffa15 	stw	r2,-24(fp)
                        OrderValue--;
 3041f2c:	e0bff917 	ldw	r2,-28(fp)
 3041f30:	10bfffc4 	addi	r2,r2,-1
 3041f34:	e0bff915 	stw	r2,-28(fp)
                        BaseOffset = OrderValue * 26;
 3041f38:	e0bff917 	ldw	r2,-28(fp)
 3041f3c:	108006a4 	muli	r2,r2,26
 3041f40:	e0bff515 	stw	r2,-44(fp)
                        // cast filename
                        memcpy(pFileContext->szName+BaseOffset, pLDIR->LDIR_Name1, 10);
 3041f44:	e0fffe17 	ldw	r3,-8(fp)
 3041f48:	e0bff517 	ldw	r2,-44(fp)
 3041f4c:	1889883a 	add	r4,r3,r2
 3041f50:	e0bff617 	ldw	r2,-40(fp)
 3041f54:	10c00044 	addi	r3,r2,1
 3041f58:	18800003 	ldbu	r2,0(r3)
 3041f5c:	20800005 	stb	r2,0(r4)
 3041f60:	18800043 	ldbu	r2,1(r3)
 3041f64:	20800045 	stb	r2,1(r4)
 3041f68:	18800083 	ldbu	r2,2(r3)
 3041f6c:	20800085 	stb	r2,2(r4)
 3041f70:	188000c3 	ldbu	r2,3(r3)
 3041f74:	208000c5 	stb	r2,3(r4)
 3041f78:	18800103 	ldbu	r2,4(r3)
 3041f7c:	20800105 	stb	r2,4(r4)
 3041f80:	18800143 	ldbu	r2,5(r3)
 3041f84:	20800145 	stb	r2,5(r4)
 3041f88:	18800183 	ldbu	r2,6(r3)
 3041f8c:	20800185 	stb	r2,6(r4)
 3041f90:	188001c3 	ldbu	r2,7(r3)
 3041f94:	208001c5 	stb	r2,7(r4)
 3041f98:	18800203 	ldbu	r2,8(r3)
 3041f9c:	20800205 	stb	r2,8(r4)
 3041fa0:	18800243 	ldbu	r2,9(r3)
 3041fa4:	20800245 	stb	r2,9(r4)
                        memcpy(pFileContext->szName+BaseOffset+10, pLDIR->LDIR_Name2, 12);
 3041fa8:	e0fffe17 	ldw	r3,-8(fp)
 3041fac:	e0bff517 	ldw	r2,-44(fp)
 3041fb0:	1885883a 	add	r2,r3,r2
 3041fb4:	11000284 	addi	r4,r2,10
 3041fb8:	e0bff617 	ldw	r2,-40(fp)
 3041fbc:	10c00384 	addi	r3,r2,14
 3041fc0:	18800003 	ldbu	r2,0(r3)
 3041fc4:	20800005 	stb	r2,0(r4)
 3041fc8:	18800043 	ldbu	r2,1(r3)
 3041fcc:	20800045 	stb	r2,1(r4)
 3041fd0:	18800083 	ldbu	r2,2(r3)
 3041fd4:	20800085 	stb	r2,2(r4)
 3041fd8:	188000c3 	ldbu	r2,3(r3)
 3041fdc:	208000c5 	stb	r2,3(r4)
 3041fe0:	18800103 	ldbu	r2,4(r3)
 3041fe4:	20800105 	stb	r2,4(r4)
 3041fe8:	18800143 	ldbu	r2,5(r3)
 3041fec:	20800145 	stb	r2,5(r4)
 3041ff0:	18800183 	ldbu	r2,6(r3)
 3041ff4:	20800185 	stb	r2,6(r4)
 3041ff8:	188001c3 	ldbu	r2,7(r3)
 3041ffc:	208001c5 	stb	r2,7(r4)
 3042000:	18800203 	ldbu	r2,8(r3)
 3042004:	20800205 	stb	r2,8(r4)
 3042008:	18800243 	ldbu	r2,9(r3)
 304200c:	20800245 	stb	r2,9(r4)
 3042010:	18800283 	ldbu	r2,10(r3)
 3042014:	20800285 	stb	r2,10(r4)
 3042018:	188002c3 	ldbu	r2,11(r3)
 304201c:	208002c5 	stb	r2,11(r4)
                        memcpy(pFileContext->szName+BaseOffset+22, pLDIR->LDIR_Name3, 4);
 3042020:	e0fffe17 	ldw	r3,-8(fp)
 3042024:	e0bff517 	ldw	r2,-44(fp)
 3042028:	1885883a 	add	r2,r3,r2
 304202c:	11000584 	addi	r4,r2,22
 3042030:	e0bff617 	ldw	r2,-40(fp)
 3042034:	10c00704 	addi	r3,r2,28
 3042038:	18800003 	ldbu	r2,0(r3)
 304203c:	20800005 	stb	r2,0(r4)
 3042040:	18800043 	ldbu	r2,1(r3)
 3042044:	20800045 	stb	r2,1(r4)
 3042048:	18800083 	ldbu	r2,2(r3)
 304204c:	20800085 	stb	r2,2(r4)
 3042050:	188000c3 	ldbu	r2,3(r3)
 3042054:	208000c5 	stb	r2,3(r4)
 3042058:	00007806 	br	304223c <Fat_FileBrowseNext+0x4b0>
                    }                        
                }else{
                    if (bLongFilename){
 304205c:	e0bffa17 	ldw	r2,-24(fp)
 3042060:	1005003a 	cmpeq	r2,r2,zero
 3042064:	10000f1e 	bne	r2,zero,30420a4 <Fat_FileBrowseNext+0x318>
                        pFileContext->Attribute = ATTR_LONG_NAME;
 3042068:	e0fffe17 	ldw	r3,-8(fp)
 304206c:	008003c4 	movi	r2,15
 3042070:	18804505 	stb	r2,276(r3)
                        if ((pDir->Attribute & (ATTR_ARCHIVE | ATTR_DIRECTORY)) == 0)
 3042074:	e0bff817 	ldw	r2,-32(fp)
 3042078:	108002c3 	ldbu	r2,11(r2)
 304207c:	10803fcc 	andi	r2,r2,255
 3042080:	10800c0c 	andi	r2,r2,48
 3042084:	1004c03a 	cmpne	r2,r2,zero
 3042088:	1000031e 	bne	r2,zero,3042098 <Fat_FileBrowseNext+0x30c>
                            bError = TRUE;
 304208c:	00800044 	movi	r2,1
 3042090:	e0bffb15 	stw	r2,-20(fp)
 3042094:	00000806 	br	30420b8 <Fat_FileBrowseNext+0x32c>
                        else    
                            bFind = TRUE;
 3042098:	00800044 	movi	r2,1
 304209c:	e0bffc15 	stw	r2,-16(fp)
 30420a0:	00000506 	br	30420b8 <Fat_FileBrowseNext+0x32c>
                    }else{
                        fatComposeShortFilename(pDir, pFileContext->szName);
 30420a4:	e17ffe17 	ldw	r5,-8(fp)
 30420a8:	e13ff817 	ldw	r4,-32(fp)
 30420ac:	304238c0 	call	304238c <fatComposeShortFilename>
                        bFind = TRUE;
 30420b0:	00800044 	movi	r2,1
 30420b4:	e0bffc15 	stw	r2,-16(fp)
                    }
                    
                    if (bFind){
 30420b8:	e0bffc17 	ldw	r2,-16(fp)
 30420bc:	1005003a 	cmpeq	r2,r2,zero
 30420c0:	10005e1e 	bne	r2,zero,304223c <Fat_FileBrowseNext+0x4b0>
                        // my ext
                        pFileContext->bLongFilename = bLongFilename;
 30420c4:	e0fffe17 	ldw	r3,-8(fp)
 30420c8:	e0bffa17 	ldw	r2,-24(fp)
 30420cc:	18804015 	stw	r2,256(r3)
                        pFileContext->bFile = (pDir->Attribute & ATTR_ARCHIVE)?TRUE:FALSE;
 30420d0:	e0bff817 	ldw	r2,-32(fp)
 30420d4:	108002c3 	ldbu	r2,11(r2)
 30420d8:	10803fcc 	andi	r2,r2,255
 30420dc:	1080080c 	andi	r2,r2,32
 30420e0:	1006c03a 	cmpne	r3,r2,zero
 30420e4:	e0bffe17 	ldw	r2,-8(fp)
 30420e8:	10c04115 	stw	r3,260(r2)
                        pFileContext->bDirectory = (pDir->Attribute & ATTR_DIRECTORY)?TRUE:FALSE;
 30420ec:	e0bff817 	ldw	r2,-32(fp)
 30420f0:	108002c3 	ldbu	r2,11(r2)
 30420f4:	10803fcc 	andi	r2,r2,255
 30420f8:	1080040c 	andi	r2,r2,16
 30420fc:	1006c03a 	cmpne	r3,r2,zero
 3042100:	e0bffe17 	ldw	r2,-8(fp)
 3042104:	10c04215 	stw	r3,264(r2)
                        pFileContext->bVolume = (pDir->Attribute & ATTR_VOLUME_ID)?TRUE:FALSE;
 3042108:	e0bff817 	ldw	r2,-32(fp)
 304210c:	108002c3 	ldbu	r2,11(r2)
 3042110:	10803fcc 	andi	r2,r2,255
 3042114:	1080020c 	andi	r2,r2,8
 3042118:	1006c03a 	cmpne	r3,r2,zero
 304211c:	e0bffe17 	ldw	r2,-8(fp)
 3042120:	10c04315 	stw	r3,268(r2)
                        pFileContext->DirEntryIndex = pFatBrowseHandle->DirectoryIndex; // add in v2.0.0
 3042124:	e0bffd17 	ldw	r2,-12(fp)
 3042128:	10c00017 	ldw	r3,0(r2)
 304212c:	e0bffe17 	ldw	r2,-8(fp)
 3042130:	10c04415 	stw	r3,272(r2)
                        
                        //
                        pFileContext->Attribute = pDir->Attribute;
 3042134:	e0bff817 	ldw	r2,-32(fp)
 3042138:	10c002c3 	ldbu	r3,11(r2)
 304213c:	e0bffe17 	ldw	r2,-8(fp)
 3042140:	10c04505 	stb	r3,276(r2)
                        pFileContext->CreateTime = pDir->CreateTime;
 3042144:	e0bff817 	ldw	r2,-32(fp)
 3042148:	10c00383 	ldbu	r3,14(r2)
 304214c:	108003c3 	ldbu	r2,15(r2)
 3042150:	1004923a 	slli	r2,r2,8
 3042154:	10c4b03a 	or	r2,r2,r3
 3042158:	1007883a 	mov	r3,r2
 304215c:	e0bffe17 	ldw	r2,-8(fp)
 3042160:	10c0458d 	sth	r3,278(r2)
                        pFileContext->LastAccessDate = pDir->LastAccessDate;
 3042164:	e0bff817 	ldw	r2,-32(fp)
 3042168:	10c00483 	ldbu	r3,18(r2)
 304216c:	108004c3 	ldbu	r2,19(r2)
 3042170:	1004923a 	slli	r2,r2,8
 3042174:	10c4b03a 	or	r2,r2,r3
 3042178:	1007883a 	mov	r3,r2
 304217c:	e0bffe17 	ldw	r2,-8(fp)
 3042180:	10c0468d 	sth	r3,282(r2)
                        pFileContext->FirstLogicalClusterHi = pDir->FirstLogicalClusterHi;
 3042184:	e0bff817 	ldw	r2,-32(fp)
 3042188:	10c00503 	ldbu	r3,20(r2)
 304218c:	10800543 	ldbu	r2,21(r2)
 3042190:	1004923a 	slli	r2,r2,8
 3042194:	10c4b03a 	or	r2,r2,r3
 3042198:	1007883a 	mov	r3,r2
 304219c:	e0bffe17 	ldw	r2,-8(fp)
 30421a0:	10c0470d 	sth	r3,284(r2)
                        pFileContext->LastWriteTime = pDir->LastWriteTime;
 30421a4:	e0bff817 	ldw	r2,-32(fp)
 30421a8:	10c00583 	ldbu	r3,22(r2)
 30421ac:	108005c3 	ldbu	r2,23(r2)
 30421b0:	1004923a 	slli	r2,r2,8
 30421b4:	10c4b03a 	or	r2,r2,r3
 30421b8:	1007883a 	mov	r3,r2
 30421bc:	e0bffe17 	ldw	r2,-8(fp)
 30421c0:	10c0478d 	sth	r3,286(r2)
                        pFileContext->LastWriteDate = pDir->LastWriteDate;
 30421c4:	e0bff817 	ldw	r2,-32(fp)
 30421c8:	10c00603 	ldbu	r3,24(r2)
 30421cc:	10800643 	ldbu	r2,25(r2)
 30421d0:	1004923a 	slli	r2,r2,8
 30421d4:	10c4b03a 	or	r2,r2,r3
 30421d8:	1007883a 	mov	r3,r2
 30421dc:	e0bffe17 	ldw	r2,-8(fp)
 30421e0:	10c0480d 	sth	r3,288(r2)
                        pFileContext->FirstLogicalCluster = pDir->FirstLogicalCluster;
 30421e4:	e0bff817 	ldw	r2,-32(fp)
 30421e8:	10c00683 	ldbu	r3,26(r2)
 30421ec:	108006c3 	ldbu	r2,27(r2)
 30421f0:	1004923a 	slli	r2,r2,8
 30421f4:	10c4b03a 	or	r2,r2,r3
 30421f8:	1007883a 	mov	r3,r2
 30421fc:	e0bffe17 	ldw	r2,-8(fp)
 3042200:	10c0488d 	sth	r3,290(r2)
                        pFileContext->FileSize = pDir->FileSize;
 3042204:	e0fff817 	ldw	r3,-32(fp)
 3042208:	19000703 	ldbu	r4,28(r3)
 304220c:	18800743 	ldbu	r2,29(r3)
 3042210:	1004923a 	slli	r2,r2,8
 3042214:	1108b03a 	or	r4,r2,r4
 3042218:	18800783 	ldbu	r2,30(r3)
 304221c:	1004943a 	slli	r2,r2,16
 3042220:	1108b03a 	or	r4,r2,r4
 3042224:	188007c3 	ldbu	r2,31(r3)
 3042228:	1004963a 	slli	r2,r2,24
 304222c:	1104b03a 	or	r2,r2,r4
 3042230:	1007883a 	mov	r3,r2
 3042234:	e0bffe17 	ldw	r2,-8(fp)
 3042238:	10c04915 	stw	r3,292(r2)
                    }                        
                }                    
            }                
        }            
    }while (!bFind && !fatIsLastDir(pDir) && !bError);
 304223c:	e0bffc17 	ldw	r2,-16(fp)
 3042240:	1004c03a 	cmpne	r2,r2,zero
 3042244:	1000071e 	bne	r2,zero,3042264 <Fat_FileBrowseNext+0x4d8>
 3042248:	e13ff817 	ldw	r4,-32(fp)
 304224c:	30438400 	call	3043840 <fatIsLastDir>
 3042250:	1004c03a 	cmpne	r2,r2,zero
 3042254:	1000031e 	bne	r2,zero,3042264 <Fat_FileBrowseNext+0x4d8>
 3042258:	e0bffb17 	ldw	r2,-20(fp)
 304225c:	1005003a 	cmpeq	r2,r2,zero
 3042260:	103ee21e 	bne	r2,zero,3041dec <Fat_FileBrowseNext+0x60>
    
    return bFind;
 3042264:	e0bffc17 	ldw	r2,-16(fp)
 3042268:	e0bfff15 	stw	r2,-4(fp)
 304226c:	e0bfff17 	ldw	r2,-4(fp)
    
}
 3042270:	e037883a 	mov	sp,fp
 3042274:	dfc00117 	ldw	ra,4(sp)
 3042278:	df000017 	ldw	fp,0(sp)
 304227c:	dec00204 	addi	sp,sp,8
 3042280:	f800283a 	ret

03042284 <Fat_FileCount>:


unsigned int Fat_FileCount(FAT_HANDLE Fat){
 3042284:	deffb004 	addi	sp,sp,-320
 3042288:	dfc04f15 	stw	ra,316(sp)
 304228c:	df004e15 	stw	fp,312(sp)
 3042290:	df004e04 	addi	fp,sp,312
 3042294:	e13fff15 	stw	r4,-4(fp)
    unsigned int nCount = 0;
 3042298:	e03fb215 	stw	zero,-312(fp)
    FAT_BROWSE_HANDLE hBrowse;
    FILE_CONTEXT FileContext;
    
    if (Fat_FileBrowseBegin(Fat, &hBrowse)){
 304229c:	e17fb304 	addi	r5,fp,-308
 30422a0:	e13fff17 	ldw	r4,-4(fp)
 30422a4:	3041d100 	call	3041d10 <Fat_FileBrowseBegin>
 30422a8:	1005003a 	cmpeq	r2,r2,zero
 30422ac:	1000091e 	bne	r2,zero,30422d4 <Fat_FileCount+0x50>
        while(Fat_FileBrowseNext(&hBrowse, &FileContext))
 30422b0:	00000306 	br	30422c0 <Fat_FileCount+0x3c>
            nCount++;
 30422b4:	e0bfb217 	ldw	r2,-312(fp)
 30422b8:	10800044 	addi	r2,r2,1
 30422bc:	e0bfb215 	stw	r2,-312(fp)
 30422c0:	e13fb304 	addi	r4,fp,-308
 30422c4:	e17fb504 	addi	r5,fp,-300
 30422c8:	3041d8c0 	call	3041d8c <Fat_FileBrowseNext>
 30422cc:	1004c03a 	cmpne	r2,r2,zero
 30422d0:	103ff81e 	bne	r2,zero,30422b4 <Fat_FileCount+0x30>
    }
    
    return nCount;
 30422d4:	e0bfb217 	ldw	r2,-312(fp)
}
 30422d8:	e037883a 	mov	sp,fp
 30422dc:	dfc00117 	ldw	ra,4(sp)
 30422e0:	df000017 	ldw	fp,0(sp)
 30422e4:	dec00204 	addi	sp,sp,8
 30422e8:	f800283a 	ret

030422ec <fatSameLongFilename>:

bool fatSameLongFilename(alt_u16 *p1, alt_u16 *p2){
 30422ec:	defffc04 	addi	sp,sp,-16
 30422f0:	df000315 	stw	fp,12(sp)
 30422f4:	df000304 	addi	fp,sp,12
 30422f8:	e13ffe15 	stw	r4,-8(fp)
 30422fc:	e17fff15 	stw	r5,-4(fp)
    bool bSame = TRUE;
 3042300:	00800044 	movi	r2,1
 3042304:	e0bffd15 	stw	r2,-12(fp)
    
    while(bSame && ((*p1 != 0) || (*p2 != 0))){
 3042308:	00000e06 	br	3042344 <fatSameLongFilename+0x58>
        if (*p1 != *p2){
 304230c:	e0bffe17 	ldw	r2,-8(fp)
 3042310:	10c0000b 	ldhu	r3,0(r2)
 3042314:	e0bfff17 	ldw	r2,-4(fp)
 3042318:	1080000b 	ldhu	r2,0(r2)
 304231c:	18ffffcc 	andi	r3,r3,65535
 3042320:	10bfffcc 	andi	r2,r2,65535
 3042324:	18800126 	beq	r3,r2,304232c <fatSameLongFilename+0x40>
            bSame = FALSE;
 3042328:	e03ffd15 	stw	zero,-12(fp)
        }
        p1++;
 304232c:	e0bffe17 	ldw	r2,-8(fp)
 3042330:	10800084 	addi	r2,r2,2
 3042334:	e0bffe15 	stw	r2,-8(fp)
        p2++;
 3042338:	e0bfff17 	ldw	r2,-4(fp)
 304233c:	10800084 	addi	r2,r2,2
 3042340:	e0bfff15 	stw	r2,-4(fp)
 3042344:	e0bffd17 	ldw	r2,-12(fp)
 3042348:	1005003a 	cmpeq	r2,r2,zero
 304234c:	10000a1e 	bne	r2,zero,3042378 <fatSameLongFilename+0x8c>
 3042350:	e0bffe17 	ldw	r2,-8(fp)
 3042354:	1080000b 	ldhu	r2,0(r2)
 3042358:	10bfffcc 	andi	r2,r2,65535
 304235c:	1004c03a 	cmpne	r2,r2,zero
 3042360:	103fea1e 	bne	r2,zero,304230c <fatSameLongFilename+0x20>
 3042364:	e0bfff17 	ldw	r2,-4(fp)
 3042368:	1080000b 	ldhu	r2,0(r2)
 304236c:	10bfffcc 	andi	r2,r2,65535
 3042370:	1004c03a 	cmpne	r2,r2,zero
 3042374:	103fe51e 	bne	r2,zero,304230c <fatSameLongFilename+0x20>
        
    }
    
    return bSame;
 3042378:	e0bffd17 	ldw	r2,-12(fp)
}
 304237c:	e037883a 	mov	sp,fp
 3042380:	df000017 	ldw	fp,0(sp)
 3042384:	dec00104 	addi	sp,sp,4
 3042388:	f800283a 	ret

0304238c <fatComposeShortFilename>:


void fatComposeShortFilename(FAT_DIRECTORY *pDir, char *szFilename){
 304238c:	defffb04 	addi	sp,sp,-20
 3042390:	df000415 	stw	fp,16(sp)
 3042394:	df000404 	addi	fp,sp,16
 3042398:	e13ffe15 	stw	r4,-8(fp)
 304239c:	e17fff15 	stw	r5,-4(fp)
    int i,nPos=0;
 30423a0:	e03ffc15 	stw	zero,-16(fp)
    
    i=0;
 30423a4:	e03ffd15 	stw	zero,-12(fp)
    while(i < 8 && pDir->Name[i] != 0 && pDir->Name[i] != ' ')
 30423a8:	00000f06 	br	30423e8 <fatComposeShortFilename+0x5c>
        szFilename[nPos++] = pDir->Name[i++];
 30423ac:	e0bffc17 	ldw	r2,-16(fp)
 30423b0:	1007883a 	mov	r3,r2
 30423b4:	e0bfff17 	ldw	r2,-4(fp)
 30423b8:	1889883a 	add	r4,r3,r2
 30423bc:	e0fffd17 	ldw	r3,-12(fp)
 30423c0:	e0bffe17 	ldw	r2,-8(fp)
 30423c4:	10c5883a 	add	r2,r2,r3
 30423c8:	10800003 	ldbu	r2,0(r2)
 30423cc:	20800005 	stb	r2,0(r4)
 30423d0:	e0bffc17 	ldw	r2,-16(fp)
 30423d4:	10800044 	addi	r2,r2,1
 30423d8:	e0bffc15 	stw	r2,-16(fp)
 30423dc:	e0bffd17 	ldw	r2,-12(fp)
 30423e0:	10800044 	addi	r2,r2,1
 30423e4:	e0bffd15 	stw	r2,-12(fp)
 30423e8:	e0bffd17 	ldw	r2,-12(fp)
 30423ec:	10800208 	cmpgei	r2,r2,8
 30423f0:	1000121e 	bne	r2,zero,304243c <fatComposeShortFilename+0xb0>
 30423f4:	e0fffd17 	ldw	r3,-12(fp)
 30423f8:	e0bffe17 	ldw	r2,-8(fp)
 30423fc:	10c5883a 	add	r2,r2,r3
 3042400:	10800003 	ldbu	r2,0(r2)
 3042404:	10803fcc 	andi	r2,r2,255
 3042408:	1080201c 	xori	r2,r2,128
 304240c:	10bfe004 	addi	r2,r2,-128
 3042410:	1005003a 	cmpeq	r2,r2,zero
 3042414:	1000091e 	bne	r2,zero,304243c <fatComposeShortFilename+0xb0>
 3042418:	e0fffd17 	ldw	r3,-12(fp)
 304241c:	e0bffe17 	ldw	r2,-8(fp)
 3042420:	10c5883a 	add	r2,r2,r3
 3042424:	10800003 	ldbu	r2,0(r2)
 3042428:	10803fcc 	andi	r2,r2,255
 304242c:	1080201c 	xori	r2,r2,128
 3042430:	10bfe004 	addi	r2,r2,-128
 3042434:	10800818 	cmpnei	r2,r2,32
 3042438:	103fdc1e 	bne	r2,zero,30423ac <fatComposeShortFilename+0x20>
    
    if (pDir->Attribute & (ATTR_ARCHIVE | ATTR_DIRECTORY)){
 304243c:	e0bffe17 	ldw	r2,-8(fp)
 3042440:	108002c3 	ldbu	r2,11(r2)
 3042444:	10803fcc 	andi	r2,r2,255
 3042448:	10800c0c 	andi	r2,r2,48
 304244c:	1005003a 	cmpeq	r2,r2,zero
 3042450:	1000381e 	bne	r2,zero,3042534 <fatComposeShortFilename+0x1a8>
        if (pDir->Attribute & (ATTR_ARCHIVE | ATTR_DIRECTORY))     
 3042454:	e0bffe17 	ldw	r2,-8(fp)
 3042458:	108002c3 	ldbu	r2,11(r2)
 304245c:	10803fcc 	andi	r2,r2,255
 3042460:	10800c0c 	andi	r2,r2,48
 3042464:	1005003a 	cmpeq	r2,r2,zero
 3042468:	1000091e 	bne	r2,zero,3042490 <fatComposeShortFilename+0x104>
            szFilename[nPos++] = '.';   
 304246c:	e0bffc17 	ldw	r2,-16(fp)
 3042470:	1007883a 	mov	r3,r2
 3042474:	e0bfff17 	ldw	r2,-4(fp)
 3042478:	1887883a 	add	r3,r3,r2
 304247c:	00800b84 	movi	r2,46
 3042480:	18800005 	stb	r2,0(r3)
 3042484:	e0bffc17 	ldw	r2,-16(fp)
 3042488:	10800044 	addi	r2,r2,1
 304248c:	e0bffc15 	stw	r2,-16(fp)
        i=0;
 3042490:	e03ffd15 	stw	zero,-12(fp)
        while(i < 3 && pDir->Extension[i] != 0 && pDir->Extension[i] != ' ')
 3042494:	00001006 	br	30424d8 <fatComposeShortFilename+0x14c>
            szFilename[nPos++] = pDir->Extension[i++];
 3042498:	e0bffc17 	ldw	r2,-16(fp)
 304249c:	1007883a 	mov	r3,r2
 30424a0:	e0bfff17 	ldw	r2,-4(fp)
 30424a4:	1889883a 	add	r4,r3,r2
 30424a8:	e0fffd17 	ldw	r3,-12(fp)
 30424ac:	e0bffe17 	ldw	r2,-8(fp)
 30424b0:	1885883a 	add	r2,r3,r2
 30424b4:	10800204 	addi	r2,r2,8
 30424b8:	10800003 	ldbu	r2,0(r2)
 30424bc:	20800005 	stb	r2,0(r4)
 30424c0:	e0bffc17 	ldw	r2,-16(fp)
 30424c4:	10800044 	addi	r2,r2,1
 30424c8:	e0bffc15 	stw	r2,-16(fp)
 30424cc:	e0bffd17 	ldw	r2,-12(fp)
 30424d0:	10800044 	addi	r2,r2,1
 30424d4:	e0bffd15 	stw	r2,-12(fp)
 30424d8:	e0bffd17 	ldw	r2,-12(fp)
 30424dc:	108000c8 	cmpgei	r2,r2,3
 30424e0:	1000141e 	bne	r2,zero,3042534 <fatComposeShortFilename+0x1a8>
 30424e4:	e0fffd17 	ldw	r3,-12(fp)
 30424e8:	e0bffe17 	ldw	r2,-8(fp)
 30424ec:	1885883a 	add	r2,r3,r2
 30424f0:	10800204 	addi	r2,r2,8
 30424f4:	10800003 	ldbu	r2,0(r2)
 30424f8:	10803fcc 	andi	r2,r2,255
 30424fc:	1080201c 	xori	r2,r2,128
 3042500:	10bfe004 	addi	r2,r2,-128
 3042504:	1005003a 	cmpeq	r2,r2,zero
 3042508:	10000a1e 	bne	r2,zero,3042534 <fatComposeShortFilename+0x1a8>
 304250c:	e0fffd17 	ldw	r3,-12(fp)
 3042510:	e0bffe17 	ldw	r2,-8(fp)
 3042514:	1885883a 	add	r2,r3,r2
 3042518:	10800204 	addi	r2,r2,8
 304251c:	10800003 	ldbu	r2,0(r2)
 3042520:	10803fcc 	andi	r2,r2,255
 3042524:	1080201c 	xori	r2,r2,128
 3042528:	10bfe004 	addi	r2,r2,-128
 304252c:	10800818 	cmpnei	r2,r2,32
 3042530:	103fd91e 	bne	r2,zero,3042498 <fatComposeShortFilename+0x10c>
    }            
    szFilename[nPos++] = 0;
 3042534:	e0bffc17 	ldw	r2,-16(fp)
 3042538:	1007883a 	mov	r3,r2
 304253c:	e0bfff17 	ldw	r2,-4(fp)
 3042540:	1885883a 	add	r2,r3,r2
 3042544:	10000005 	stb	zero,0(r2)
 3042548:	e0bffc17 	ldw	r2,-16(fp)
 304254c:	10800044 	addi	r2,r2,1
 3042550:	e0bffc15 	stw	r2,-16(fp)
}
 3042554:	e037883a 	mov	sp,fp
 3042558:	df000017 	ldw	fp,0(sp)
 304255c:	dec00104 	addi	sp,sp,4
 3042560:	f800283a 	ret

03042564 <Fat_FileExist>:





bool Fat_FileExist(FAT_HANDLE Fat, const char *pFilename){
 3042564:	deffaf04 	addi	sp,sp,-324
 3042568:	dfc05015 	stw	ra,320(sp)
 304256c:	df004f15 	stw	fp,316(sp)
 3042570:	df004f04 	addi	fp,sp,316
 3042574:	e13ffe15 	stw	r4,-8(fp)
 3042578:	e17fff15 	stw	r5,-4(fp)
    bool bFind = FALSE;
 304257c:	e03fb115 	stw	zero,-316(fp)
    FAT_BROWSE_HANDLE hBrowse;     
    FILE_CONTEXT FileContext;
    if (Fat_FileBrowseBegin(Fat, &hBrowse)){
 3042580:	e17fb204 	addi	r5,fp,-312
 3042584:	e13ffe17 	ldw	r4,-8(fp)
 3042588:	3041d100 	call	3041d10 <Fat_FileBrowseBegin>
 304258c:	1005003a 	cmpeq	r2,r2,zero
 3042590:	10001a1e 	bne	r2,zero,30425fc <Fat_FileExist+0x98>
        while (!bFind && Fat_FileBrowseNext(&hBrowse, &FileContext)){
 3042594:	00000f06 	br	30425d4 <Fat_FileExist+0x70>
            if (FileContext.bLongFilename){
 3042598:	e0bff417 	ldw	r2,-48(fp)
 304259c:	1005003a 	cmpeq	r2,r2,zero
 30425a0:	1000051e 	bne	r2,zero,30425b8 <Fat_FileExist+0x54>
                bFind = fatSameLongFilename((alt_u16 *)FileContext.szName, (alt_u16 *)pFilename);
 30425a4:	e13fb404 	addi	r4,fp,-304
 30425a8:	e17fff17 	ldw	r5,-4(fp)
 30425ac:	30422ec0 	call	30422ec <fatSameLongFilename>
 30425b0:	e0bfb115 	stw	r2,-316(fp)
 30425b4:	00000706 	br	30425d4 <Fat_FileExist+0x70>
            }else{
                if (strcmpi(FileContext.szName, pFilename) == 0)
 30425b8:	e13fb404 	addi	r4,fp,-304
 30425bc:	e17fff17 	ldw	r5,-4(fp)
 30425c0:	304c2cc0 	call	304c2cc <strcasecmp>
 30425c4:	1004c03a 	cmpne	r2,r2,zero
 30425c8:	1000021e 	bne	r2,zero,30425d4 <Fat_FileExist+0x70>
                    bFind = TRUE;
 30425cc:	00800044 	movi	r2,1
 30425d0:	e0bfb115 	stw	r2,-316(fp)
 30425d4:	e0bfb117 	ldw	r2,-316(fp)
 30425d8:	1004c03a 	cmpne	r2,r2,zero
 30425dc:	1000051e 	bne	r2,zero,30425f4 <Fat_FileExist+0x90>
 30425e0:	e13fb204 	addi	r4,fp,-312
 30425e4:	e17fb404 	addi	r5,fp,-304
 30425e8:	3041d8c0 	call	3041d8c <Fat_FileBrowseNext>
 30425ec:	1004c03a 	cmpne	r2,r2,zero
 30425f0:	103fe91e 	bne	r2,zero,3042598 <Fat_FileExist+0x34>
            }    
        } // while 
        Fat_FileClose(Fat); 
 30425f4:	e13ffe17 	ldw	r4,-8(fp)
 30425f8:	3042e980 	call	3042e98 <Fat_FileClose>
    }
    return bFind;            
 30425fc:	e0bfb117 	ldw	r2,-316(fp)
}    
 3042600:	e037883a 	mov	sp,fp
 3042604:	dfc00117 	ldw	ra,4(sp)
 3042608:	df000017 	ldw	fp,0(sp)
 304260c:	dec00204 	addi	sp,sp,8
 3042610:	f800283a 	ret

03042614 <Fat_FileOpen>:
 
// File Access
FAT_FILE_HANDLE Fat_FileOpen(FAT_HANDLE Fat, const char *pFilename){
 3042614:	deff6b04 	addi	sp,sp,-596
 3042618:	dfc09415 	stw	ra,592(sp)
 304261c:	df009315 	stw	fp,588(sp)
 3042620:	df009304 	addi	fp,sp,588
 3042624:	e13ffe15 	stw	r4,-8(fp)
 3042628:	e17fff15 	stw	r5,-4(fp)
    bool bFind = FALSE;
 304262c:	e03f7115 	stw	zero,-572(fp)
    FAT_BROWSE_HANDLE hBrowse;     
    FILE_CONTEXT FileContext;
    FAT_FILE_INFO *pFile = 0;
 3042630:	e03f7015 	stw	zero,-576(fp)
    int nPos = 0;
 3042634:	e03f6f15 	stw	zero,-580(fp)
    char szWaveFilename[MAX_FILENAME_LENGTH];
    
    if (Fat_FileBrowseBegin(Fat, &hBrowse)){
 3042638:	e17f7204 	addi	r5,fp,-568
 304263c:	e13ffe17 	ldw	r4,-8(fp)
 3042640:	3041d100 	call	3041d10 <Fat_FileBrowseBegin>
 3042644:	1005003a 	cmpeq	r2,r2,zero
 3042648:	10007a1e 	bne	r2,zero,3042834 <Fat_FileOpen+0x220>
        while (!bFind && Fat_FileBrowseNext(&hBrowse, &FileContext)){
 304264c:	00005206 	br	3042798 <Fat_FileOpen+0x184>
            if (FileContext.bLongFilename){
 3042650:	e0bfb417 	ldw	r2,-304(fp)
 3042654:	1005003a 	cmpeq	r2,r2,zero
 3042658:	1000481e 	bne	r2,zero,304277c <Fat_FileOpen+0x168>
                //bFind = fatSameLongFilename((alt_u16 *)FileContext.szName, (alt_u16 *)pFilename);
                nPos = 0;
 304265c:	e03f6f15 	stw	zero,-580(fp)
                alt_u16 *pData16;
                alt_u8 *pData8;
                pData16 = (alt_u16 *)FileContext.szName;
 3042660:	e0bf7404 	addi	r2,fp,-560
 3042664:	e0bf6e15 	stw	r2,-584(fp)
                pData8 = FileContext.szName;
 3042668:	e0bf7404 	addi	r2,fp,-560
 304266c:	e0bf6d15 	stw	r2,-588(fp)
                while(*pData16){
 3042670:	00003106 	br	3042738 <Fat_FileOpen+0x124>
                    if (*pData8 && *pData8 != ' ')
 3042674:	e0bf6d17 	ldw	r2,-588(fp)
 3042678:	10800003 	ldbu	r2,0(r2)
 304267c:	10803fcc 	andi	r2,r2,255
 3042680:	1005003a 	cmpeq	r2,r2,zero
 3042684:	10000f1e 	bne	r2,zero,30426c4 <Fat_FileOpen+0xb0>
 3042688:	e0bf6d17 	ldw	r2,-588(fp)
 304268c:	10800003 	ldbu	r2,0(r2)
 3042690:	10803fcc 	andi	r2,r2,255
 3042694:	10800820 	cmpeqi	r2,r2,32
 3042698:	10000a1e 	bne	r2,zero,30426c4 <Fat_FileOpen+0xb0>
                        szWaveFilename[nPos++] = *pData8;
 304269c:	e13f6f17 	ldw	r4,-580(fp)
 30426a0:	e0bf6d17 	ldw	r2,-588(fp)
 30426a4:	10800003 	ldbu	r2,0(r2)
 30426a8:	1007883a 	mov	r3,r2
 30426ac:	e0bfbe04 	addi	r2,fp,-264
 30426b0:	1105883a 	add	r2,r2,r4
 30426b4:	10c00005 	stb	r3,0(r2)
 30426b8:	e0bf6f17 	ldw	r2,-580(fp)
 30426bc:	10800044 	addi	r2,r2,1
 30426c0:	e0bf6f15 	stw	r2,-580(fp)
                    pData8++;
 30426c4:	e0bf6d17 	ldw	r2,-588(fp)
 30426c8:	10800044 	addi	r2,r2,1
 30426cc:	e0bf6d15 	stw	r2,-588(fp)
                    if (*pData8 && *pData8 != ' ')
 30426d0:	e0bf6d17 	ldw	r2,-588(fp)
 30426d4:	10800003 	ldbu	r2,0(r2)
 30426d8:	10803fcc 	andi	r2,r2,255
 30426dc:	1005003a 	cmpeq	r2,r2,zero
 30426e0:	10000f1e 	bne	r2,zero,3042720 <Fat_FileOpen+0x10c>
 30426e4:	e0bf6d17 	ldw	r2,-588(fp)
 30426e8:	10800003 	ldbu	r2,0(r2)
 30426ec:	10803fcc 	andi	r2,r2,255
 30426f0:	10800820 	cmpeqi	r2,r2,32
 30426f4:	10000a1e 	bne	r2,zero,3042720 <Fat_FileOpen+0x10c>
                        szWaveFilename[nPos++] = *pData8;
 30426f8:	e13f6f17 	ldw	r4,-580(fp)
 30426fc:	e0bf6d17 	ldw	r2,-588(fp)
 3042700:	10800003 	ldbu	r2,0(r2)
 3042704:	1007883a 	mov	r3,r2
 3042708:	e0bfbe04 	addi	r2,fp,-264
 304270c:	1105883a 	add	r2,r2,r4
 3042710:	10c00005 	stb	r3,0(r2)
 3042714:	e0bf6f17 	ldw	r2,-580(fp)
 3042718:	10800044 	addi	r2,r2,1
 304271c:	e0bf6f15 	stw	r2,-580(fp)
                    pData8++;                    
 3042720:	e0bf6d17 	ldw	r2,-588(fp)
 3042724:	10800044 	addi	r2,r2,1
 3042728:	e0bf6d15 	stw	r2,-588(fp)
                    //    
                    pData16++;
 304272c:	e0bf6e17 	ldw	r2,-584(fp)
 3042730:	10800084 	addi	r2,r2,2
 3042734:	e0bf6e15 	stw	r2,-584(fp)
 3042738:	e0bf6e17 	ldw	r2,-584(fp)
 304273c:	1080000b 	ldhu	r2,0(r2)
 3042740:	10bfffcc 	andi	r2,r2,65535
 3042744:	1004c03a 	cmpne	r2,r2,zero
 3042748:	103fca1e 	bne	r2,zero,3042674 <Fat_FileOpen+0x60>
                }
                szWaveFilename[nPos] = 0;
 304274c:	e0ff6f17 	ldw	r3,-580(fp)
 3042750:	e0bfbe04 	addi	r2,fp,-264
 3042754:	10c5883a 	add	r2,r2,r3
 3042758:	10000005 	stb	zero,0(r2)
                
                if(strcmp(pFilename,szWaveFilename) == 0)
 304275c:	e17fbe04 	addi	r5,fp,-264
 3042760:	e13fff17 	ldw	r4,-4(fp)
 3042764:	304c37c0 	call	304c37c <strcmp>
 3042768:	1004c03a 	cmpne	r2,r2,zero
 304276c:	10000a1e 	bne	r2,zero,3042798 <Fat_FileOpen+0x184>
                    bFind = TRUE;
 3042770:	00800044 	movi	r2,1
 3042774:	e0bf7115 	stw	r2,-572(fp)
 3042778:	00000706 	br	3042798 <Fat_FileOpen+0x184>
            }else{
                if (strcmpi(FileContext.szName, pFilename) == 0)
 304277c:	e13f7404 	addi	r4,fp,-560
 3042780:	e17fff17 	ldw	r5,-4(fp)
 3042784:	304c2cc0 	call	304c2cc <strcasecmp>
 3042788:	1004c03a 	cmpne	r2,r2,zero
 304278c:	1000021e 	bne	r2,zero,3042798 <Fat_FileOpen+0x184>
                    bFind = TRUE;
 3042790:	00800044 	movi	r2,1
 3042794:	e0bf7115 	stw	r2,-572(fp)
 3042798:	e0bf7117 	ldw	r2,-572(fp)
 304279c:	1004c03a 	cmpne	r2,r2,zero
 30427a0:	1000051e 	bne	r2,zero,30427b8 <Fat_FileOpen+0x1a4>
 30427a4:	e13f7204 	addi	r4,fp,-568
 30427a8:	e17f7404 	addi	r5,fp,-560
 30427ac:	3041d8c0 	call	3041d8c <Fat_FileBrowseNext>
 30427b0:	1004c03a 	cmpne	r2,r2,zero
 30427b4:	103fa61e 	bne	r2,zero,3042650 <Fat_FileOpen+0x3c>
            }    
        } // while 
        
        if (bFind){
 30427b8:	e0bf7117 	ldw	r2,-572(fp)
 30427bc:	1005003a 	cmpeq	r2,r2,zero
 30427c0:	10001c1e 	bne	r2,zero,3042834 <Fat_FileOpen+0x220>
            pFile = malloc(sizeof(FAT_FILE_INFO));
 30427c4:	01005004 	movi	r4,320
 30427c8:	304b4080 	call	304b408 <malloc>
 30427cc:	e0bf7015 	stw	r2,-576(fp)
            if (pFile){
 30427d0:	e0bf7017 	ldw	r2,-576(fp)
 30427d4:	1005003a 	cmpeq	r2,r2,zero
 30427d8:	1000161e 	bne	r2,zero,3042834 <Fat_FileOpen+0x220>
                pFile->OpenAttribute = FILE_OPEN_READ; 
 30427dc:	e0ff7017 	ldw	r3,-576(fp)
 30427e0:	00800044 	movi	r2,1
 30427e4:	18800115 	stw	r2,4(r3)
                pFile->SeekPos = 0;
 30427e8:	e0bf7017 	ldw	r2,-576(fp)
 30427ec:	10000215 	stw	zero,8(r2)
                pFile->Directory = FileContext;
 30427f0:	e0bf7017 	ldw	r2,-576(fp)
 30427f4:	11000504 	addi	r4,r2,20
 30427f8:	e17f7404 	addi	r5,fp,-560
 30427fc:	01804a04 	movi	r6,296
 3042800:	304bb5c0 	call	304bb5c <memcpy>
                pFile->IsOpened = TRUE;
 3042804:	e0ff7017 	ldw	r3,-576(fp)
 3042808:	00800044 	movi	r2,1
 304280c:	18800015 	stw	r2,0(r3)
                pFile->Cluster = FileContext.FirstLogicalCluster;
 3042810:	e0bfbc8b 	ldhu	r2,-270(fp)
 3042814:	10ffffcc 	andi	r3,r2,65535
 3042818:	e0bf7017 	ldw	r2,-576(fp)
 304281c:	10c00315 	stw	r3,12(r2)
                pFile->ClusterSeq = 0;
 3042820:	e0bf7017 	ldw	r2,-576(fp)
 3042824:	10000415 	stw	zero,16(r2)
                pFile->Fat = Fat;
 3042828:	e0ff7017 	ldw	r3,-576(fp)
 304282c:	e0bffe17 	ldw	r2,-8(fp)
 3042830:	18804f15 	stw	r2,316(r3)
            }    
        }    
    }  

    
    return (FAT_FILE_HANDLE)pFile;  
 3042834:	e0bf7017 	ldw	r2,-576(fp)
}
 3042838:	e037883a 	mov	sp,fp
 304283c:	dfc00117 	ldw	ra,4(sp)
 3042840:	df000017 	ldw	fp,0(sp)
 3042844:	dec00204 	addi	sp,sp,8
 3042848:	f800283a 	ret

0304284c <Fat_FileSize>:


unsigned int Fat_FileSize(FAT_FILE_HANDLE hFileHandle){
 304284c:	defffc04 	addi	sp,sp,-16
 3042850:	df000315 	stw	fp,12(sp)
 3042854:	df000304 	addi	fp,sp,12
 3042858:	e13ffe15 	stw	r4,-8(fp)
    FAT_FILE_INFO *f = (FAT_FILE_INFO *)hFileHandle;
 304285c:	e0bffe17 	ldw	r2,-8(fp)
 3042860:	e0bffd15 	stw	r2,-12(fp)
    if (f->IsOpened)
 3042864:	e0bffd17 	ldw	r2,-12(fp)
 3042868:	10800017 	ldw	r2,0(r2)
 304286c:	1005003a 	cmpeq	r2,r2,zero
 3042870:	1000041e 	bne	r2,zero,3042884 <Fat_FileSize+0x38>
        return f->Directory.FileSize;
 3042874:	e0bffd17 	ldw	r2,-12(fp)
 3042878:	10804e17 	ldw	r2,312(r2)
 304287c:	e0bfff15 	stw	r2,-4(fp)
 3042880:	00000106 	br	3042888 <Fat_FileSize+0x3c>
    return 0;        
 3042884:	e03fff15 	stw	zero,-4(fp)
 3042888:	e0bfff17 	ldw	r2,-4(fp)
}
 304288c:	e037883a 	mov	sp,fp
 3042890:	df000017 	ldw	fp,0(sp)
 3042894:	dec00104 	addi	sp,sp,4
 3042898:	f800283a 	ret

0304289c <Fat_FileRead>:


bool Fat_FileRead(FAT_FILE_HANDLE hFileHandle, void *pBuffer, const int nBufferSize){
 304289c:	deffee04 	addi	sp,sp,-72
 30428a0:	dfc01115 	stw	ra,68(sp)
 30428a4:	df001015 	stw	fp,64(sp)
 30428a8:	df001004 	addi	fp,sp,64
 30428ac:	e13ffc15 	stw	r4,-16(fp)
 30428b0:	e17ffd15 	stw	r5,-12(fp)
 30428b4:	e1bffe15 	stw	r6,-8(fp)
    FAT_FILE_INFO *f = (FAT_FILE_INFO *)hFileHandle;
 30428b8:	e0bffc17 	ldw	r2,-16(fp)
 30428bc:	e0bffb15 	stw	r2,-20(fp)
    VOLUME_INFO *pVol;
    alt_u32 Pos, PhysicalSecter, NextCluster, Cluster;
    alt_u32 BytesPerCluster, nReadCount=0, nClusterSeq;
 30428c0:	e03ff415 	stw	zero,-48(fp)
    int s;
    bool bSuccess= TRUE;
 30428c4:	00800044 	movi	r2,1
 30428c8:	e0bff115 	stw	r2,-60(fp)
    
    if (!f || !f->Fat)
 30428cc:	e0bffb17 	ldw	r2,-20(fp)
 30428d0:	1005003a 	cmpeq	r2,r2,zero
 30428d4:	1000041e 	bne	r2,zero,30428e8 <Fat_FileRead+0x4c>
 30428d8:	e0bffb17 	ldw	r2,-20(fp)
 30428dc:	10804f17 	ldw	r2,316(r2)
 30428e0:	1004c03a 	cmpne	r2,r2,zero
 30428e4:	1000021e 	bne	r2,zero,30428f0 <Fat_FileRead+0x54>
        return FALSE;
 30428e8:	e03fff15 	stw	zero,-4(fp)
 30428ec:	00011b06 	br	3042d5c <Fat_FileRead+0x4c0>
    pVol = (VOLUME_INFO *)f->Fat;        
 30428f0:	e0bffb17 	ldw	r2,-20(fp)
 30428f4:	10804f17 	ldw	r2,316(r2)
 30428f8:	e0bffa15 	stw	r2,-24(fp)
    
    if (!f->IsOpened){
 30428fc:	e0bffb17 	ldw	r2,-20(fp)
 3042900:	10800017 	ldw	r2,0(r2)
 3042904:	1004c03a 	cmpne	r2,r2,zero
 3042908:	1000061e 	bne	r2,zero,3042924 <Fat_FileRead+0x88>
        FAT_DEBUG(("[FAT] Fat_FileRead, file not opened\r\n"));
 304290c:	0100c1b4 	movhi	r4,774
 3042910:	2127b404 	addi	r4,r4,-24880
 3042914:	30469080 	call	3046908 <myprintf>
        return bSuccess;
 3042918:	e0bff117 	ldw	r2,-60(fp)
 304291c:	e0bfff15 	stw	r2,-4(fp)
 3042920:	00010e06 	br	3042d5c <Fat_FileRead+0x4c0>
    }        
        
    BytesPerCluster = pVol->nBytesPerCluster; //gVolumeInfo.BPB_BytsPerSec * gVolumeInfo.BPB_SecPerCluster;  
 3042924:	e0bffa17 	ldw	r2,-24(fp)
 3042928:	10800c17 	ldw	r2,48(r2)
 304292c:	e0bff515 	stw	r2,-44(fp)
    Pos = f->SeekPos;
 3042930:	e0bffb17 	ldw	r2,-20(fp)
 3042934:	10800217 	ldw	r2,8(r2)
 3042938:	e0bff915 	stw	r2,-28(fp)
    if (BytesPerCluster == 32768){
 304293c:	e0fff517 	ldw	r3,-44(fp)
 3042940:	00a00014 	movui	r2,32768
 3042944:	18800a1e 	bne	r3,r2,3042970 <Fat_FileRead+0xd4>
        nClusterSeq = Pos >> 15;
 3042948:	e0bff917 	ldw	r2,-28(fp)
 304294c:	1004d3fa 	srli	r2,r2,15
 3042950:	e0bff315 	stw	r2,-52(fp)
        Pos -= (f->ClusterSeq << 15);
 3042954:	e0bffb17 	ldw	r2,-20(fp)
 3042958:	10800417 	ldw	r2,16(r2)
 304295c:	100693fa 	slli	r3,r2,15
 3042960:	e0bff917 	ldw	r2,-28(fp)
 3042964:	10c5c83a 	sub	r2,r2,r3
 3042968:	e0bff915 	stw	r2,-28(fp)
 304296c:	00002506 	br	3042a04 <Fat_FileRead+0x168>
    }else if (BytesPerCluster == 16384){
 3042970:	e0bff517 	ldw	r2,-44(fp)
 3042974:	10900018 	cmpnei	r2,r2,16384
 3042978:	10000a1e 	bne	r2,zero,30429a4 <Fat_FileRead+0x108>
        nClusterSeq = Pos >> 14;
 304297c:	e0bff917 	ldw	r2,-28(fp)
 3042980:	1004d3ba 	srli	r2,r2,14
 3042984:	e0bff315 	stw	r2,-52(fp)
        Pos -= (f->ClusterSeq << 14);
 3042988:	e0bffb17 	ldw	r2,-20(fp)
 304298c:	10800417 	ldw	r2,16(r2)
 3042990:	100693ba 	slli	r3,r2,14
 3042994:	e0bff917 	ldw	r2,-28(fp)
 3042998:	10c5c83a 	sub	r2,r2,r3
 304299c:	e0bff915 	stw	r2,-28(fp)
 30429a0:	00001806 	br	3042a04 <Fat_FileRead+0x168>
    }else if (BytesPerCluster == 2048){
 30429a4:	e0bff517 	ldw	r2,-44(fp)
 30429a8:	10820018 	cmpnei	r2,r2,2048
 30429ac:	10000a1e 	bne	r2,zero,30429d8 <Fat_FileRead+0x13c>
        nClusterSeq = Pos >> 11;
 30429b0:	e0bff917 	ldw	r2,-28(fp)
 30429b4:	1004d2fa 	srli	r2,r2,11
 30429b8:	e0bff315 	stw	r2,-52(fp)
        Pos -= (f->ClusterSeq << 11);
 30429bc:	e0bffb17 	ldw	r2,-20(fp)
 30429c0:	10800417 	ldw	r2,16(r2)
 30429c4:	100692fa 	slli	r3,r2,11
 30429c8:	e0bff917 	ldw	r2,-28(fp)
 30429cc:	10c5c83a 	sub	r2,r2,r3
 30429d0:	e0bff915 	stw	r2,-28(fp)
 30429d4:	00000b06 	br	3042a04 <Fat_FileRead+0x168>
    }else{        
        nClusterSeq = Pos/BytesPerCluster;
 30429d8:	e13ff917 	ldw	r4,-28(fp)
 30429dc:	e17ff517 	ldw	r5,-44(fp)
 30429e0:	30497ec0 	call	30497ec <__udivsi3>
 30429e4:	e0bff315 	stw	r2,-52(fp)
        Pos -= f->ClusterSeq*BytesPerCluster;
 30429e8:	e0bffb17 	ldw	r2,-20(fp)
 30429ec:	10c00417 	ldw	r3,16(r2)
 30429f0:	e0bff517 	ldw	r2,-44(fp)
 30429f4:	1887383a 	mul	r3,r3,r2
 30429f8:	e0bff917 	ldw	r2,-28(fp)
 30429fc:	10c5c83a 	sub	r2,r2,r3
 3042a00:	e0bff915 	stw	r2,-28(fp)
    }    
        
       
    Cluster = f->Cluster;
 3042a04:	e0bffb17 	ldw	r2,-20(fp)
 3042a08:	10800317 	ldw	r2,12(r2)
 3042a0c:	e0bff615 	stw	r2,-40(fp)
    if (nClusterSeq != f->ClusterSeq){
 3042a10:	e0bffb17 	ldw	r2,-20(fp)
 3042a14:	10c00417 	ldw	r3,16(r2)
 3042a18:	e0bff317 	ldw	r2,-52(fp)
 3042a1c:	1880be26 	beq	r3,r2,3042d18 <Fat_FileRead+0x47c>
        Cluster = f->Cluster;  //11/20/2007, richard
 3042a20:	e0bffb17 	ldw	r2,-20(fp)
 3042a24:	10800317 	ldw	r2,12(r2)
 3042a28:	e0bff615 	stw	r2,-40(fp)
        // move to first clustor for reading
        while (Pos >= BytesPerCluster && bSuccess){
 3042a2c:	00001b06 	br	3042a9c <Fat_FileRead+0x200>
            // go to next cluster
            NextCluster = fatNextCluster(pVol, Cluster); 
 3042a30:	e13ffa17 	ldw	r4,-24(fp)
 3042a34:	e17ff617 	ldw	r5,-40(fp)
 3042a38:	30432840 	call	3043284 <fatNextCluster>
 3042a3c:	e0bff715 	stw	r2,-36(fp)
            if (NextCluster == 0){
 3042a40:	e0bff717 	ldw	r2,-36(fp)
 3042a44:	1004c03a 	cmpne	r2,r2,zero
 3042a48:	1000061e 	bne	r2,zero,3042a64 <Fat_FileRead+0x1c8>
                bSuccess = FALSE;
 3042a4c:	e03ff115 	stw	zero,-60(fp)
                FAT_DEBUG(("[FAT] Fat_FileRead, no next Cluster, current Cluster=%d\r\n", Cluster));
 3042a50:	0100c1b4 	movhi	r4,774
 3042a54:	2127be04 	addi	r4,r4,-24840
 3042a58:	e17ff617 	ldw	r5,-40(fp)
 3042a5c:	30469080 	call	3046908 <myprintf>
 3042a60:	00000206 	br	3042a6c <Fat_FileRead+0x1d0>
            }else{
                Cluster = NextCluster;
 3042a64:	e0bff717 	ldw	r2,-36(fp)
 3042a68:	e0bff615 	stw	r2,-40(fp)
            }        
            Pos -= BytesPerCluster;
 3042a6c:	e0fff917 	ldw	r3,-28(fp)
 3042a70:	e0bff517 	ldw	r2,-44(fp)
 3042a74:	1885c83a 	sub	r2,r3,r2
 3042a78:	e0bff915 	stw	r2,-28(fp)
            f->Cluster = Cluster;
 3042a7c:	e0fffb17 	ldw	r3,-20(fp)
 3042a80:	e0bff617 	ldw	r2,-40(fp)
 3042a84:	18800315 	stw	r2,12(r3)
            f->ClusterSeq++; 
 3042a88:	e0bffb17 	ldw	r2,-20(fp)
 3042a8c:	10800417 	ldw	r2,16(r2)
 3042a90:	10c00044 	addi	r3,r2,1
 3042a94:	e0bffb17 	ldw	r2,-20(fp)
 3042a98:	10c00415 	stw	r3,16(r2)
 3042a9c:	e0fff917 	ldw	r3,-28(fp)
 3042aa0:	e0bff517 	ldw	r2,-44(fp)
 3042aa4:	18809c36 	bltu	r3,r2,3042d18 <Fat_FileRead+0x47c>
 3042aa8:	e0bff117 	ldw	r2,-60(fp)
 3042aac:	1004c03a 	cmpne	r2,r2,zero
 3042ab0:	103fdf1e 	bne	r2,zero,3042a30 <Fat_FileRead+0x194>
        }
    }            
    
    // reading
    while(nReadCount < nBufferSize && bSuccess){
 3042ab4:	00009806 	br	3042d18 <Fat_FileRead+0x47c>
        if (pVol->BPB_SecPerCluster == 32)
 3042ab8:	e0bffa17 	ldw	r2,-24(fp)
 3042abc:	10800717 	ldw	r2,28(r2)
 3042ac0:	10800818 	cmpnei	r2,r2,32
 3042ac4:	1000081e 	bne	r2,zero,3042ae8 <Fat_FileRead+0x24c>
            PhysicalSecter = ((Cluster-2) << 5) + pVol->DataEntrySecter; // -2: FAT0 & FAT1 are reserved
 3042ac8:	e0bff617 	ldw	r2,-40(fp)
 3042acc:	10bfff84 	addi	r2,r2,-2
 3042ad0:	1006917a 	slli	r3,r2,5
 3042ad4:	e0bffa17 	ldw	r2,-24(fp)
 3042ad8:	10800f17 	ldw	r2,60(r2)
 3042adc:	1885883a 	add	r2,r3,r2
 3042ae0:	e0bff815 	stw	r2,-32(fp)
 3042ae4:	00001506 	br	3042b3c <Fat_FileRead+0x2a0>
        else if (pVol->BPB_SecPerCluster == 64)
 3042ae8:	e0bffa17 	ldw	r2,-24(fp)
 3042aec:	10800717 	ldw	r2,28(r2)
 3042af0:	10801018 	cmpnei	r2,r2,64
 3042af4:	1000081e 	bne	r2,zero,3042b18 <Fat_FileRead+0x27c>
            PhysicalSecter = ((Cluster-2) << 6) + pVol->DataEntrySecter; // -2: FAT0 & FAT1 are reserved
 3042af8:	e0bff617 	ldw	r2,-40(fp)
 3042afc:	10bfff84 	addi	r2,r2,-2
 3042b00:	100691ba 	slli	r3,r2,6
 3042b04:	e0bffa17 	ldw	r2,-24(fp)
 3042b08:	10800f17 	ldw	r2,60(r2)
 3042b0c:	1885883a 	add	r2,r3,r2
 3042b10:	e0bff815 	stw	r2,-32(fp)
 3042b14:	00000906 	br	3042b3c <Fat_FileRead+0x2a0>
        else
            PhysicalSecter = (Cluster-2)*pVol->BPB_SecPerCluster + pVol->DataEntrySecter; // -2: FAT0 & FAT1 are reserved
 3042b18:	e0bff617 	ldw	r2,-40(fp)
 3042b1c:	10ffff84 	addi	r3,r2,-2
 3042b20:	e0bffa17 	ldw	r2,-24(fp)
 3042b24:	10800717 	ldw	r2,28(r2)
 3042b28:	1887383a 	mul	r3,r3,r2
 3042b2c:	e0bffa17 	ldw	r2,-24(fp)
 3042b30:	10800f17 	ldw	r2,60(r2)
 3042b34:	1885883a 	add	r2,r3,r2
 3042b38:	e0bff815 	stw	r2,-32(fp)
        for(s=0;s<pVol->BPB_SecPerCluster && nReadCount < nBufferSize && bSuccess;s++){
 3042b3c:	e03ff215 	stw	zero,-56(fp)
 3042b40:	00005206 	br	3042c8c <Fat_FileRead+0x3f0>
            if (Pos >= pVol->BPB_BytsPerSec){
 3042b44:	e0bffa17 	ldw	r2,-24(fp)
 3042b48:	10c00617 	ldw	r3,24(r2)
 3042b4c:	e0bff917 	ldw	r2,-28(fp)
 3042b50:	10c00636 	bltu	r2,r3,3042b6c <Fat_FileRead+0x2d0>
                Pos -= pVol->BPB_BytsPerSec;
 3042b54:	e0bffa17 	ldw	r2,-24(fp)
 3042b58:	10c00617 	ldw	r3,24(r2)
 3042b5c:	e0bff917 	ldw	r2,-28(fp)
 3042b60:	10c5c83a 	sub	r2,r2,r3
 3042b64:	e0bff915 	stw	r2,-28(fp)
 3042b68:	00004206 	br	3042c74 <Fat_FileRead+0x3d8>
            }else{
                // read secter data
                bSuccess = fatReadSecter(pVol, PhysicalSecter);
 3042b6c:	e13ffa17 	ldw	r4,-24(fp)
 3042b70:	e17ff817 	ldw	r5,-32(fp)
 3042b74:	30441240 	call	3044124 <fatReadSecter>
 3042b78:	e0bff115 	stw	r2,-60(fp)
                
                if (bSuccess){
 3042b7c:	e0bff117 	ldw	r2,-60(fp)
 3042b80:	1005003a 	cmpeq	r2,r2,zero
 3042b84:	10003b1e 	bne	r2,zero,3042c74 <Fat_FileRead+0x3d8>
                    // copy data to user buffer
                
                    int nCopyCount;
                    nCopyCount = pVol->BPB_BytsPerSec;
 3042b88:	e0bffa17 	ldw	r2,-24(fp)
 3042b8c:	10800617 	ldw	r2,24(r2)
 3042b90:	e0bff015 	stw	r2,-64(fp)
                    if (Pos)
 3042b94:	e0bff917 	ldw	r2,-28(fp)
 3042b98:	1005003a 	cmpeq	r2,r2,zero
 3042b9c:	1000041e 	bne	r2,zero,3042bb0 <Fat_FileRead+0x314>
                        nCopyCount -= Pos;
 3042ba0:	e0bff017 	ldw	r2,-64(fp)
 3042ba4:	e0fff917 	ldw	r3,-28(fp)
 3042ba8:	10c5c83a 	sub	r2,r2,r3
 3042bac:	e0bff015 	stw	r2,-64(fp)
                    if (nCopyCount > (nBufferSize-nReadCount))
 3042bb0:	e13ff017 	ldw	r4,-64(fp)
 3042bb4:	e0fffe17 	ldw	r3,-8(fp)
 3042bb8:	e0bff417 	ldw	r2,-48(fp)
 3042bbc:	1885c83a 	sub	r2,r3,r2
 3042bc0:	1100042e 	bgeu	r2,r4,3042bd4 <Fat_FileRead+0x338>
                        nCopyCount = nBufferSize-nReadCount;
 3042bc4:	e0bffe17 	ldw	r2,-8(fp)
 3042bc8:	e0fff417 	ldw	r3,-48(fp)
 3042bcc:	10c5c83a 	sub	r2,r2,r3
 3042bd0:	e0bff015 	stw	r2,-64(fp)
                    if (nCopyCount == 512){
 3042bd4:	e0bff017 	ldw	r2,-64(fp)
 3042bd8:	10808018 	cmpnei	r2,r2,512
 3042bdc:	1000121e 	bne	r2,zero,3042c28 <Fat_FileRead+0x38c>
                        memcpy((char *)pBuffer+nReadCount, pVol->Secter_Data, 512);
 3042be0:	e0fffd17 	ldw	r3,-12(fp)
 3042be4:	e0bff417 	ldw	r2,-48(fp)
 3042be8:	1887883a 	add	r3,r3,r2
 3042bec:	e0bffa17 	ldw	r2,-24(fp)
 3042bf0:	10801004 	addi	r2,r2,64
 3042bf4:	1809883a 	mov	r4,r3
 3042bf8:	100b883a 	mov	r5,r2
 3042bfc:	01808004 	movi	r6,512
 3042c00:	304bb5c0 	call	304bb5c <memcpy>
                        nReadCount += nCopyCount;
 3042c04:	e0fff017 	ldw	r3,-64(fp)
 3042c08:	e0bff417 	ldw	r2,-48(fp)
 3042c0c:	10c5883a 	add	r2,r2,r3
 3042c10:	e0bff415 	stw	r2,-48(fp)
                        if (Pos > 0)
 3042c14:	e0bff917 	ldw	r2,-28(fp)
 3042c18:	1005003a 	cmpeq	r2,r2,zero
 3042c1c:	1000151e 	bne	r2,zero,3042c74 <Fat_FileRead+0x3d8>
                            Pos = 0;
 3042c20:	e03ff915 	stw	zero,-28(fp)
 3042c24:	00001306 	br	3042c74 <Fat_FileRead+0x3d8>
                    }else{
                        memcpy((void *)((char *)pBuffer+nReadCount), pVol->Secter_Data+Pos,nCopyCount);
 3042c28:	e0fffd17 	ldw	r3,-12(fp)
 3042c2c:	e0bff417 	ldw	r2,-48(fp)
 3042c30:	1889883a 	add	r4,r3,r2
 3042c34:	e0bffa17 	ldw	r2,-24(fp)
 3042c38:	10c01004 	addi	r3,r2,64
 3042c3c:	e0bff917 	ldw	r2,-28(fp)
 3042c40:	1885883a 	add	r2,r3,r2
 3042c44:	e0fff017 	ldw	r3,-64(fp)
 3042c48:	100b883a 	mov	r5,r2
 3042c4c:	180d883a 	mov	r6,r3
 3042c50:	304bb5c0 	call	304bb5c <memcpy>
                        nReadCount += nCopyCount;
 3042c54:	e0fff017 	ldw	r3,-64(fp)
 3042c58:	e0bff417 	ldw	r2,-48(fp)
 3042c5c:	10c5883a 	add	r2,r2,r3
 3042c60:	e0bff415 	stw	r2,-48(fp)
                        if (Pos > 0)
 3042c64:	e0bff917 	ldw	r2,-28(fp)
 3042c68:	1005003a 	cmpeq	r2,r2,zero
 3042c6c:	1000011e 	bne	r2,zero,3042c74 <Fat_FileRead+0x3d8>
                            Pos = 0;
 3042c70:	e03ff915 	stw	zero,-28(fp)
                    }         
                }    // if bSuccess
                    
            }
            PhysicalSecter++;
 3042c74:	e0bff817 	ldw	r2,-32(fp)
 3042c78:	10800044 	addi	r2,r2,1
 3042c7c:	e0bff815 	stw	r2,-32(fp)
 3042c80:	e0bff217 	ldw	r2,-56(fp)
 3042c84:	10800044 	addi	r2,r2,1
 3042c88:	e0bff215 	stw	r2,-56(fp)
 3042c8c:	e0bff217 	ldw	r2,-56(fp)
 3042c90:	e0fffa17 	ldw	r3,-24(fp)
 3042c94:	18c00717 	ldw	r3,28(r3)
 3042c98:	10c0062e 	bgeu	r2,r3,3042cb4 <Fat_FileRead+0x418>
 3042c9c:	e0fffe17 	ldw	r3,-8(fp)
 3042ca0:	e0bff417 	ldw	r2,-48(fp)
 3042ca4:	10c0032e 	bgeu	r2,r3,3042cb4 <Fat_FileRead+0x418>
 3042ca8:	e0bff117 	ldw	r2,-60(fp)
 3042cac:	1004c03a 	cmpne	r2,r2,zero
 3042cb0:	103fa41e 	bne	r2,zero,3042b44 <Fat_FileRead+0x2a8>
        }    
            
        // next cluster
        if (nReadCount < nBufferSize){
 3042cb4:	e0fffe17 	ldw	r3,-8(fp)
 3042cb8:	e0bff417 	ldw	r2,-48(fp)
 3042cbc:	10c0162e 	bgeu	r2,r3,3042d18 <Fat_FileRead+0x47c>
            NextCluster = fatNextCluster(pVol, Cluster); 
 3042cc0:	e13ffa17 	ldw	r4,-24(fp)
 3042cc4:	e17ff617 	ldw	r5,-40(fp)
 3042cc8:	30432840 	call	3043284 <fatNextCluster>
 3042ccc:	e0bff715 	stw	r2,-36(fp)
            if (NextCluster == 0){
 3042cd0:	e0bff717 	ldw	r2,-36(fp)
 3042cd4:	1004c03a 	cmpne	r2,r2,zero
 3042cd8:	1000051e 	bne	r2,zero,3042cf0 <Fat_FileRead+0x454>
                bSuccess = FALSE;
 3042cdc:	e03ff115 	stw	zero,-60(fp)
                FAT_DEBUG(("[FAT] Fat_FileRead, no next cluster\r\n"));
 3042ce0:	0100c1b4 	movhi	r4,774
 3042ce4:	2127cd04 	addi	r4,r4,-24780
 3042ce8:	30469080 	call	3046908 <myprintf>
 3042cec:	00000206 	br	3042cf8 <Fat_FileRead+0x45c>
            }else{
                Cluster = NextCluster;
 3042cf0:	e0bff717 	ldw	r2,-36(fp)
 3042cf4:	e0bff615 	stw	r2,-40(fp)
            }    
            //    
            f->ClusterSeq++; 
 3042cf8:	e0bffb17 	ldw	r2,-20(fp)
 3042cfc:	10800417 	ldw	r2,16(r2)
 3042d00:	10c00044 	addi	r3,r2,1
 3042d04:	e0bffb17 	ldw	r2,-20(fp)
 3042d08:	10c00415 	stw	r3,16(r2)
            f->Cluster = Cluster;
 3042d0c:	e0fffb17 	ldw	r3,-20(fp)
 3042d10:	e0bff617 	ldw	r2,-40(fp)
 3042d14:	18800315 	stw	r2,12(r3)
 3042d18:	e0fffe17 	ldw	r3,-8(fp)
 3042d1c:	e0bff417 	ldw	r2,-48(fp)
 3042d20:	10c0032e 	bgeu	r2,r3,3042d30 <Fat_FileRead+0x494>
 3042d24:	e0bff117 	ldw	r2,-60(fp)
 3042d28:	1004c03a 	cmpne	r2,r2,zero
 3042d2c:	103f621e 	bne	r2,zero,3042ab8 <Fat_FileRead+0x21c>
        }                    
    }
    
    if (bSuccess){
 3042d30:	e0bff117 	ldw	r2,-60(fp)
 3042d34:	1005003a 	cmpeq	r2,r2,zero
 3042d38:	1000061e 	bne	r2,zero,3042d54 <Fat_FileRead+0x4b8>
        f->SeekPos += nBufferSize;
 3042d3c:	e0bffb17 	ldw	r2,-20(fp)
 3042d40:	10c00217 	ldw	r3,8(r2)
 3042d44:	e0bffe17 	ldw	r2,-8(fp)
 3042d48:	1887883a 	add	r3,r3,r2
 3042d4c:	e0bffb17 	ldw	r2,-20(fp)
 3042d50:	10c00215 	stw	r3,8(r2)
    }        
        
    
    return bSuccess;
 3042d54:	e0bff117 	ldw	r2,-60(fp)
 3042d58:	e0bfff15 	stw	r2,-4(fp)
 3042d5c:	e0bfff17 	ldw	r2,-4(fp)
}
 3042d60:	e037883a 	mov	sp,fp
 3042d64:	dfc00117 	ldw	ra,4(sp)
 3042d68:	df000017 	ldw	fp,0(sp)
 3042d6c:	dec00204 	addi	sp,sp,8
 3042d70:	f800283a 	ret

03042d74 <Fat_FileSeek>:


bool Fat_FileSeek(FAT_FILE_HANDLE hFileHandle, const FAT_SEEK_POS SeekPos, const int nOffset){
 3042d74:	defff704 	addi	sp,sp,-36
 3042d78:	df000815 	stw	fp,32(sp)
 3042d7c:	df000804 	addi	fp,sp,32
 3042d80:	e13ffb15 	stw	r4,-20(fp)
 3042d84:	e17ffc15 	stw	r5,-16(fp)
 3042d88:	e1bffd15 	stw	r6,-12(fp)
    FAT_FILE_INFO *f = (FAT_FILE_INFO *)hFileHandle;
 3042d8c:	e0bffb17 	ldw	r2,-20(fp)
 3042d90:	e0bffa15 	stw	r2,-24(fp)
    VOLUME_INFO *pVol;
    bool bSuccess= TRUE;
 3042d94:	00800044 	movi	r2,1
 3042d98:	e0bff815 	stw	r2,-32(fp)

    if (!f || !f->Fat)
 3042d9c:	e0bffa17 	ldw	r2,-24(fp)
 3042da0:	1005003a 	cmpeq	r2,r2,zero
 3042da4:	1000041e 	bne	r2,zero,3042db8 <Fat_FileSeek+0x44>
 3042da8:	e0bffa17 	ldw	r2,-24(fp)
 3042dac:	10804f17 	ldw	r2,316(r2)
 3042db0:	1004c03a 	cmpne	r2,r2,zero
 3042db4:	1000021e 	bne	r2,zero,3042dc0 <Fat_FileSeek+0x4c>
        return FALSE;
 3042db8:	e03ffe15 	stw	zero,-8(fp)
 3042dbc:	00003106 	br	3042e84 <Fat_FileSeek+0x110>
    pVol = (VOLUME_INFO *)f->Fat;        
 3042dc0:	e0bffa17 	ldw	r2,-24(fp)
 3042dc4:	10804f17 	ldw	r2,316(r2)
 3042dc8:	e0bff915 	stw	r2,-28(fp)
    
    if (!f->IsOpened)
 3042dcc:	e0bffa17 	ldw	r2,-24(fp)
 3042dd0:	10800017 	ldw	r2,0(r2)
 3042dd4:	1004c03a 	cmpne	r2,r2,zero
 3042dd8:	1000021e 	bne	r2,zero,3042de4 <Fat_FileSeek+0x70>
        return FALSE;
 3042ddc:	e03ffe15 	stw	zero,-8(fp)
 3042de0:	00002806 	br	3042e84 <Fat_FileSeek+0x110>
        
    switch(SeekPos){
 3042de4:	e0bffc17 	ldw	r2,-16(fp)
 3042de8:	e0bfff15 	stw	r2,-4(fp)
 3042dec:	e0ffff17 	ldw	r3,-4(fp)
 3042df0:	18800060 	cmpeqi	r2,r3,1
 3042df4:	10000b1e 	bne	r2,zero,3042e24 <Fat_FileSeek+0xb0>
 3042df8:	e0ffff17 	ldw	r3,-4(fp)
 3042dfc:	18800070 	cmpltui	r2,r3,1
 3042e00:	1000041e 	bne	r2,zero,3042e14 <Fat_FileSeek+0xa0>
 3042e04:	e0ffff17 	ldw	r3,-4(fp)
 3042e08:	188000a0 	cmpeqi	r2,r3,2
 3042e0c:	10000c1e 	bne	r2,zero,3042e40 <Fat_FileSeek+0xcc>
 3042e10:	00001206 	br	3042e5c <Fat_FileSeek+0xe8>
        case FILE_SEEK_BEGIN: 
            f->SeekPos = nOffset; 
 3042e14:	e0fffd17 	ldw	r3,-12(fp)
 3042e18:	e0bffa17 	ldw	r2,-24(fp)
 3042e1c:	10c00215 	stw	r3,8(r2)
            break;
 3042e20:	00000f06 	br	3042e60 <Fat_FileSeek+0xec>
        case FILE_SEEK_CURRENT: 
            f->SeekPos += nOffset; 
 3042e24:	e0bffa17 	ldw	r2,-24(fp)
 3042e28:	10c00217 	ldw	r3,8(r2)
 3042e2c:	e0bffd17 	ldw	r2,-12(fp)
 3042e30:	1887883a 	add	r3,r3,r2
 3042e34:	e0bffa17 	ldw	r2,-24(fp)
 3042e38:	10c00215 	stw	r3,8(r2)
            break;
 3042e3c:	00000806 	br	3042e60 <Fat_FileSeek+0xec>
        case FILE_SEEK_END: 
            f->SeekPos = f->Directory.FileSize+nOffset; 
 3042e40:	e0bffa17 	ldw	r2,-24(fp)
 3042e44:	10c04e17 	ldw	r3,312(r2)
 3042e48:	e0bffd17 	ldw	r2,-12(fp)
 3042e4c:	1887883a 	add	r3,r3,r2
 3042e50:	e0bffa17 	ldw	r2,-24(fp)
 3042e54:	10c00215 	stw	r3,8(r2)
            break;
 3042e58:	00000106 	br	3042e60 <Fat_FileSeek+0xec>
        default:
            bSuccess = FALSE;
 3042e5c:	e03ff815 	stw	zero,-32(fp)
            break;    
              
    }
    f->Cluster = f->Directory.FirstLogicalCluster;
 3042e60:	e0bffa17 	ldw	r2,-24(fp)
 3042e64:	10804d8b 	ldhu	r2,310(r2)
 3042e68:	10ffffcc 	andi	r3,r2,65535
 3042e6c:	e0bffa17 	ldw	r2,-24(fp)
 3042e70:	10c00315 	stw	r3,12(r2)
    f->ClusterSeq = 0;
 3042e74:	e0bffa17 	ldw	r2,-24(fp)
 3042e78:	10000415 	stw	zero,16(r2)
    
    return bSuccess;
 3042e7c:	e0bff817 	ldw	r2,-32(fp)
 3042e80:	e0bffe15 	stw	r2,-8(fp)
 3042e84:	e0bffe17 	ldw	r2,-8(fp)
    
}
 3042e88:	e037883a 	mov	sp,fp
 3042e8c:	df000017 	ldw	fp,0(sp)
 3042e90:	dec00104 	addi	sp,sp,4
 3042e94:	f800283a 	ret

03042e98 <Fat_FileClose>:

void Fat_FileClose(FAT_FILE_HANDLE hFileHandle){
 3042e98:	defffc04 	addi	sp,sp,-16
 3042e9c:	dfc00315 	stw	ra,12(sp)
 3042ea0:	df000215 	stw	fp,8(sp)
 3042ea4:	df000204 	addi	fp,sp,8
 3042ea8:	e13fff15 	stw	r4,-4(fp)
    FAT_FILE_INFO *f = (FAT_FILE_INFO *)hFileHandle;
 3042eac:	e0bfff17 	ldw	r2,-4(fp)
 3042eb0:	e0bffe15 	stw	r2,-8(fp)
    if (!f)
 3042eb4:	e0bffe17 	ldw	r2,-8(fp)
 3042eb8:	1005003a 	cmpeq	r2,r2,zero
 3042ebc:	1000021e 	bne	r2,zero,3042ec8 <Fat_FileClose+0x30>
        return;
        
    free(f);        
 3042ec0:	e13ffe17 	ldw	r4,-8(fp)
 3042ec4:	304b3f40 	call	304b3f4 <free>
}
 3042ec8:	e037883a 	mov	sp,fp
 3042ecc:	dfc00117 	ldw	ra,4(sp)
 3042ed0:	df000017 	ldw	fp,0(sp)
 3042ed4:	dec00204 	addi	sp,sp,8
 3042ed8:	f800283a 	ret

03042edc <Fat_SpeedTest>:



float Fat_SpeedTest(FAT_HANDLE hFat, alt_u32 TestDurInMs){
 3042edc:	deff7204 	addi	sp,sp,-568
 3042ee0:	dfc08d15 	stw	ra,564(sp)
 3042ee4:	df008c15 	stw	fp,560(sp)
 3042ee8:	dc008b15 	stw	r16,556(sp)
 3042eec:	df008b04 	addi	fp,sp,556
 3042ef0:	e13ffd15 	stw	r4,-12(fp)
 3042ef4:	e17ffe15 	stw	r5,-8(fp)
    bool bSuccess = TRUE;
 3042ef8:	00800044 	movi	r2,1
 3042efc:	e0bf7c15 	stw	r2,-528(fp)
    alt_u32 time_start, time_finish, time_elapsed, TotalReadBytes=0;
 3042f00:	e03f7815 	stw	zero,-544(fp)
    int nSecter = 0;
 3042f04:	e03f7715 	stw	zero,-548(fp)
    float fMegaBytePerSec = 0;
 3042f08:	e03f7615 	stw	zero,-552(fp)
    char szBlock[512];
    VOLUME_INFO *pVol = (VOLUME_INFO *)hFat;
 3042f0c:	e0bffd17 	ldw	r2,-12(fp)
 3042f10:	e0bf7515 	stw	r2,-556(fp)
    if (!pVol)
 3042f14:	e0bf7517 	ldw	r2,-556(fp)
 3042f18:	1004c03a 	cmpne	r2,r2,zero
 3042f1c:	1000031e 	bne	r2,zero,3042f2c <Fat_SpeedTest+0x50>
        return 0;
 3042f20:	0005883a 	mov	r2,zero
 3042f24:	e0bfff15 	stw	r2,-4(fp)
 3042f28:	00006b06 	br	30430d8 <Fat_SpeedTest+0x1fc>
 */

static ALT_INLINE alt_u32 ALT_ALWAYS_INLINE alt_nticks (void)
{
  return _alt_nticks;
 3042f2c:	0080c1b4 	movhi	r2,774
 3042f30:	10b29c04 	addi	r2,r2,-13712
 3042f34:	10800017 	ldw	r2,0(r2)
    time_start = alt_nticks();
 3042f38:	e0bf7b15 	stw	r2,-532(fp)
 */

static ALT_INLINE alt_u32 ALT_ALWAYS_INLINE alt_nticks (void)
{
  return _alt_nticks;
 3042f3c:	0080c1b4 	movhi	r2,774
 3042f40:	10b29c04 	addi	r2,r2,-13712
 3042f44:	10800017 	ldw	r2,0(r2)
 3042f48:	1021883a 	mov	r16,r2
    time_finish = alt_nticks() + TestDurInMs * 1000 / alt_ticks_per_second();
 3042f4c:	e0bffe17 	ldw	r2,-8(fp)
 3042f50:	1100fa24 	muli	r4,r2,1000
 */

static ALT_INLINE alt_u32 ALT_ALWAYS_INLINE alt_ticks_per_second (void)
{
  return _alt_tick_rate;
 3042f54:	0080c1b4 	movhi	r2,774
 3042f58:	10b29b04 	addi	r2,r2,-13716
 3042f5c:	10800017 	ldw	r2,0(r2)
 3042f60:	100b883a 	mov	r5,r2
 3042f64:	30497ec0 	call	30497ec <__udivsi3>
 3042f68:	8085883a 	add	r2,r16,r2
 3042f6c:	e0bf7a15 	stw	r2,-536(fp)
    while(alt_nticks() < time_finish && bSuccess){
 3042f70:	00000e06 	br	3042fac <Fat_SpeedTest+0xd0>
        bSuccess = pVol->ReadBlock512(pVol->DiskHandle, nSecter, szBlock);
 3042f74:	e0bf7517 	ldw	r2,-556(fp)
 3042f78:	10c00117 	ldw	r3,4(r2)
 3042f7c:	e0bf7517 	ldw	r2,-556(fp)
 3042f80:	11000017 	ldw	r4,0(r2)
 3042f84:	e17f7717 	ldw	r5,-548(fp)
 3042f88:	e1bf7d04 	addi	r6,fp,-524
 3042f8c:	183ee83a 	callr	r3
 3042f90:	e0bf7c15 	stw	r2,-528(fp)
        nSecter++;
 3042f94:	e0bf7717 	ldw	r2,-548(fp)
 3042f98:	10800044 	addi	r2,r2,1
 3042f9c:	e0bf7715 	stw	r2,-548(fp)
        TotalReadBytes += sizeof(szBlock);
 3042fa0:	e0bf7817 	ldw	r2,-544(fp)
 3042fa4:	10808004 	addi	r2,r2,512
 3042fa8:	e0bf7815 	stw	r2,-544(fp)
 */

static ALT_INLINE alt_u32 ALT_ALWAYS_INLINE alt_nticks (void)
{
  return _alt_nticks;
 3042fac:	0080c1b4 	movhi	r2,774
 3042fb0:	10b29c04 	addi	r2,r2,-13712
 3042fb4:	10800017 	ldw	r2,0(r2)
 3042fb8:	1007883a 	mov	r3,r2
 3042fbc:	e0bf7a17 	ldw	r2,-536(fp)
 3042fc0:	1880032e 	bgeu	r3,r2,3042fd0 <Fat_SpeedTest+0xf4>
 3042fc4:	e0bf7c17 	ldw	r2,-528(fp)
 3042fc8:	1004c03a 	cmpne	r2,r2,zero
 3042fcc:	103fe91e 	bne	r2,zero,3042f74 <Fat_SpeedTest+0x98>
        
    }        
    if (bSuccess){
 3042fd0:	e0bf7c17 	ldw	r2,-528(fp)
 3042fd4:	1005003a 	cmpeq	r2,r2,zero
 3042fd8:	1000341e 	bne	r2,zero,30430ac <Fat_SpeedTest+0x1d0>
 */

static ALT_INLINE alt_u32 ALT_ALWAYS_INLINE alt_nticks (void)
{
  return _alt_nticks;
 3042fdc:	0080c1b4 	movhi	r2,774
 3042fe0:	10b29c04 	addi	r2,r2,-13712
 3042fe4:	10800017 	ldw	r2,0(r2)
 3042fe8:	1007883a 	mov	r3,r2
        time_elapsed = alt_nticks() - time_start;
 3042fec:	e0bf7b17 	ldw	r2,-532(fp)
 3042ff0:	1885c83a 	sub	r2,r3,r2
 3042ff4:	e0bf7915 	stw	r2,-540(fp)
        fMegaBytePerSec = (float)TotalReadBytes * (float)alt_ticks_per_second() / (float)time_elapsed / 1024.0 / 1024.0;
 3042ff8:	e13f7817 	ldw	r4,-544(fp)
 3042ffc:	30492e80 	call	30492e8 <__floatunsisf>
 3043000:	1021883a 	mov	r16,r2
 */

static ALT_INLINE alt_u32 ALT_ALWAYS_INLINE alt_ticks_per_second (void)
{
  return _alt_tick_rate;
 3043004:	0080c1b4 	movhi	r2,774
 3043008:	10b29b04 	addi	r2,r2,-13716
 304300c:	10800017 	ldw	r2,0(r2)
 3043010:	1009883a 	mov	r4,r2
 3043014:	30492e80 	call	30492e8 <__floatunsisf>
 3043018:	8009883a 	mov	r4,r16
 304301c:	100b883a 	mov	r5,r2
 3043020:	3048f3c0 	call	3048f3c <__mulsf3>
 3043024:	1021883a 	mov	r16,r2
 3043028:	e13f7917 	ldw	r4,-540(fp)
 304302c:	30492e80 	call	30492e8 <__floatunsisf>
 3043030:	8009883a 	mov	r4,r16
 3043034:	100b883a 	mov	r5,r2
 3043038:	304911c0 	call	304911c <__divsf3>
 304303c:	1009883a 	mov	r4,r2
 3043040:	30492940 	call	3049294 <__extendsfdf2>
 3043044:	100b883a 	mov	r5,r2
 3043048:	180d883a 	mov	r6,r3
 304304c:	2809883a 	mov	r4,r5
 3043050:	300b883a 	mov	r5,r6
 3043054:	000d883a 	mov	r6,zero
 3043058:	01d02434 	movhi	r7,16528
 304305c:	39c00004 	addi	r7,r7,0
 3043060:	30493a80 	call	30493a8 <__divdf3>
 3043064:	1009883a 	mov	r4,r2
 3043068:	180b883a 	mov	r5,r3
 304306c:	2005883a 	mov	r2,r4
 3043070:	2807883a 	mov	r3,r5
 3043074:	1009883a 	mov	r4,r2
 3043078:	180b883a 	mov	r5,r3
 304307c:	000d883a 	mov	r6,zero
 3043080:	01d02434 	movhi	r7,16528
 3043084:	39c00004 	addi	r7,r7,0
 3043088:	30493a80 	call	30493a8 <__divdf3>
 304308c:	1009883a 	mov	r4,r2
 3043090:	180b883a 	mov	r5,r3
 3043094:	2005883a 	mov	r2,r4
 3043098:	2807883a 	mov	r3,r5
 304309c:	1009883a 	mov	r4,r2
 30430a0:	180b883a 	mov	r5,r3
 30430a4:	304963c0 	call	304963c <__truncdfsf2>
 30430a8:	e0bf7615 	stw	r2,-552(fp)
    } 
    
    printf("\n--------speed:%f---------\n",fMegaBytePerSec);       
 30430ac:	e13f7617 	ldw	r4,-552(fp)
 30430b0:	30492940 	call	3049294 <__extendsfdf2>
 30430b4:	100d883a 	mov	r6,r2
 30430b8:	180f883a 	mov	r7,r3
 30430bc:	0100c1b4 	movhi	r4,774
 30430c0:	2127d704 	addi	r4,r4,-24740
 30430c4:	300b883a 	mov	r5,r6
 30430c8:	380d883a 	mov	r6,r7
 30430cc:	304bd0c0 	call	304bd0c <printf>
    return fMegaBytePerSec;
 30430d0:	e0ff7617 	ldw	r3,-552(fp)
 30430d4:	e0ffff15 	stw	r3,-4(fp)
 30430d8:	e0ffff17 	ldw	r3,-4(fp)
 30430dc:	1805883a 	mov	r2,r3
    
   
}
 30430e0:	e037883a 	mov	sp,fp
 30430e4:	dfc00217 	ldw	ra,8(sp)
 30430e8:	df000117 	ldw	fp,4(sp)
 30430ec:	dc000017 	ldw	r16,0(sp)
 30430f0:	dec00304 	addi	sp,sp,12
 30430f4:	f800283a 	ret

030430f8 <fat16ClusterType>:




CLUSTER_TYPE fat16ClusterType(alt_u32 Fat){
 30430f8:	defffd04 	addi	sp,sp,-12
 30430fc:	df000215 	stw	fp,8(sp)
 3043100:	df000204 	addi	fp,sp,8
 3043104:	e13fff15 	stw	r4,-4(fp)
    CLUSTER_TYPE Type;
    Fat = Fat & 0xFFFF; // 16 bits
 3043108:	e0bfff17 	ldw	r2,-4(fp)
 304310c:	10bfffcc 	andi	r2,r2,65535
 3043110:	e0bfff15 	stw	r2,-4(fp)
    
    if (Fat > 0 && Fat < 0xFFF0)
 3043114:	e0bfff17 	ldw	r2,-4(fp)
 3043118:	1005003a 	cmpeq	r2,r2,zero
 304311c:	1000061e 	bne	r2,zero,3043138 <fat16ClusterType+0x40>
 3043120:	e0ffff17 	ldw	r3,-4(fp)
 3043124:	00bffbd4 	movui	r2,65519
 3043128:	10c00336 	bltu	r2,r3,3043138 <fat16ClusterType+0x40>
        Type = CLUSTER_NEXT_INFILE;
 304312c:	00800104 	movi	r2,4
 3043130:	e0bffe15 	stw	r2,-8(fp)
 3043134:	00001906 	br	304319c <fat16ClusterType+0xa4>
    else if (Fat >= 0xFFF8) // && Fat <= (unsigned short)0xFFFF)
 3043138:	e0ffff17 	ldw	r3,-4(fp)
 304313c:	00bffdd4 	movui	r2,65527
 3043140:	10c0032e 	bgeu	r2,r3,3043150 <fat16ClusterType+0x58>
        Type = CLUSTER_LAST_INFILE;
 3043144:	008000c4 	movi	r2,3
 3043148:	e0bffe15 	stw	r2,-8(fp)
 304314c:	00001306 	br	304319c <fat16ClusterType+0xa4>
    else if (Fat == (alt_u16)0x00)
 3043150:	e0bfff17 	ldw	r2,-4(fp)
 3043154:	1004c03a 	cmpne	r2,r2,zero
 3043158:	1000021e 	bne	r2,zero,3043164 <fat16ClusterType+0x6c>
        Type = CLUSTER_UNUSED;
 304315c:	e03ffe15 	stw	zero,-8(fp)
 3043160:	00000e06 	br	304319c <fat16ClusterType+0xa4>
    else if (Fat >= 0xFFF0 && Fat <= 0xFFF6)
 3043164:	e0ffff17 	ldw	r3,-4(fp)
 3043168:	00bffbd4 	movui	r2,65519
 304316c:	10c0062e 	bgeu	r2,r3,3043188 <fat16ClusterType+0x90>
 3043170:	e0ffff17 	ldw	r3,-4(fp)
 3043174:	00bffd94 	movui	r2,65526
 3043178:	10c00336 	bltu	r2,r3,3043188 <fat16ClusterType+0x90>
        Type = CLUSTER_RESERVED;
 304317c:	00800044 	movi	r2,1
 3043180:	e0bffe15 	stw	r2,-8(fp)
 3043184:	00000506 	br	304319c <fat16ClusterType+0xa4>
    else if (Fat == 0xFFF7)
 3043188:	e0ffff17 	ldw	r3,-4(fp)
 304318c:	00bffdd4 	movui	r2,65527
 3043190:	1880021e 	bne	r3,r2,304319c <fat16ClusterType+0xa4>
        Type = CLUSTER_BAD;
 3043194:	00800084 	movi	r2,2
 3043198:	e0bffe15 	stw	r2,-8(fp)
        
    return Type;        
 304319c:	e0bffe17 	ldw	r2,-8(fp)
         
}
 30431a0:	e037883a 	mov	sp,fp
 30431a4:	df000017 	ldw	fp,0(sp)
 30431a8:	dec00104 	addi	sp,sp,4
 30431ac:	f800283a 	ret

030431b0 <fat32ClusterType>:

CLUSTER_TYPE fat32ClusterType(alt_u32 Fat){
 30431b0:	defffd04 	addi	sp,sp,-12
 30431b4:	df000215 	stw	fp,8(sp)
 30431b8:	df000204 	addi	fp,sp,8
 30431bc:	e13fff15 	stw	r4,-4(fp)
    CLUSTER_TYPE Type;
    Fat = Fat & 0xFFFFFFF; // 28 bits
 30431c0:	e0ffff17 	ldw	r3,-4(fp)
 30431c4:	00840034 	movhi	r2,4096
 30431c8:	10bfffc4 	addi	r2,r2,-1
 30431cc:	1884703a 	and	r2,r3,r2
 30431d0:	e0bfff15 	stw	r2,-4(fp)
    
    if (Fat > 0 && Fat < 0xFFFFFF0)
 30431d4:	e0bfff17 	ldw	r2,-4(fp)
 30431d8:	1005003a 	cmpeq	r2,r2,zero
 30431dc:	1000071e 	bne	r2,zero,30431fc <fat32ClusterType+0x4c>
 30431e0:	e0ffff17 	ldw	r3,-4(fp)
 30431e4:	00840034 	movhi	r2,4096
 30431e8:	10bffbc4 	addi	r2,r2,-17
 30431ec:	10c00336 	bltu	r2,r3,30431fc <fat32ClusterType+0x4c>
        Type = CLUSTER_NEXT_INFILE;
 30431f0:	00800104 	movi	r2,4
 30431f4:	e0bffe15 	stw	r2,-8(fp)
 30431f8:	00001d06 	br	3043270 <fat32ClusterType+0xc0>
    else if (Fat >= 0xFFFFFF8) // && Fat <= (unsigned short)0xFFFF)
 30431fc:	e0ffff17 	ldw	r3,-4(fp)
 3043200:	00840034 	movhi	r2,4096
 3043204:	10bffdc4 	addi	r2,r2,-9
 3043208:	10c0032e 	bgeu	r2,r3,3043218 <fat32ClusterType+0x68>
        Type = CLUSTER_LAST_INFILE;
 304320c:	008000c4 	movi	r2,3
 3043210:	e0bffe15 	stw	r2,-8(fp)
 3043214:	00001606 	br	3043270 <fat32ClusterType+0xc0>
    else if (Fat == (alt_u32)0x00)
 3043218:	e0bfff17 	ldw	r2,-4(fp)
 304321c:	1004c03a 	cmpne	r2,r2,zero
 3043220:	1000021e 	bne	r2,zero,304322c <fat32ClusterType+0x7c>
        Type = CLUSTER_UNUSED;
 3043224:	e03ffe15 	stw	zero,-8(fp)
 3043228:	00001106 	br	3043270 <fat32ClusterType+0xc0>
    else if (Fat >= 0xFFFFFF0 && Fat <= 0xFFFFFF6)
 304322c:	e0ffff17 	ldw	r3,-4(fp)
 3043230:	00840034 	movhi	r2,4096
 3043234:	10bffbc4 	addi	r2,r2,-17
 3043238:	10c0072e 	bgeu	r2,r3,3043258 <fat32ClusterType+0xa8>
 304323c:	e0ffff17 	ldw	r3,-4(fp)
 3043240:	00840034 	movhi	r2,4096
 3043244:	10bffd84 	addi	r2,r2,-10
 3043248:	10c00336 	bltu	r2,r3,3043258 <fat32ClusterType+0xa8>
        Type = CLUSTER_RESERVED;
 304324c:	00800044 	movi	r2,1
 3043250:	e0bffe15 	stw	r2,-8(fp)
 3043254:	00000606 	br	3043270 <fat32ClusterType+0xc0>
    else if (Fat == 0xFFFFFF7)
 3043258:	e0ffff17 	ldw	r3,-4(fp)
 304325c:	00840034 	movhi	r2,4096
 3043260:	10bffdc4 	addi	r2,r2,-9
 3043264:	1880021e 	bne	r3,r2,3043270 <fat32ClusterType+0xc0>
        Type = CLUSTER_BAD;
 3043268:	00800084 	movi	r2,2
 304326c:	e0bffe15 	stw	r2,-8(fp)
        
    return Type;        
 3043270:	e0bffe17 	ldw	r2,-8(fp)
         
}
 3043274:	e037883a 	mov	sp,fp
 3043278:	df000017 	ldw	fp,0(sp)
 304327c:	dec00104 	addi	sp,sp,4
 3043280:	f800283a 	ret

03043284 <fatNextCluster>:

alt_u32 fatNextCluster(VOLUME_INFO *pVol, alt_u32 ThisCluster){
 3043284:	defff504 	addi	sp,sp,-44
 3043288:	dfc00a15 	stw	ra,40(sp)
 304328c:	df000915 	stw	fp,36(sp)
 3043290:	dc000815 	stw	r16,32(sp)
 3043294:	df000804 	addi	fp,sp,32
 3043298:	e13ffd15 	stw	r4,-12(fp)
 304329c:	e17ffe15 	stw	r5,-8(fp)
    CLUSTER_TYPE ClusterType;
    alt_u32 NextCluster;
#ifdef FAT_READONLY    
//    const int nFatEntrySize = 2; // 2 byte for FAT16

//    NextCluster =  *(unsigned short *)(gVolumeInfo.szFatTable + ThisCluster*nFatEntrySize); 
    NextCluster =  *(unsigned short *)(pVol->szFatTable + (ThisCluster << 1));
     
    ClusterType = fatClusterType(pVol, NextCluster);
    if (ClusterType != CLUSTER_NEXT_INFILE && ClusterType != CLUSTER_LAST_INFILE){
        NextCluster = 0;  // invalid cluster
    }        
#else
    alt_32 nFatEntryPerSecter;
    const alt_32 nFatEntrySize = (pVol->Partition_Type == PARTITION_FAT32)?4:2; // 2 byte for FAT16
 30432a0:	e0bffd17 	ldw	r2,-12(fp)
 30432a4:	10800317 	ldw	r2,12(r2)
 30432a8:	108002d8 	cmpnei	r2,r2,11
 30432ac:	1000031e 	bne	r2,zero,30432bc <fatNextCluster+0x38>
 30432b0:	00800104 	movi	r2,4
 30432b4:	e0bfff15 	stw	r2,-4(fp)
 30432b8:	00000206 	br	30432c4 <fatNextCluster+0x40>
 30432bc:	00800084 	movi	r2,2
 30432c0:	e0bfff15 	stw	r2,-4(fp)
 30432c4:	e0bfff17 	ldw	r2,-4(fp)
 30432c8:	e0bff915 	stw	r2,-28(fp)
    alt_u32 Secter;
   // char szBlock[512];
    nFatEntryPerSecter = pVol->BPB_BytsPerSec/nFatEntrySize; 
 30432cc:	e0bffd17 	ldw	r2,-12(fp)
 30432d0:	11000617 	ldw	r4,24(r2)
 30432d4:	e17ff917 	ldw	r5,-28(fp)
 30432d8:	30497ec0 	call	30497ec <__udivsi3>
 30432dc:	e0bffa15 	stw	r2,-24(fp)
    Secter = pVol->FatEntrySecter + (ThisCluster*nFatEntrySize)/pVol->BPB_BytsPerSec;
 30432e0:	e0bffd17 	ldw	r2,-12(fp)
 30432e4:	14000d17 	ldw	r16,52(r2)
 30432e8:	e0fff917 	ldw	r3,-28(fp)
 30432ec:	e0bffe17 	ldw	r2,-8(fp)
 30432f0:	1889383a 	mul	r4,r3,r2
 30432f4:	e0bffd17 	ldw	r2,-12(fp)
 30432f8:	11400617 	ldw	r5,24(r2)
 30432fc:	30497ec0 	call	30497ec <__udivsi3>
 3043300:	8085883a 	add	r2,r16,r2
 3043304:	e0bff815 	stw	r2,-32(fp)
    //if (pVol->ReadBlock512(pVol->DiskHandle, Secter,szBlock)){
    if (fatReadSecter(pVol, Secter)){
 3043308:	e13ffd17 	ldw	r4,-12(fp)
 304330c:	e17ff817 	ldw	r5,-32(fp)
 3043310:	30441240 	call	3044124 <fatReadSecter>
 3043314:	1005003a 	cmpeq	r2,r2,zero
 3043318:	1000291e 	bne	r2,zero,30433c0 <fatNextCluster+0x13c>
        if (pVol->Partition_Type == PARTITION_FAT32){
 304331c:	e0bffd17 	ldw	r2,-12(fp)
 3043320:	10800317 	ldw	r2,12(r2)
 3043324:	108002d8 	cmpnei	r2,r2,11
 3043328:	10000f1e 	bne	r2,zero,3043368 <fatNextCluster+0xe4>
            NextCluster = *(alt_u32*)(pVol->Secter_Data + (ThisCluster%nFatEntryPerSecter)*nFatEntrySize); 
 304332c:	e0bffd17 	ldw	r2,-12(fp)
 3043330:	14001004 	addi	r16,r2,64
 3043334:	e17ffa17 	ldw	r5,-24(fp)
 3043338:	e13ffe17 	ldw	r4,-8(fp)
 304333c:	30497f40 	call	30497f4 <__umodsi3>
 3043340:	1007883a 	mov	r3,r2
 3043344:	e0bff917 	ldw	r2,-28(fp)
 3043348:	1885383a 	mul	r2,r3,r2
 304334c:	8085883a 	add	r2,r16,r2
 3043350:	10800017 	ldw	r2,0(r2)
 3043354:	e0bffb15 	stw	r2,-20(fp)
            ClusterType = fat32ClusterType(NextCluster);
 3043358:	e13ffb17 	ldw	r4,-20(fp)
 304335c:	30431b00 	call	30431b0 <fat32ClusterType>
 3043360:	e0bffc15 	stw	r2,-16(fp)
 3043364:	00000f06 	br	30433a4 <fatNextCluster+0x120>
        }else{
            NextCluster = *(alt_u16 *)(pVol->Secter_Data + (ThisCluster%nFatEntryPerSecter)*nFatEntrySize); 
 3043368:	e0bffd17 	ldw	r2,-12(fp)
 304336c:	14001004 	addi	r16,r2,64
 3043370:	e17ffa17 	ldw	r5,-24(fp)
 3043374:	e13ffe17 	ldw	r4,-8(fp)
 3043378:	30497f40 	call	30497f4 <__umodsi3>
 304337c:	1007883a 	mov	r3,r2
 3043380:	e0bff917 	ldw	r2,-28(fp)
 3043384:	1885383a 	mul	r2,r3,r2
 3043388:	8085883a 	add	r2,r16,r2
 304338c:	1080000b 	ldhu	r2,0(r2)
 3043390:	10bfffcc 	andi	r2,r2,65535
 3043394:	e0bffb15 	stw	r2,-20(fp)
            ClusterType = fat16ClusterType(NextCluster);
 3043398:	e13ffb17 	ldw	r4,-20(fp)
 304339c:	30430f80 	call	30430f8 <fat16ClusterType>
 30433a0:	e0bffc15 	stw	r2,-16(fp)
        }    
        if (ClusterType != CLUSTER_NEXT_INFILE && ClusterType != CLUSTER_LAST_INFILE)
 30433a4:	e0bffc17 	ldw	r2,-16(fp)
 30433a8:	10800120 	cmpeqi	r2,r2,4
 30433ac:	1000041e 	bne	r2,zero,30433c0 <fatNextCluster+0x13c>
 30433b0:	e0bffc17 	ldw	r2,-16(fp)
 30433b4:	108000e0 	cmpeqi	r2,r2,3
 30433b8:	1000011e 	bne	r2,zero,30433c0 <fatNextCluster+0x13c>
            NextCluster = 0;  // invalid cluster
 30433bc:	e03ffb15 	stw	zero,-20(fp)
    }                
    
    
    return NextCluster;
 30433c0:	e0bffb17 	ldw	r2,-20(fp)

#endif    
    
    return NextCluster;
}
 30433c4:	e037883a 	mov	sp,fp
 30433c8:	dfc00217 	ldw	ra,8(sp)
 30433cc:	df000117 	ldw	fp,4(sp)
 30433d0:	dc000017 	ldw	r16,0(sp)
 30433d4:	dec00304 	addi	sp,sp,12
 30433d8:	f800283a 	ret

030433dc <fatFindUnusedCluster>:

alt_u32 fatFindUnusedCluster(VOLUME_INFO *pVol){
 30433dc:	defff204 	addi	sp,sp,-56
 30433e0:	dfc00d15 	stw	ra,52(sp)
 30433e4:	df000c15 	stw	fp,48(sp)
 30433e8:	dc000b15 	stw	r16,44(sp)
 30433ec:	df000b04 	addi	fp,sp,44
 30433f0:	e13ffe15 	stw	r4,-8(fp)
    CLUSTER_TYPE ClusterType;
    alt_u32 UnusedCluster=-1, ThisCluster = 2, ClusterEntryValue;
 30433f4:	00bfffc4 	movi	r2,-1
 30433f8:	e0bffc15 	stw	r2,-16(fp)
 30433fc:	00800084 	movi	r2,2
 3043400:	e0bffb15 	stw	r2,-20(fp)
    void *pFatEntry;

    const alt_32 nFatEntrySize = (pVol->Partition_Type == PARTITION_FAT32)?4:2; // 2 byte for FAT16
 3043404:	e0bffe17 	ldw	r2,-8(fp)
 3043408:	10800317 	ldw	r2,12(r2)
 304340c:	108002d8 	cmpnei	r2,r2,11
 3043410:	1000031e 	bne	r2,zero,3043420 <fatFindUnusedCluster+0x44>
 3043414:	00800104 	movi	r2,4
 3043418:	e0bfff15 	stw	r2,-4(fp)
 304341c:	00000206 	br	3043428 <fatFindUnusedCluster+0x4c>
 3043420:	00800084 	movi	r2,2
 3043424:	e0bfff15 	stw	r2,-4(fp)
 3043428:	e0bfff17 	ldw	r2,-4(fp)
 304342c:	e0bff815 	stw	r2,-32(fp)
    const alt_32 nFatEntryPerSecter = pVol->BPB_BytsPerSec/nFatEntrySize;
 3043430:	e0bffe17 	ldw	r2,-8(fp)
 3043434:	11000617 	ldw	r4,24(r2)
 3043438:	e17ff817 	ldw	r5,-32(fp)
 304343c:	30497ec0 	call	30497ec <__udivsi3>
 3043440:	e0bff715 	stw	r2,-36(fp)
    alt_u32 Secter;
    bool bDone = FALSE;
 3043444:	e03ff515 	stw	zero,-44(fp)

    while(!bDone){     
 3043448:	00003806 	br	304352c <fatFindUnusedCluster+0x150>
        Secter = pVol->FatEntrySecter + (ThisCluster*nFatEntrySize)/pVol->BPB_BytsPerSec;
 304344c:	e0bffe17 	ldw	r2,-8(fp)
 3043450:	14000d17 	ldw	r16,52(r2)
 3043454:	e0fff817 	ldw	r3,-32(fp)
 3043458:	e0bffb17 	ldw	r2,-20(fp)
 304345c:	1889383a 	mul	r4,r3,r2
 3043460:	e0bffe17 	ldw	r2,-8(fp)
 3043464:	11400617 	ldw	r5,24(r2)
 3043468:	30497ec0 	call	30497ec <__udivsi3>
 304346c:	8085883a 	add	r2,r16,r2
 3043470:	e0bff615 	stw	r2,-40(fp)
        if (fatReadSecter(pVol, Secter)){
 3043474:	e13ffe17 	ldw	r4,-8(fp)
 3043478:	e17ff617 	ldw	r5,-40(fp)
 304347c:	30441240 	call	3044124 <fatReadSecter>
 3043480:	1005003a 	cmpeq	r2,r2,zero
 3043484:	1000241e 	bne	r2,zero,3043518 <fatFindUnusedCluster+0x13c>
            pFatEntry = (pVol->Secter_Data + (ThisCluster%nFatEntryPerSecter)*nFatEntrySize);
 3043488:	e0bffe17 	ldw	r2,-8(fp)
 304348c:	14001004 	addi	r16,r2,64
 3043490:	e17ff717 	ldw	r5,-36(fp)
 3043494:	e13ffb17 	ldw	r4,-20(fp)
 3043498:	30497f40 	call	30497f4 <__umodsi3>
 304349c:	1007883a 	mov	r3,r2
 30434a0:	e0bff817 	ldw	r2,-32(fp)
 30434a4:	1885383a 	mul	r2,r3,r2
 30434a8:	8085883a 	add	r2,r16,r2
 30434ac:	e0bff915 	stw	r2,-28(fp)
            if (pVol->Partition_Type == PARTITION_FAT32){
 30434b0:	e0bffe17 	ldw	r2,-8(fp)
 30434b4:	10800317 	ldw	r2,12(r2)
 30434b8:	108002d8 	cmpnei	r2,r2,11
 30434bc:	1000071e 	bne	r2,zero,30434dc <fatFindUnusedCluster+0x100>
                ClusterEntryValue = *(alt_u32*)pFatEntry; 
 30434c0:	e0bff917 	ldw	r2,-28(fp)
 30434c4:	10800017 	ldw	r2,0(r2)
 30434c8:	e0bffa15 	stw	r2,-24(fp)
                ClusterType = fat32ClusterType(ClusterEntryValue);
 30434cc:	e13ffa17 	ldw	r4,-24(fp)
 30434d0:	30431b00 	call	30431b0 <fat32ClusterType>
 30434d4:	e0bffd15 	stw	r2,-12(fp)
 30434d8:	00000706 	br	30434f8 <fatFindUnusedCluster+0x11c>
            }else{
                ClusterEntryValue = *(alt_u16 *)pFatEntry; 
 30434dc:	e0bff917 	ldw	r2,-28(fp)
 30434e0:	1080000b 	ldhu	r2,0(r2)
 30434e4:	10bfffcc 	andi	r2,r2,65535
 30434e8:	e0bffa15 	stw	r2,-24(fp)
                ClusterType = fat16ClusterType(ClusterEntryValue);
 30434ec:	e13ffa17 	ldw	r4,-24(fp)
 30434f0:	30430f80 	call	30430f8 <fat16ClusterType>
 30434f4:	e0bffd15 	stw	r2,-12(fp)
            }    
            if (ClusterType == CLUSTER_UNUSED){
 30434f8:	e0bffd17 	ldw	r2,-12(fp)
 30434fc:	1004c03a 	cmpne	r2,r2,zero
 3043500:	1000071e 	bne	r2,zero,3043520 <fatFindUnusedCluster+0x144>
                UnusedCluster = ThisCluster;  // invalid cluster
 3043504:	e0bffb17 	ldw	r2,-20(fp)
 3043508:	e0bffc15 	stw	r2,-16(fp)
                bDone = TRUE;
 304350c:	00800044 	movi	r2,1
 3043510:	e0bff515 	stw	r2,-44(fp)
 3043514:	00000206 	br	3043520 <fatFindUnusedCluster+0x144>
            }    
        }else{
            bDone = TRUE;
 3043518:	00800044 	movi	r2,1
 304351c:	e0bff515 	stw	r2,-44(fp)
        }     
        ThisCluster++;           
 3043520:	e0bffb17 	ldw	r2,-20(fp)
 3043524:	10800044 	addi	r2,r2,1
 3043528:	e0bffb15 	stw	r2,-20(fp)
 304352c:	e0bff517 	ldw	r2,-44(fp)
 3043530:	1005003a 	cmpeq	r2,r2,zero
 3043534:	103fc51e 	bne	r2,zero,304344c <fatFindUnusedCluster+0x70>
    }                
    
    return UnusedCluster;
 3043538:	e0bffc17 	ldw	r2,-16(fp)

}
 304353c:	e037883a 	mov	sp,fp
 3043540:	dfc00217 	ldw	ra,8(sp)
 3043544:	df000117 	ldw	fp,4(sp)
 3043548:	dc000017 	ldw	r16,0(sp)
 304354c:	dec00304 	addi	sp,sp,12
 3043550:	f800283a 	ret

03043554 <fatDelClusterList>:


bool fatDelClusterList(VOLUME_INFO *pVol, alt_u32 StartCluster){
 3043554:	defff104 	addi	sp,sp,-60
 3043558:	dfc00e15 	stw	ra,56(sp)
 304355c:	df000d15 	stw	fp,52(sp)
 3043560:	dc000c15 	stw	r16,48(sp)
 3043564:	df000c04 	addi	fp,sp,48
 3043568:	e13ffd15 	stw	r4,-12(fp)
 304356c:	e17ffe15 	stw	r5,-8(fp)
    CLUSTER_TYPE ClusterType;
    bool bSuccess = TRUE;
 3043570:	00800044 	movi	r2,1
 3043574:	e0bffb15 	stw	r2,-20(fp)
    bool bDone = FALSE;
 3043578:	e03ffa15 	stw	zero,-24(fp)
    alt_u32 ClusterIndex, Secter, ClusterEntryValue;
    void *pFatEntryValue;
    
    
    const int nFatEntrySize = (pVol->Partition_Type == PARTITION_FAT32)?4:2; // 2 byte for FAT16
 304357c:	e0bffd17 	ldw	r2,-12(fp)
 3043580:	10800317 	ldw	r2,12(r2)
 3043584:	108002d8 	cmpnei	r2,r2,11
 3043588:	1000031e 	bne	r2,zero,3043598 <fatDelClusterList+0x44>
 304358c:	00800104 	movi	r2,4
 3043590:	e0bfff15 	stw	r2,-4(fp)
 3043594:	00000206 	br	30435a0 <fatDelClusterList+0x4c>
 3043598:	00800084 	movi	r2,2
 304359c:	e0bfff15 	stw	r2,-4(fp)
 30435a0:	e0bfff17 	ldw	r2,-4(fp)
 30435a4:	e0bff515 	stw	r2,-44(fp)
    const int nFatEntryPerSecter = pVol->BPB_BytsPerSec/nFatEntrySize;
 30435a8:	e0bffd17 	ldw	r2,-12(fp)
 30435ac:	11000617 	ldw	r4,24(r2)
 30435b0:	e17ff517 	ldw	r5,-44(fp)
 30435b4:	30497ec0 	call	30497ec <__udivsi3>
 30435b8:	e0bff415 	stw	r2,-48(fp)
     
    ClusterIndex = StartCluster;
 30435bc:	e0bffe17 	ldw	r2,-8(fp)
 30435c0:	e0bff915 	stw	r2,-28(fp)
    while(bSuccess && !bDone){
 30435c4:	00004f06 	br	3043704 <fatDelClusterList+0x1b0>
        // read FAT Table
        Secter = pVol->FatEntrySecter + (ClusterIndex*nFatEntrySize)/pVol->BPB_BytsPerSec;
 30435c8:	e0bffd17 	ldw	r2,-12(fp)
 30435cc:	14000d17 	ldw	r16,52(r2)
 30435d0:	e0fff517 	ldw	r3,-44(fp)
 30435d4:	e0bff917 	ldw	r2,-28(fp)
 30435d8:	1889383a 	mul	r4,r3,r2
 30435dc:	e0bffd17 	ldw	r2,-12(fp)
 30435e0:	11400617 	ldw	r5,24(r2)
 30435e4:	30497ec0 	call	30497ec <__udivsi3>
 30435e8:	8085883a 	add	r2,r16,r2
 30435ec:	e0bff815 	stw	r2,-32(fp)
        bSuccess = fatReadSecter(pVol, Secter);
 30435f0:	e13ffd17 	ldw	r4,-12(fp)
 30435f4:	e17ff817 	ldw	r5,-32(fp)
 30435f8:	30441240 	call	3044124 <fatReadSecter>
 30435fc:	e0bffb15 	stw	r2,-20(fp)
        if (bSuccess){
 3043600:	e0bffb17 	ldw	r2,-20(fp)
 3043604:	1005003a 	cmpeq	r2,r2,zero
 3043608:	10003e1e 	bne	r2,zero,3043704 <fatDelClusterList+0x1b0>
            // get the value of FAT entry
            pFatEntryValue = (pVol->Secter_Data + (ClusterIndex%nFatEntryPerSecter)*nFatEntrySize);
 304360c:	e0bffd17 	ldw	r2,-12(fp)
 3043610:	14001004 	addi	r16,r2,64
 3043614:	e17ff417 	ldw	r5,-48(fp)
 3043618:	e13ff917 	ldw	r4,-28(fp)
 304361c:	30497f40 	call	30497f4 <__umodsi3>
 3043620:	1007883a 	mov	r3,r2
 3043624:	e0bff517 	ldw	r2,-44(fp)
 3043628:	1885383a 	mul	r2,r3,r2
 304362c:	8085883a 	add	r2,r16,r2
 3043630:	e0bff615 	stw	r2,-40(fp)
            if (pVol->Partition_Type == PARTITION_FAT32){
 3043634:	e0bffd17 	ldw	r2,-12(fp)
 3043638:	10800317 	ldw	r2,12(r2)
 304363c:	108002d8 	cmpnei	r2,r2,11
 3043640:	1000071e 	bne	r2,zero,3043660 <fatDelClusterList+0x10c>
                ClusterEntryValue = *(alt_u32 *)pFatEntryValue; 
 3043644:	e0bff617 	ldw	r2,-40(fp)
 3043648:	10800017 	ldw	r2,0(r2)
 304364c:	e0bff715 	stw	r2,-36(fp)
                ClusterType = fat32ClusterType(ClusterEntryValue);
 3043650:	e13ff717 	ldw	r4,-36(fp)
 3043654:	30431b00 	call	30431b0 <fat32ClusterType>
 3043658:	e0bffc15 	stw	r2,-16(fp)
 304365c:	00000706 	br	304367c <fatDelClusterList+0x128>
            }else{
                ClusterEntryValue = *(alt_u16 *)pFatEntryValue; //(pVol->Secter_Data + (ThisCluster%nFatEntryPerSecter)*nFatEntrySize); 
 3043660:	e0bff617 	ldw	r2,-40(fp)
 3043664:	1080000b 	ldhu	r2,0(r2)
 3043668:	10bfffcc 	andi	r2,r2,65535
 304366c:	e0bff715 	stw	r2,-36(fp)
                ClusterType = fat16ClusterType(ClusterEntryValue);
 3043670:	e13ff717 	ldw	r4,-36(fp)
 3043674:	30430f80 	call	30430f8 <fat16ClusterType>
 3043678:	e0bffc15 	stw	r2,-16(fp)
            }
                
            if (ClusterType != CLUSTER_NEXT_INFILE && ClusterType != CLUSTER_LAST_INFILE){
 304367c:	e0bffc17 	ldw	r2,-16(fp)
 3043680:	10800120 	cmpeqi	r2,r2,4
 3043684:	1000071e 	bne	r2,zero,30436a4 <fatDelClusterList+0x150>
 3043688:	e0bffc17 	ldw	r2,-16(fp)
 304368c:	108000e0 	cmpeqi	r2,r2,3
 3043690:	1000041e 	bne	r2,zero,30436a4 <fatDelClusterList+0x150>
                bDone = TRUE;
 3043694:	00800044 	movi	r2,1
 3043698:	e0bffa15 	stw	r2,-24(fp)
                bSuccess = FALSE;
 304369c:	e03ffb15 	stw	zero,-20(fp)
 30436a0:	00001806 	br	3043704 <fatDelClusterList+0x1b0>
            }else{
                if (ClusterType == CLUSTER_LAST_INFILE)
 30436a4:	e0bffc17 	ldw	r2,-16(fp)
 30436a8:	108000d8 	cmpnei	r2,r2,3
 30436ac:	1000021e 	bne	r2,zero,30436b8 <fatDelClusterList+0x164>
                    bDone = TRUE; // the last cluster
 30436b0:	00800044 	movi	r2,1
 30436b4:	e0bffa15 	stw	r2,-24(fp)
                // update
                if (pVol->Partition_Type == PARTITION_FAT32)
 30436b8:	e0bffd17 	ldw	r2,-12(fp)
 30436bc:	10800317 	ldw	r2,12(r2)
 30436c0:	108002d8 	cmpnei	r2,r2,11
 30436c4:	1000031e 	bne	r2,zero,30436d4 <fatDelClusterList+0x180>
                    *(alt_u32 *)pFatEntryValue = CLUSTER_UNUSED;
 30436c8:	e0bff617 	ldw	r2,-40(fp)
 30436cc:	10000015 	stw	zero,0(r2)
 30436d0:	00000206 	br	30436dc <fatDelClusterList+0x188>
                else 
                    *(alt_u16 *)pFatEntryValue = CLUSTER_UNUSED;
 30436d4:	e0bff617 	ldw	r2,-40(fp)
 30436d8:	1000000d 	sth	zero,0(r2)
                //write back FAT Table
                bSuccess = pVol->WriteBlock512(pVol->DiskHandle, pVol->Secter_Index, pVol->Secter_Data);
 30436dc:	e0bffd17 	ldw	r2,-12(fp)
 30436e0:	10c00217 	ldw	r3,8(r2)
 30436e4:	e0bffd17 	ldw	r2,-12(fp)
 30436e8:	11000017 	ldw	r4,0(r2)
 30436ec:	e0bffd17 	ldw	r2,-12(fp)
 30436f0:	11409017 	ldw	r5,576(r2)
 30436f4:	e0bffd17 	ldw	r2,-12(fp)
 30436f8:	11801004 	addi	r6,r2,64
 30436fc:	183ee83a 	callr	r3
 3043700:	e0bffb15 	stw	r2,-20(fp)
 3043704:	e0bffb17 	ldw	r2,-20(fp)
 3043708:	1005003a 	cmpeq	r2,r2,zero
 304370c:	1000031e 	bne	r2,zero,304371c <fatDelClusterList+0x1c8>
 3043710:	e0bffa17 	ldw	r2,-24(fp)
 3043714:	1005003a 	cmpeq	r2,r2,zero
 3043718:	103fab1e 	bne	r2,zero,30435c8 <fatDelClusterList+0x74>
            }    
        }                
    }  // while                
    
    
    return bSuccess;
 304371c:	e0bffb17 	ldw	r2,-20(fp)

}
 3043720:	e037883a 	mov	sp,fp
 3043724:	dfc00217 	ldw	ra,8(sp)
 3043728:	df000117 	ldw	fp,4(sp)
 304372c:	dc000017 	ldw	r16,0(sp)
 3043730:	dec00304 	addi	sp,sp,12
 3043734:	f800283a 	ret

03043738 <fatDumpDate>:


void fatDumpDate(unsigned short Date){
 3043738:	defffa04 	addi	sp,sp,-24
 304373c:	dfc00515 	stw	ra,20(sp)
 3043740:	df000415 	stw	fp,16(sp)
 3043744:	df000404 	addi	fp,sp,16
 3043748:	e13fff0d 	sth	r4,-4(fp)
    int Year, Month, Day;
    Year = ((Date >> 9) & 0x1F) + 1980;
 304374c:	e0bfff0b 	ldhu	r2,-4(fp)
 3043750:	1004d27a 	srli	r2,r2,9
 3043754:	10bfffcc 	andi	r2,r2,65535
 3043758:	108007cc 	andi	r2,r2,31
 304375c:	1081ef04 	addi	r2,r2,1980
 3043760:	e0bffe15 	stw	r2,-8(fp)
    Month = ((Date >> 5) & 0xF);
 3043764:	e0bfff0b 	ldhu	r2,-4(fp)
 3043768:	1004d17a 	srli	r2,r2,5
 304376c:	10bfffcc 	andi	r2,r2,65535
 3043770:	108003cc 	andi	r2,r2,15
 3043774:	e0bffd15 	stw	r2,-12(fp)
    Day = ((Date >> 0) & 0x1F);
 3043778:	e0bfff0b 	ldhu	r2,-4(fp)
 304377c:	108007cc 	andi	r2,r2,31
 3043780:	e0bffc15 	stw	r2,-16(fp)
    FAT_DEBUG(("%d,%d,%d", Year, Month, Day)); 
 3043784:	0100c1b4 	movhi	r4,774
 3043788:	2127de04 	addi	r4,r4,-24712
 304378c:	30469080 	call	3046908 <myprintf>
 3043790:	0100c1b4 	movhi	r4,774
 3043794:	2127e004 	addi	r4,r4,-24704
 3043798:	e17ffe17 	ldw	r5,-8(fp)
 304379c:	e1bffd17 	ldw	r6,-12(fp)
 30437a0:	e1fffc17 	ldw	r7,-16(fp)
 30437a4:	30469080 	call	3046908 <myprintf>
}
 30437a8:	e037883a 	mov	sp,fp
 30437ac:	dfc00117 	ldw	ra,4(sp)
 30437b0:	df000017 	ldw	fp,0(sp)
 30437b4:	dec00204 	addi	sp,sp,8
 30437b8:	f800283a 	ret

030437bc <fatDumpTime>:

void fatDumpTime(unsigned short Date){
 30437bc:	defffa04 	addi	sp,sp,-24
 30437c0:	dfc00515 	stw	ra,20(sp)
 30437c4:	df000415 	stw	fp,16(sp)
 30437c8:	df000404 	addi	fp,sp,16
 30437cc:	e13fff0d 	sth	r4,-4(fp)
    int H,M,S;
    H = ((Date >> 9) & 0x1F);
 30437d0:	e0bfff0b 	ldhu	r2,-4(fp)
 30437d4:	1004d27a 	srli	r2,r2,9
 30437d8:	10bfffcc 	andi	r2,r2,65535
 30437dc:	108007cc 	andi	r2,r2,31
 30437e0:	e0bffe15 	stw	r2,-8(fp)
    M = ((Date >> 5) & 0x3F);
 30437e4:	e0bfff0b 	ldhu	r2,-4(fp)
 30437e8:	1004d17a 	srli	r2,r2,5
 30437ec:	10bfffcc 	andi	r2,r2,65535
 30437f0:	10800fcc 	andi	r2,r2,63
 30437f4:	e0bffd15 	stw	r2,-12(fp)
    S = ((Date >> 0) & 0x1F)*2;
 30437f8:	e0bfff0b 	ldhu	r2,-4(fp)
 30437fc:	108007cc 	andi	r2,r2,31
 3043800:	1085883a 	add	r2,r2,r2
 3043804:	e0bffc15 	stw	r2,-16(fp)
    FAT_DEBUG(("%d:%d:%d", H, M, S));     
 3043808:	0100c1b4 	movhi	r4,774
 304380c:	2127de04 	addi	r4,r4,-24712
 3043810:	30469080 	call	3046908 <myprintf>
 3043814:	0100c1b4 	movhi	r4,774
 3043818:	2127e304 	addi	r4,r4,-24692
 304381c:	e17ffe17 	ldw	r5,-8(fp)
 3043820:	e1bffd17 	ldw	r6,-12(fp)
 3043824:	e1fffc17 	ldw	r7,-16(fp)
 3043828:	30469080 	call	3046908 <myprintf>
}
 304382c:	e037883a 	mov	sp,fp
 3043830:	dfc00117 	ldw	ra,4(sp)
 3043834:	df000017 	ldw	fp,0(sp)
 3043838:	dec00204 	addi	sp,sp,8
 304383c:	f800283a 	ret

03043840 <fatIsLastDir>:

bool fatIsLastDir(FAT_DIRECTORY *pDir){
 3043840:	defffd04 	addi	sp,sp,-12
 3043844:	df000215 	stw	fp,8(sp)
 3043848:	df000204 	addi	fp,sp,8
 304384c:	e13ffe15 	stw	r4,-8(fp)
    if (pDir->Name[0] == REMAINED_UNUSED_DIR_ENTRY)  // 0x00
 3043850:	e0bffe17 	ldw	r2,-8(fp)
 3043854:	10800003 	ldbu	r2,0(r2)
 3043858:	10803fcc 	andi	r2,r2,255
 304385c:	1080201c 	xori	r2,r2,128
 3043860:	10bfe004 	addi	r2,r2,-128
 3043864:	1004c03a 	cmpne	r2,r2,zero
 3043868:	1000031e 	bne	r2,zero,3043878 <fatIsLastDir+0x38>
        return TRUE;
 304386c:	00800044 	movi	r2,1
 3043870:	e0bfff15 	stw	r2,-4(fp)
 3043874:	00000106 	br	304387c <fatIsLastDir+0x3c>
    return FALSE;        
 3043878:	e03fff15 	stw	zero,-4(fp)
 304387c:	e0bfff17 	ldw	r2,-4(fp)
}
 3043880:	e037883a 	mov	sp,fp
 3043884:	df000017 	ldw	fp,0(sp)
 3043888:	dec00104 	addi	sp,sp,4
 304388c:	f800283a 	ret

03043890 <fatIsValidDir>:


bool fatIsValidDir(FAT_DIRECTORY *pDir){
 3043890:	defff604 	addi	sp,sp,-40
 3043894:	dfc00915 	stw	ra,36(sp)
 3043898:	df000815 	stw	fp,32(sp)
 304389c:	df000804 	addi	fp,sp,32
 30438a0:	e13ffe15 	stw	r4,-8(fp)
    char szTest[] = {0x00, 0xE5, 0x22, 0x2A, 0x2B, 0x2C, 0x2E, 0x2F, 0x3A, 0x3B, 0x3C, 0x3E, 0x3F, 0x5B, 0x5C, 0x5D, 0x7C};
 30438a4:	0080c1b4 	movhi	r2,774
 30438a8:	10a7e544 	addi	r2,r2,-24683
 30438ac:	e13ff904 	addi	r4,fp,-28
 30438b0:	100b883a 	mov	r5,r2
 30438b4:	01800444 	movi	r6,17
 30438b8:	304bb5c0 	call	304bb5c <memcpy>
    int i;
    
    for(i=0;i<sizeof(szTest)/sizeof(szTest[0]);i++){
 30438bc:	e03ff815 	stw	zero,-32(fp)
 30438c0:	00001206 	br	304390c <fatIsValidDir+0x7c>
        if (pDir->Name[0] == szTest[i]){
 30438c4:	e0bffe17 	ldw	r2,-8(fp)
 30438c8:	11000003 	ldbu	r4,0(r2)
 30438cc:	e0fff817 	ldw	r3,-32(fp)
 30438d0:	e0bff904 	addi	r2,fp,-28
 30438d4:	10c5883a 	add	r2,r2,r3
 30438d8:	10800003 	ldbu	r2,0(r2)
 30438dc:	20c03fcc 	andi	r3,r4,255
 30438e0:	18c0201c 	xori	r3,r3,128
 30438e4:	18ffe004 	addi	r3,r3,-128
 30438e8:	10803fcc 	andi	r2,r2,255
 30438ec:	1080201c 	xori	r2,r2,128
 30438f0:	10bfe004 	addi	r2,r2,-128
 30438f4:	1880021e 	bne	r3,r2,3043900 <fatIsValidDir+0x70>
            return FALSE;
 30438f8:	e03fff15 	stw	zero,-4(fp)
 30438fc:	00000806 	br	3043920 <fatIsValidDir+0x90>
 3043900:	e0bff817 	ldw	r2,-32(fp)
 3043904:	10800044 	addi	r2,r2,1
 3043908:	e0bff815 	stw	r2,-32(fp)
 304390c:	e0bff817 	ldw	r2,-32(fp)
 3043910:	10800470 	cmpltui	r2,r2,17
 3043914:	103feb1e 	bne	r2,zero,30438c4 <fatIsValidDir+0x34>
        }
    }    
    return TRUE;
 3043918:	00800044 	movi	r2,1
 304391c:	e0bfff15 	stw	r2,-4(fp)
 3043920:	e0bfff17 	ldw	r2,-4(fp)
    
}
 3043924:	e037883a 	mov	sp,fp
 3043928:	dfc00117 	ldw	ra,4(sp)
 304392c:	df000017 	ldw	fp,0(sp)
 3043930:	dec00204 	addi	sp,sp,8
 3043934:	f800283a 	ret

03043938 <fatIsUnusedDir>:

bool fatIsUnusedDir(FAT_DIRECTORY *pDir){
 3043938:	defffd04 	addi	sp,sp,-12
 304393c:	df000215 	stw	fp,8(sp)
 3043940:	df000204 	addi	fp,sp,8
 3043944:	e13ffe15 	stw	r4,-8(fp)
    if (pDir->Name[0] == (alt_8)UNUSED_DIR_ENTRY)
 3043948:	e0bffe17 	ldw	r2,-8(fp)
 304394c:	10800003 	ldbu	r2,0(r2)
 3043950:	10803fcc 	andi	r2,r2,255
 3043954:	1080201c 	xori	r2,r2,128
 3043958:	10bfe004 	addi	r2,r2,-128
 304395c:	10bff958 	cmpnei	r2,r2,-27
 3043960:	1000031e 	bne	r2,zero,3043970 <fatIsUnusedDir+0x38>
        return TRUE;
 3043964:	00800044 	movi	r2,1
 3043968:	e0bfff15 	stw	r2,-4(fp)
 304396c:	00000106 	br	3043974 <fatIsUnusedDir+0x3c>
    return FALSE; 
 3043970:	e03fff15 	stw	zero,-4(fp)
 3043974:	e0bfff17 	ldw	r2,-4(fp)
}
 3043978:	e037883a 	mov	sp,fp
 304397c:	df000017 	ldw	fp,0(sp)
 3043980:	dec00104 	addi	sp,sp,4
 3043984:	f800283a 	ret

03043988 <fatDump>:

// debug
void fatDump(FAT_DIRECTORY *pDir){
 3043988:	defff304 	addi	sp,sp,-52
 304398c:	dfc00c15 	stw	ra,48(sp)
 3043990:	df000b15 	stw	fp,44(sp)
 3043994:	df000b04 	addi	fp,sp,44
 3043998:	e13fff15 	stw	r4,-4(fp)
    char szInvalidName[] = {0x22, 0x2A, 0x2B, 0x2C, 0x2E, 0x2F, 0x3A, 0x3B, 0x3C, 0x3E, 0x3F, 0x5B, 0x5C, 0x5D, 0x7C};
 304399c:	0080c1b4 	movhi	r2,774
 30439a0:	10a7e984 	addi	r2,r2,-24666
 30439a4:	e13ffb04 	addi	r4,fp,-20
 30439a8:	100b883a 	mov	r5,r2
 30439ac:	018003c4 	movi	r6,15
 30439b0:	304bb5c0 	call	304bb5c <memcpy>
    int i;
    if (pDir->Name[0] == (char)0xE5){
 30439b4:	e0bfff17 	ldw	r2,-4(fp)
 30439b8:	10800003 	ldbu	r2,0(r2)
 30439bc:	10803fcc 	andi	r2,r2,255
 30439c0:	1080201c 	xori	r2,r2,128
 30439c4:	10bfe004 	addi	r2,r2,-128
 30439c8:	10bff958 	cmpnei	r2,r2,-27
 30439cc:	1000071e 	bne	r2,zero,30439ec <fatDump+0x64>
        FAT_DEBUG(("the directory entry is free.\n"));
 30439d0:	0100c1b4 	movhi	r4,774
 30439d4:	2127de04 	addi	r4,r4,-24712
 30439d8:	30469080 	call	3046908 <myprintf>
 30439dc:	0100c1b4 	movhi	r4,774
 30439e0:	2127ee04 	addi	r4,r4,-24648
 30439e4:	30469080 	call	3046908 <myprintf>
        return;
 30439e8:	0001a606 	br	3044084 <fatDump+0x6fc>
    }
    if (pDir->Name[0] == 0x00){
 30439ec:	e0bfff17 	ldw	r2,-4(fp)
 30439f0:	10800003 	ldbu	r2,0(r2)
 30439f4:	10803fcc 	andi	r2,r2,255
 30439f8:	1080201c 	xori	r2,r2,128
 30439fc:	10bfe004 	addi	r2,r2,-128
 3043a00:	1004c03a 	cmpne	r2,r2,zero
 3043a04:	1000071e 	bne	r2,zero,3043a24 <fatDump+0x9c>
        FAT_DEBUG(("the directory entry is free, and there are no allocated directory entries after tis one.\n"));
 3043a08:	0100c1b4 	movhi	r4,774
 3043a0c:	2127de04 	addi	r4,r4,-24712
 3043a10:	30469080 	call	3046908 <myprintf>
 3043a14:	0100c1b4 	movhi	r4,774
 3043a18:	2127f604 	addi	r4,r4,-24616
 3043a1c:	30469080 	call	3046908 <myprintf>
        return;
 3043a20:	00019806 	br	3044084 <fatDump+0x6fc>
    }
    
    if (pDir->Name[0] <= 0x20 && pDir->Name[0] != 0x05){
 3043a24:	e0bfff17 	ldw	r2,-4(fp)
 3043a28:	10800003 	ldbu	r2,0(r2)
 3043a2c:	10803fcc 	andi	r2,r2,255
 3043a30:	1080201c 	xori	r2,r2,128
 3043a34:	10bfe004 	addi	r2,r2,-128
 3043a38:	10800848 	cmpgei	r2,r2,33
 3043a3c:	10000e1e 	bne	r2,zero,3043a78 <fatDump+0xf0>
 3043a40:	e0bfff17 	ldw	r2,-4(fp)
 3043a44:	10800003 	ldbu	r2,0(r2)
 3043a48:	10803fcc 	andi	r2,r2,255
 3043a4c:	1080201c 	xori	r2,r2,128
 3043a50:	10bfe004 	addi	r2,r2,-128
 3043a54:	10800160 	cmpeqi	r2,r2,5
 3043a58:	1000071e 	bne	r2,zero,3043a78 <fatDump+0xf0>
        FAT_DEBUG(("Invalid file name.\n"));
 3043a5c:	0100c1b4 	movhi	r4,774
 3043a60:	2127de04 	addi	r4,r4,-24712
 3043a64:	30469080 	call	3046908 <myprintf>
 3043a68:	0100c1b4 	movhi	r4,774
 3043a6c:	21280d04 	addi	r4,r4,-24524
 3043a70:	30469080 	call	3046908 <myprintf>
        return;
 3043a74:	00018306 	br	3044084 <fatDump+0x6fc>
    }
    
    for(i=0;i<sizeof(szInvalidName)/sizeof(szInvalidName[0]);i++){
 3043a78:	e03ffa15 	stw	zero,-24(fp)
 3043a7c:	00001706 	br	3043adc <fatDump+0x154>
        if (pDir->Name[0] == szInvalidName[i]){
 3043a80:	e0bfff17 	ldw	r2,-4(fp)
 3043a84:	11000003 	ldbu	r4,0(r2)
 3043a88:	e0fffa17 	ldw	r3,-24(fp)
 3043a8c:	e0bffb04 	addi	r2,fp,-20
 3043a90:	10c5883a 	add	r2,r2,r3
 3043a94:	10800003 	ldbu	r2,0(r2)
 3043a98:	20c03fcc 	andi	r3,r4,255
 3043a9c:	18c0201c 	xori	r3,r3,128
 3043aa0:	18ffe004 	addi	r3,r3,-128
 3043aa4:	10803fcc 	andi	r2,r2,255
 3043aa8:	1080201c 	xori	r2,r2,128
 3043aac:	10bfe004 	addi	r2,r2,-128
 3043ab0:	1880071e 	bne	r3,r2,3043ad0 <fatDump+0x148>
            FAT_DEBUG(("Invalid file name.\n"));
 3043ab4:	0100c1b4 	movhi	r4,774
 3043ab8:	2127de04 	addi	r4,r4,-24712
 3043abc:	30469080 	call	3046908 <myprintf>
 3043ac0:	0100c1b4 	movhi	r4,774
 3043ac4:	21280d04 	addi	r4,r4,-24524
 3043ac8:	30469080 	call	3046908 <myprintf>
            return;
 3043acc:	00016d06 	br	3044084 <fatDump+0x6fc>
 3043ad0:	e0bffa17 	ldw	r2,-24(fp)
 3043ad4:	10800044 	addi	r2,r2,1
 3043ad8:	e0bffa15 	stw	r2,-24(fp)
 3043adc:	e0bffa17 	ldw	r2,-24(fp)
 3043ae0:	108003f0 	cmpltui	r2,r2,15
 3043ae4:	103fe61e 	bne	r2,zero,3043a80 <fatDump+0xf8>
        }
    }    
    
    //printf("sizeof(FAT_TABLE):%d\n", (int)sizeof(FAT_TABLE));
    if (pDir->Name[0] == 0x05){
 3043ae8:	e0bfff17 	ldw	r2,-4(fp)
 3043aec:	10800003 	ldbu	r2,0(r2)
 3043af0:	10803fcc 	andi	r2,r2,255
 3043af4:	1080201c 	xori	r2,r2,128
 3043af8:	10bfe004 	addi	r2,r2,-128
 3043afc:	10800158 	cmpnei	r2,r2,5
 3043b00:	1000301e 	bne	r2,zero,3043bc4 <fatDump+0x23c>
        FAT_DEBUG(("Name:%c%c%c%c%c%c%c%c\n", 0xE5,pDir->Name[1],pDir->Name[2],pDir->Name[3],pDir->Name[4],pDir->Name[5],pDir->Name[6],pDir->Name[6]));
 3043b04:	0100c1b4 	movhi	r4,774
 3043b08:	2127de04 	addi	r4,r4,-24712
 3043b0c:	30469080 	call	3046908 <myprintf>
 3043b10:	e0bfff17 	ldw	r2,-4(fp)
 3043b14:	10800043 	ldbu	r2,1(r2)
 3043b18:	11803fcc 	andi	r6,r2,255
 3043b1c:	3180201c 	xori	r6,r6,128
 3043b20:	31bfe004 	addi	r6,r6,-128
 3043b24:	e0bfff17 	ldw	r2,-4(fp)
 3043b28:	10800083 	ldbu	r2,2(r2)
 3043b2c:	11c03fcc 	andi	r7,r2,255
 3043b30:	39c0201c 	xori	r7,r7,128
 3043b34:	39ffe004 	addi	r7,r7,-128
 3043b38:	e0bfff17 	ldw	r2,-4(fp)
 3043b3c:	108000c3 	ldbu	r2,3(r2)
 3043b40:	11403fcc 	andi	r5,r2,255
 3043b44:	2940201c 	xori	r5,r5,128
 3043b48:	297fe004 	addi	r5,r5,-128
 3043b4c:	e0bfff17 	ldw	r2,-4(fp)
 3043b50:	10800103 	ldbu	r2,4(r2)
 3043b54:	12003fcc 	andi	r8,r2,255
 3043b58:	4200201c 	xori	r8,r8,128
 3043b5c:	423fe004 	addi	r8,r8,-128
 3043b60:	e0bfff17 	ldw	r2,-4(fp)
 3043b64:	10800143 	ldbu	r2,5(r2)
 3043b68:	10c03fcc 	andi	r3,r2,255
 3043b6c:	18c0201c 	xori	r3,r3,128
 3043b70:	18ffe004 	addi	r3,r3,-128
 3043b74:	e0bfff17 	ldw	r2,-4(fp)
 3043b78:	10800183 	ldbu	r2,6(r2)
 3043b7c:	11003fcc 	andi	r4,r2,255
 3043b80:	2100201c 	xori	r4,r4,128
 3043b84:	213fe004 	addi	r4,r4,-128
 3043b88:	e0bfff17 	ldw	r2,-4(fp)
 3043b8c:	10800183 	ldbu	r2,6(r2)
 3043b90:	10803fcc 	andi	r2,r2,255
 3043b94:	1080201c 	xori	r2,r2,128
 3043b98:	10bfe004 	addi	r2,r2,-128
 3043b9c:	d9400015 	stw	r5,0(sp)
 3043ba0:	da000115 	stw	r8,4(sp)
 3043ba4:	d8c00215 	stw	r3,8(sp)
 3043ba8:	d9000315 	stw	r4,12(sp)
 3043bac:	d8800415 	stw	r2,16(sp)
 3043bb0:	0100c1b4 	movhi	r4,774
 3043bb4:	21281204 	addi	r4,r4,-24504
 3043bb8:	01403944 	movi	r5,229
 3043bbc:	30469080 	call	3046908 <myprintf>
 3043bc0:	00003306 	br	3043c90 <fatDump+0x308>
    }else{
        FAT_DEBUG(("Name:%c%c%c%c%c%c%c%c\n", pDir->Name[0],pDir->Name[1],pDir->Name[2],pDir->Name[3],pDir->Name[4],pDir->Name[5],pDir->Name[6],pDir->Name[6]));
 3043bc4:	0100c1b4 	movhi	r4,774
 3043bc8:	2127de04 	addi	r4,r4,-24712
 3043bcc:	30469080 	call	3046908 <myprintf>
 3043bd0:	e0bfff17 	ldw	r2,-4(fp)
 3043bd4:	10800003 	ldbu	r2,0(r2)
 3043bd8:	11403fcc 	andi	r5,r2,255
 3043bdc:	2940201c 	xori	r5,r5,128
 3043be0:	297fe004 	addi	r5,r5,-128
 3043be4:	e0bfff17 	ldw	r2,-4(fp)
 3043be8:	10800043 	ldbu	r2,1(r2)
 3043bec:	11803fcc 	andi	r6,r2,255
 3043bf0:	3180201c 	xori	r6,r6,128
 3043bf4:	31bfe004 	addi	r6,r6,-128
 3043bf8:	e0bfff17 	ldw	r2,-4(fp)
 3043bfc:	10800083 	ldbu	r2,2(r2)
 3043c00:	11c03fcc 	andi	r7,r2,255
 3043c04:	39c0201c 	xori	r7,r7,128
 3043c08:	39ffe004 	addi	r7,r7,-128
 3043c0c:	e0bfff17 	ldw	r2,-4(fp)
 3043c10:	108000c3 	ldbu	r2,3(r2)
 3043c14:	12003fcc 	andi	r8,r2,255
 3043c18:	4200201c 	xori	r8,r8,128
 3043c1c:	423fe004 	addi	r8,r8,-128
 3043c20:	e0bfff17 	ldw	r2,-4(fp)
 3043c24:	10800103 	ldbu	r2,4(r2)
 3043c28:	12403fcc 	andi	r9,r2,255
 3043c2c:	4a40201c 	xori	r9,r9,128
 3043c30:	4a7fe004 	addi	r9,r9,-128
 3043c34:	e0bfff17 	ldw	r2,-4(fp)
 3043c38:	10800143 	ldbu	r2,5(r2)
 3043c3c:	10c03fcc 	andi	r3,r2,255
 3043c40:	18c0201c 	xori	r3,r3,128
 3043c44:	18ffe004 	addi	r3,r3,-128
 3043c48:	e0bfff17 	ldw	r2,-4(fp)
 3043c4c:	10800183 	ldbu	r2,6(r2)
 3043c50:	11003fcc 	andi	r4,r2,255
 3043c54:	2100201c 	xori	r4,r4,128
 3043c58:	213fe004 	addi	r4,r4,-128
 3043c5c:	e0bfff17 	ldw	r2,-4(fp)
 3043c60:	10800183 	ldbu	r2,6(r2)
 3043c64:	10803fcc 	andi	r2,r2,255
 3043c68:	1080201c 	xori	r2,r2,128
 3043c6c:	10bfe004 	addi	r2,r2,-128
 3043c70:	da000015 	stw	r8,0(sp)
 3043c74:	da400115 	stw	r9,4(sp)
 3043c78:	d8c00215 	stw	r3,8(sp)
 3043c7c:	d9000315 	stw	r4,12(sp)
 3043c80:	d8800415 	stw	r2,16(sp)
 3043c84:	0100c1b4 	movhi	r4,774
 3043c88:	21281204 	addi	r4,r4,-24504
 3043c8c:	30469080 	call	3046908 <myprintf>
    }        
    FAT_DEBUG(("Extention:%c%c%c\n", pDir->Extension[0],pDir->Extension[1],pDir->Extension[2]));
 3043c90:	0100c1b4 	movhi	r4,774
 3043c94:	2127de04 	addi	r4,r4,-24712
 3043c98:	30469080 	call	3046908 <myprintf>
 3043c9c:	e0bfff17 	ldw	r2,-4(fp)
 3043ca0:	10800203 	ldbu	r2,8(r2)
 3043ca4:	11403fcc 	andi	r5,r2,255
 3043ca8:	2940201c 	xori	r5,r5,128
 3043cac:	297fe004 	addi	r5,r5,-128
 3043cb0:	e0bfff17 	ldw	r2,-4(fp)
 3043cb4:	10800243 	ldbu	r2,9(r2)
 3043cb8:	11803fcc 	andi	r6,r2,255
 3043cbc:	3180201c 	xori	r6,r6,128
 3043cc0:	31bfe004 	addi	r6,r6,-128
 3043cc4:	e0bfff17 	ldw	r2,-4(fp)
 3043cc8:	10800283 	ldbu	r2,10(r2)
 3043ccc:	11c03fcc 	andi	r7,r2,255
 3043cd0:	39c0201c 	xori	r7,r7,128
 3043cd4:	39ffe004 	addi	r7,r7,-128
 3043cd8:	0100c1b4 	movhi	r4,774
 3043cdc:	21281804 	addi	r4,r4,-24480
 3043ce0:	30469080 	call	3046908 <myprintf>
    FAT_DEBUG(("Attribute:%02Xh\n", pDir->Attribute));
 3043ce4:	0100c1b4 	movhi	r4,774
 3043ce8:	2127de04 	addi	r4,r4,-24712
 3043cec:	30469080 	call	3046908 <myprintf>
 3043cf0:	e0bfff17 	ldw	r2,-4(fp)
 3043cf4:	108002c3 	ldbu	r2,11(r2)
 3043cf8:	11403fcc 	andi	r5,r2,255
 3043cfc:	2940201c 	xori	r5,r5,128
 3043d00:	297fe004 	addi	r5,r5,-128
 3043d04:	0100c1b4 	movhi	r4,774
 3043d08:	21281d04 	addi	r4,r4,-24460
 3043d0c:	30469080 	call	3046908 <myprintf>
    if (pDir->Attribute & ATTR_READ_ONLY)
 3043d10:	e0bfff17 	ldw	r2,-4(fp)
 3043d14:	108002c3 	ldbu	r2,11(r2)
 3043d18:	10803fcc 	andi	r2,r2,255
 3043d1c:	1080004c 	andi	r2,r2,1
 3043d20:	10803fcc 	andi	r2,r2,255
 3043d24:	1005003a 	cmpeq	r2,r2,zero
 3043d28:	1000061e 	bne	r2,zero,3043d44 <fatDump+0x3bc>
        FAT_DEBUG(("  Read-Only\n"));
 3043d2c:	0100c1b4 	movhi	r4,774
 3043d30:	2127de04 	addi	r4,r4,-24712
 3043d34:	30469080 	call	3046908 <myprintf>
 3043d38:	0100c1b4 	movhi	r4,774
 3043d3c:	21282204 	addi	r4,r4,-24440
 3043d40:	30469080 	call	3046908 <myprintf>
    if (pDir->Attribute & ATTR_HIDDEN)
 3043d44:	e0bfff17 	ldw	r2,-4(fp)
 3043d48:	108002c3 	ldbu	r2,11(r2)
 3043d4c:	10803fcc 	andi	r2,r2,255
 3043d50:	1080008c 	andi	r2,r2,2
 3043d54:	1005003a 	cmpeq	r2,r2,zero
 3043d58:	1000061e 	bne	r2,zero,3043d74 <fatDump+0x3ec>
        FAT_DEBUG(("  Hidden\n"));
 3043d5c:	0100c1b4 	movhi	r4,774
 3043d60:	2127de04 	addi	r4,r4,-24712
 3043d64:	30469080 	call	3046908 <myprintf>
 3043d68:	0100c1b4 	movhi	r4,774
 3043d6c:	21282604 	addi	r4,r4,-24424
 3043d70:	30469080 	call	3046908 <myprintf>
    if (pDir->Attribute & ATTR_SYSTEM)
 3043d74:	e0bfff17 	ldw	r2,-4(fp)
 3043d78:	108002c3 	ldbu	r2,11(r2)
 3043d7c:	10803fcc 	andi	r2,r2,255
 3043d80:	1080010c 	andi	r2,r2,4
 3043d84:	1005003a 	cmpeq	r2,r2,zero
 3043d88:	1000061e 	bne	r2,zero,3043da4 <fatDump+0x41c>
        FAT_DEBUG(("  System\n"));
 3043d8c:	0100c1b4 	movhi	r4,774
 3043d90:	2127de04 	addi	r4,r4,-24712
 3043d94:	30469080 	call	3046908 <myprintf>
 3043d98:	0100c1b4 	movhi	r4,774
 3043d9c:	21282904 	addi	r4,r4,-24412
 3043da0:	30469080 	call	3046908 <myprintf>
    if (pDir->Attribute & ATTR_VOLUME_ID)
 3043da4:	e0bfff17 	ldw	r2,-4(fp)
 3043da8:	108002c3 	ldbu	r2,11(r2)
 3043dac:	10803fcc 	andi	r2,r2,255
 3043db0:	1080020c 	andi	r2,r2,8
 3043db4:	1005003a 	cmpeq	r2,r2,zero
 3043db8:	1000061e 	bne	r2,zero,3043dd4 <fatDump+0x44c>
        FAT_DEBUG(("  Volume\n"));
 3043dbc:	0100c1b4 	movhi	r4,774
 3043dc0:	2127de04 	addi	r4,r4,-24712
 3043dc4:	30469080 	call	3046908 <myprintf>
 3043dc8:	0100c1b4 	movhi	r4,774
 3043dcc:	21282c04 	addi	r4,r4,-24400
 3043dd0:	30469080 	call	3046908 <myprintf>
    if (pDir->Attribute & ATTR_DIRECTORY)
 3043dd4:	e0bfff17 	ldw	r2,-4(fp)
 3043dd8:	108002c3 	ldbu	r2,11(r2)
 3043ddc:	10803fcc 	andi	r2,r2,255
 3043de0:	1080040c 	andi	r2,r2,16
 3043de4:	1005003a 	cmpeq	r2,r2,zero
 3043de8:	1000061e 	bne	r2,zero,3043e04 <fatDump+0x47c>
        FAT_DEBUG(("  Directory\n"));
 3043dec:	0100c1b4 	movhi	r4,774
 3043df0:	2127de04 	addi	r4,r4,-24712
 3043df4:	30469080 	call	3046908 <myprintf>
 3043df8:	0100c1b4 	movhi	r4,774
 3043dfc:	21282f04 	addi	r4,r4,-24388
 3043e00:	30469080 	call	3046908 <myprintf>
    if (pDir->Attribute & ATTR_ARCHIVE)
 3043e04:	e0bfff17 	ldw	r2,-4(fp)
 3043e08:	108002c3 	ldbu	r2,11(r2)
 3043e0c:	10803fcc 	andi	r2,r2,255
 3043e10:	1080080c 	andi	r2,r2,32
 3043e14:	1005003a 	cmpeq	r2,r2,zero
 3043e18:	1000061e 	bne	r2,zero,3043e34 <fatDump+0x4ac>
        FAT_DEBUG(("  Archive\n"));
 3043e1c:	0100c1b4 	movhi	r4,774
 3043e20:	2127de04 	addi	r4,r4,-24712
 3043e24:	30469080 	call	3046908 <myprintf>
 3043e28:	0100c1b4 	movhi	r4,774
 3043e2c:	21283304 	addi	r4,r4,-24372
 3043e30:	30469080 	call	3046908 <myprintf>
    if (pDir->Attribute & ATTR_LONG_NAME)
 3043e34:	e0bfff17 	ldw	r2,-4(fp)
 3043e38:	108002c3 	ldbu	r2,11(r2)
 3043e3c:	10803fcc 	andi	r2,r2,255
 3043e40:	108003cc 	andi	r2,r2,15
 3043e44:	1005003a 	cmpeq	r2,r2,zero
 3043e48:	1000061e 	bne	r2,zero,3043e64 <fatDump+0x4dc>
        FAT_DEBUG(("  Long Name\n"));
 3043e4c:	0100c1b4 	movhi	r4,774
 3043e50:	2127de04 	addi	r4,r4,-24712
 3043e54:	30469080 	call	3046908 <myprintf>
 3043e58:	0100c1b4 	movhi	r4,774
 3043e5c:	21283604 	addi	r4,r4,-24360
 3043e60:	30469080 	call	3046908 <myprintf>
    FAT_DEBUG(("CreateTime:")); fatDumpTime(pDir->CreateTime);FAT_DEBUG(("\n"));
 3043e64:	0100c1b4 	movhi	r4,774
 3043e68:	2127de04 	addi	r4,r4,-24712
 3043e6c:	30469080 	call	3046908 <myprintf>
 3043e70:	0100c1b4 	movhi	r4,774
 3043e74:	21283a04 	addi	r4,r4,-24344
 3043e78:	30469080 	call	3046908 <myprintf>
 3043e7c:	e0bfff17 	ldw	r2,-4(fp)
 3043e80:	10c00383 	ldbu	r3,14(r2)
 3043e84:	108003c3 	ldbu	r2,15(r2)
 3043e88:	1004923a 	slli	r2,r2,8
 3043e8c:	10c4b03a 	or	r2,r2,r3
 3043e90:	113fffcc 	andi	r4,r2,65535
 3043e94:	30437bc0 	call	30437bc <fatDumpTime>
 3043e98:	0100c1b4 	movhi	r4,774
 3043e9c:	2127de04 	addi	r4,r4,-24712
 3043ea0:	30469080 	call	3046908 <myprintf>
 3043ea4:	0100c1b4 	movhi	r4,774
 3043ea8:	21283d04 	addi	r4,r4,-24332
 3043eac:	30469080 	call	3046908 <myprintf>
    FAT_DEBUG(("CreateDate:")); fatDumpDate(pDir->LastAccessDate);FAT_DEBUG(("\n"));
 3043eb0:	0100c1b4 	movhi	r4,774
 3043eb4:	2127de04 	addi	r4,r4,-24712
 3043eb8:	30469080 	call	3046908 <myprintf>
 3043ebc:	0100c1b4 	movhi	r4,774
 3043ec0:	21283e04 	addi	r4,r4,-24328
 3043ec4:	30469080 	call	3046908 <myprintf>
 3043ec8:	e0bfff17 	ldw	r2,-4(fp)
 3043ecc:	10c00483 	ldbu	r3,18(r2)
 3043ed0:	108004c3 	ldbu	r2,19(r2)
 3043ed4:	1004923a 	slli	r2,r2,8
 3043ed8:	10c4b03a 	or	r2,r2,r3
 3043edc:	113fffcc 	andi	r4,r2,65535
 3043ee0:	30437380 	call	3043738 <fatDumpDate>
 3043ee4:	0100c1b4 	movhi	r4,774
 3043ee8:	2127de04 	addi	r4,r4,-24712
 3043eec:	30469080 	call	3046908 <myprintf>
 3043ef0:	0100c1b4 	movhi	r4,774
 3043ef4:	21283d04 	addi	r4,r4,-24332
 3043ef8:	30469080 	call	3046908 <myprintf>
    FAT_DEBUG(("ClusterHi:%04Xh\n", pDir->FirstLogicalClusterHi));
 3043efc:	0100c1b4 	movhi	r4,774
 3043f00:	2127de04 	addi	r4,r4,-24712
 3043f04:	30469080 	call	3046908 <myprintf>
 3043f08:	e0bfff17 	ldw	r2,-4(fp)
 3043f0c:	10c00503 	ldbu	r3,20(r2)
 3043f10:	10800543 	ldbu	r2,21(r2)
 3043f14:	1004923a 	slli	r2,r2,8
 3043f18:	10c4b03a 	or	r2,r2,r3
 3043f1c:	117fffcc 	andi	r5,r2,65535
 3043f20:	0100c1b4 	movhi	r4,774
 3043f24:	21284104 	addi	r4,r4,-24316
 3043f28:	30469080 	call	3046908 <myprintf>
    FAT_DEBUG(("LastWriteTime:")); fatDumpTime(pDir->LastWriteTime);FAT_DEBUG(("\n"));
 3043f2c:	0100c1b4 	movhi	r4,774
 3043f30:	2127de04 	addi	r4,r4,-24712
 3043f34:	30469080 	call	3046908 <myprintf>
 3043f38:	0100c1b4 	movhi	r4,774
 3043f3c:	21284604 	addi	r4,r4,-24296
 3043f40:	30469080 	call	3046908 <myprintf>
 3043f44:	e0bfff17 	ldw	r2,-4(fp)
 3043f48:	10c00583 	ldbu	r3,22(r2)
 3043f4c:	108005c3 	ldbu	r2,23(r2)
 3043f50:	1004923a 	slli	r2,r2,8
 3043f54:	10c4b03a 	or	r2,r2,r3
 3043f58:	113fffcc 	andi	r4,r2,65535
 3043f5c:	30437bc0 	call	30437bc <fatDumpTime>
 3043f60:	0100c1b4 	movhi	r4,774
 3043f64:	2127de04 	addi	r4,r4,-24712
 3043f68:	30469080 	call	3046908 <myprintf>
 3043f6c:	0100c1b4 	movhi	r4,774
 3043f70:	21283d04 	addi	r4,r4,-24332
 3043f74:	30469080 	call	3046908 <myprintf>
    FAT_DEBUG(("LastWriteDate:")); fatDumpDate(pDir->LastWriteDate);FAT_DEBUG(("\n"));
 3043f78:	0100c1b4 	movhi	r4,774
 3043f7c:	2127de04 	addi	r4,r4,-24712
 3043f80:	30469080 	call	3046908 <myprintf>
 3043f84:	0100c1b4 	movhi	r4,774
 3043f88:	21284a04 	addi	r4,r4,-24280
 3043f8c:	30469080 	call	3046908 <myprintf>
 3043f90:	e0bfff17 	ldw	r2,-4(fp)
 3043f94:	10c00603 	ldbu	r3,24(r2)
 3043f98:	10800643 	ldbu	r2,25(r2)
 3043f9c:	1004923a 	slli	r2,r2,8
 3043fa0:	10c4b03a 	or	r2,r2,r3
 3043fa4:	113fffcc 	andi	r4,r2,65535
 3043fa8:	30437380 	call	3043738 <fatDumpDate>
 3043fac:	0100c1b4 	movhi	r4,774
 3043fb0:	2127de04 	addi	r4,r4,-24712
 3043fb4:	30469080 	call	3046908 <myprintf>
 3043fb8:	0100c1b4 	movhi	r4,774
 3043fbc:	21283d04 	addi	r4,r4,-24332
 3043fc0:	30469080 	call	3046908 <myprintf>
    FAT_DEBUG(("Cluster:%04Xh(%d)\n", pDir->FirstLogicalCluster,pDir->FirstLogicalCluster));
 3043fc4:	0100c1b4 	movhi	r4,774
 3043fc8:	2127de04 	addi	r4,r4,-24712
 3043fcc:	30469080 	call	3046908 <myprintf>
 3043fd0:	e0bfff17 	ldw	r2,-4(fp)
 3043fd4:	10c00683 	ldbu	r3,26(r2)
 3043fd8:	108006c3 	ldbu	r2,27(r2)
 3043fdc:	1004923a 	slli	r2,r2,8
 3043fe0:	10c4b03a 	or	r2,r2,r3
 3043fe4:	117fffcc 	andi	r5,r2,65535
 3043fe8:	e0bfff17 	ldw	r2,-4(fp)
 3043fec:	10c00683 	ldbu	r3,26(r2)
 3043ff0:	108006c3 	ldbu	r2,27(r2)
 3043ff4:	1004923a 	slli	r2,r2,8
 3043ff8:	10c4b03a 	or	r2,r2,r3
 3043ffc:	11bfffcc 	andi	r6,r2,65535
 3044000:	0100c1b4 	movhi	r4,774
 3044004:	21284e04 	addi	r4,r4,-24264
 3044008:	30469080 	call	3046908 <myprintf>
    FAT_DEBUG(("File Size:%08Xh(%ld)\n", pDir->FileSize, (long)pDir->FileSize));
 304400c:	0100c1b4 	movhi	r4,774
 3044010:	2127de04 	addi	r4,r4,-24712
 3044014:	30469080 	call	3046908 <myprintf>
 3044018:	e0ffff17 	ldw	r3,-4(fp)
 304401c:	19000703 	ldbu	r4,28(r3)
 3044020:	18800743 	ldbu	r2,29(r3)
 3044024:	1004923a 	slli	r2,r2,8
 3044028:	1108b03a 	or	r4,r2,r4
 304402c:	18800783 	ldbu	r2,30(r3)
 3044030:	1004943a 	slli	r2,r2,16
 3044034:	1108b03a 	or	r4,r2,r4
 3044038:	188007c3 	ldbu	r2,31(r3)
 304403c:	1004963a 	slli	r2,r2,24
 3044040:	1104b03a 	or	r2,r2,r4
 3044044:	100b883a 	mov	r5,r2
 3044048:	e0ffff17 	ldw	r3,-4(fp)
 304404c:	19000703 	ldbu	r4,28(r3)
 3044050:	18800743 	ldbu	r2,29(r3)
 3044054:	1004923a 	slli	r2,r2,8
 3044058:	1108b03a 	or	r4,r2,r4
 304405c:	18800783 	ldbu	r2,30(r3)
 3044060:	1004943a 	slli	r2,r2,16
 3044064:	1108b03a 	or	r4,r2,r4
 3044068:	188007c3 	ldbu	r2,31(r3)
 304406c:	1004963a 	slli	r2,r2,24
 3044070:	1104b03a 	or	r2,r2,r4
 3044074:	100d883a 	mov	r6,r2
 3044078:	0100c1b4 	movhi	r4,774
 304407c:	21285304 	addi	r4,r4,-24244
