Archive member included because of file (symbol)

c:/altera/10.0/nios2eds/bin/gnu/h-i686-mingw32/bin/../lib/gcc/nios2-elf/4.1.2\libgcc.a(_mul_sf.o)
                              obj/default/terasic_fat/FatFileSystem.o (__mulsf3)
c:/altera/10.0/nios2eds/bin/gnu/h-i686-mingw32/bin/../lib/gcc/nios2-elf/4.1.2\libgcc.a(_div_sf.o)
                              obj/default/terasic_fat/FatFileSystem.o (__divsf3)
c:/altera/10.0/nios2eds/bin/gnu/h-i686-mingw32/bin/../lib/gcc/nios2-elf/4.1.2\libgcc.a(_sf_to_df.o)
                              obj/default/terasic_fat/FatFileSystem.o (__extendsfdf2)
c:/altera/10.0/nios2eds/bin/gnu/h-i686-mingw32/bin/../lib/gcc/nios2-elf/4.1.2\libgcc.a(_thenan_sf.o)
                              c:/altera/10.0/nios2eds/bin/gnu/h-i686-mingw32/bin/../lib/gcc/nios2-elf/4.1.2\libgcc.a(_mul_sf.o) (__thenan_sf)
c:/altera/10.0/nios2eds/bin/gnu/h-i686-mingw32/bin/../lib/gcc/nios2-elf/4.1.2\libgcc.a(_usi_to_sf.o)
                              obj/default/terasic_fat/FatFileSystem.o (__floatunsisf)
c:/altera/10.0/nios2eds/bin/gnu/h-i686-mingw32/bin/../lib/gcc/nios2-elf/4.1.2\libgcc.a(_div_df.o)
                              obj/default/terasic_fat/FatFileSystem.o (__divdf3)
c:/altera/10.0/nios2eds/bin/gnu/h-i686-mingw32/bin/../lib/gcc/nios2-elf/4.1.2\libgcc.a(_make_df.o)
                              c:/altera/10.0/nios2eds/bin/gnu/h-i686-mingw32/bin/../lib/gcc/nios2-elf/4.1.2\libgcc.a(_sf_to_df.o) (__make_dp)
c:/altera/10.0/nios2eds/bin/gnu/h-i686-mingw32/bin/../lib/gcc/nios2-elf/4.1.2\libgcc.a(_df_to_sf.o)
                              obj/default/terasic_fat/FatFileSystem.o (__truncdfsf2)
c:/altera/10.0/nios2eds/bin/gnu/h-i686-mingw32/bin/../lib/gcc/nios2-elf/4.1.2\libgcc.a(_thenan_df.o)
                              c:/altera/10.0/nios2eds/bin/gnu/h-i686-mingw32/bin/../lib/gcc/nios2-elf/4.1.2\libgcc.a(_div_df.o) (__thenan_df)
c:/altera/10.0/nios2eds/bin/gnu/h-i686-mingw32/bin/../lib/gcc/nios2-elf/4.1.2\libgcc.a(lib2-divmod.o)
                              obj/default/main.o (__udivsi3)
c:/altera/10.0/nios2eds/bin/gnu/h-i686-mingw32/bin/../lib/gcc/nios2-elf/4.1.2\libgcc.a(_muldi3.o)
                              c:/altera/10.0/nios2eds/bin/gnu/h-i686-mingw32/bin/../lib/gcc/nios2-elf/4.1.2\libgcc.a(_mul_sf.o) (__muldi3)
c:/altera/10.0/nios2eds/bin/gnu/h-i686-mingw32/bin/../lib/gcc/nios2-elf/4.1.2\libgcc.a(_clzsi2.o)
                              c:/altera/10.0/nios2eds/bin/gnu/h-i686-mingw32/bin/../lib/gcc/nios2-elf/4.1.2\libgcc.a(_usi_to_sf.o) (__clzsi2)
c:/altera/10.0/nios2eds/bin/gnu/h-i686-mingw32/bin/../lib/gcc/nios2-elf/4.1.2\libgcc.a(_pack_sf.o)
                              c:/altera/10.0/nios2eds/bin/gnu/h-i686-mingw32/bin/../lib/gcc/nios2-elf/4.1.2\libgcc.a(_mul_sf.o) (__pack_f)
c:/altera/10.0/nios2eds/bin/gnu/h-i686-mingw32/bin/../lib/gcc/nios2-elf/4.1.2\libgcc.a(_unpack_sf.o)
                              c:/altera/10.0/nios2eds/bin/gnu/h-i686-mingw32/bin/../lib/gcc/nios2-elf/4.1.2\libgcc.a(_mul_sf.o) (__unpack_f)
c:/altera/10.0/nios2eds/bin/gnu/h-i686-mingw32/bin/../lib/gcc/nios2-elf/4.1.2\libgcc.a(_make_sf.o)
                              c:/altera/10.0/nios2eds/bin/gnu/h-i686-mingw32/bin/../lib/gcc/nios2-elf/4.1.2\libgcc.a(_df_to_sf.o) (__make_fp)
c:/altera/10.0/nios2eds/bin/gnu/h-i686-mingw32/bin/../lib/gcc/nios2-elf/4.1.2\libgcc.a(_pack_df.o)
                              c:/altera/10.0/nios2eds/bin/gnu/h-i686-mingw32/bin/../lib/gcc/nios2-elf/4.1.2\libgcc.a(_div_df.o) (__pack_d)
c:/altera/10.0/nios2eds/bin/gnu/h-i686-mingw32/bin/../lib/gcc/nios2-elf/4.1.2\libgcc.a(_unpack_df.o)
                              c:/altera/10.0/nios2eds/bin/gnu/h-i686-mingw32/bin/../lib/gcc/nios2-elf/4.1.2\libgcc.a(_div_df.o) (__unpack_d)
c:/altera/10.0/nios2eds/bin/gnu/h-i686-mingw32/bin/../lib/gcc/nios2-elf/4.1.2\libgcc.a(_clz.o)
                              c:/altera/10.0/nios2eds/bin/gnu/h-i686-mingw32/bin/../lib/gcc/nios2-elf/4.1.2\libgcc.a(_clzsi2.o) (__clz_tab)
c:/altera/10.0/nios2eds/bin/gnu/h-i686-mingw32/bin/../lib/gcc/nios2-elf/4.1.2/../../../../nios2-elf/lib\libc.a(lib_a-fclose.o)
                              obj/default/terasic_lib/LCD.o (fclose)
c:/altera/10.0/nios2eds/bin/gnu/h-i686-mingw32/bin/../lib/gcc/nios2-elf/4.1.2/../../../../nios2-elf/lib\libc.a(lib_a-fflush.o)
                              c:/altera/10.0/nios2eds/bin/gnu/h-i686-mingw32/bin/../lib/gcc/nios2-elf/4.1.2/../../../../nios2-elf/lib\libc.a(lib_a-fclose.o) (_fflush_r)
c:/altera/10.0/nios2eds/bin/gnu/h-i686-mingw32/bin/../lib/gcc/nios2-elf/4.1.2/../../../../nios2-elf/lib\libc.a(lib_a-findfp.o)
                              c:/altera/10.0/nios2eds/bin/gnu/h-i686-mingw32/bin/../lib/gcc/nios2-elf/4.1.2/../../../../nios2-elf/lib\libc.a(lib_a-fclose.o) (__sfp_lock_acquire)
c:/altera/10.0/nios2eds/bin/gnu/h-i686-mingw32/bin/../lib/gcc/nios2-elf/4.1.2/../../../../nios2-elf/lib\libc.a(lib_a-fopen.o)
                              obj/default/terasic_lib/LCD.o (fopen)
c:/altera/10.0/nios2eds/bin/gnu/h-i686-mingw32/bin/../lib/gcc/nios2-elf/4.1.2/../../../../nios2-elf/lib\libc.a(lib_a-freer.o)
                              c:/altera/10.0/nios2eds/bin/gnu/h-i686-mingw32/bin/../lib/gcc/nios2-elf/4.1.2/../../../../nios2-elf/lib\libc.a(lib_a-fclose.o) (_free_r)
c:/altera/10.0/nios2eds/bin/gnu/h-i686-mingw32/bin/../lib/gcc/nios2-elf/4.1.2/../../../../nios2-elf/lib\libc.a(lib_a-fseek.o)
                              c:/altera/10.0/nios2eds/bin/gnu/h-i686-mingw32/bin/../lib/gcc/nios2-elf/4.1.2/../../../../nios2-elf/lib\libc.a(lib_a-fopen.o) (_fseek_r)
c:/altera/10.0/nios2eds/bin/gnu/h-i686-mingw32/bin/../lib/gcc/nios2-elf/4.1.2/../../../../nios2-elf/lib\libc.a(lib_a-fstatr.o)
                              c:/altera/10.0/nios2eds/bin/gnu/h-i686-mingw32/bin/../lib/gcc/nios2-elf/4.1.2/../../../../nios2-elf/lib\libc.a(lib_a-fseek.o) (_fstat_r)
c:/altera/10.0/nios2eds/bin/gnu/h-i686-mingw32/bin/../lib/gcc/nios2-elf/4.1.2/../../../../nios2-elf/lib\libc.a(lib_a-fwalk.o)
                              c:/altera/10.0/nios2eds/bin/gnu/h-i686-mingw32/bin/../lib/gcc/nios2-elf/4.1.2/../../../../nios2-elf/lib\libc.a(lib_a-fflush.o) (_fwalk_reent)
c:/altera/10.0/nios2eds/bin/gnu/h-i686-mingw32/bin/../lib/gcc/nios2-elf/4.1.2/../../../../nios2-elf/lib\libc.a(lib_a-fwrite.o)
                              obj/default/terasic_lib/LCD.o (fwrite)
c:/altera/10.0/nios2eds/bin/gnu/h-i686-mingw32/bin/../lib/gcc/nios2-elf/4.1.2/../../../../nios2-elf/lib\libc.a(lib_a-impure.o)
                              c:/altera/10.0/nios2eds/bin/gnu/h-i686-mingw32/bin/../lib/gcc/nios2-elf/4.1.2/../../../../nios2-elf/lib\libc.a(lib_a-fclose.o) (_impure_ptr)
c:/altera/10.0/nios2eds/bin/gnu/h-i686-mingw32/bin/../lib/gcc/nios2-elf/4.1.2/../../../../nios2-elf/lib\libc.a(lib_a-int_errno.o)
                              c:/altera/10.0/nios2eds/bin/gnu/h-i686-mingw32/bin/../lib/gcc/nios2-elf/4.1.2/../../../../nios2-elf/lib\libc.a(lib_a-fstatr.o) (errno)
c:/altera/10.0/nios2eds/bin/gnu/h-i686-mingw32/bin/../lib/gcc/nios2-elf/4.1.2/../../../../nios2-elf/lib\libc.a(lib_a-makebuf.o)
                              c:/altera/10.0/nios2eds/bin/gnu/h-i686-mingw32/bin/../lib/gcc/nios2-elf/4.1.2/../../../../nios2-elf/lib\libc.a(lib_a-fseek.o) (__smakebuf_r)
c:/altera/10.0/nios2eds/bin/gnu/h-i686-mingw32/bin/../lib/gcc/nios2-elf/4.1.2/../../../../nios2-elf/lib\libc.a(lib_a-malloc.o)
                              obj/default/terasic_fat/FatFileSystem.o (free)
c:/altera/10.0/nios2eds/bin/gnu/h-i686-mingw32/bin/../lib/gcc/nios2-elf/4.1.2/../../../../nios2-elf/lib\libc.a(lib_a-mallocr.o)
                              c:/altera/10.0/nios2eds/bin/gnu/h-i686-mingw32/bin/../lib/gcc/nios2-elf/4.1.2/../../../../nios2-elf/lib\libc.a(lib_a-findfp.o) (_malloc_r)
c:/altera/10.0/nios2eds/bin/gnu/h-i686-mingw32/bin/../lib/gcc/nios2-elf/4.1.2/../../../../nios2-elf/lib\libc.a(lib_a-memcpy.o)
                              obj/default/terasic_fat/FatFileSystem.o (memcpy)
c:/altera/10.0/nios2eds/bin/gnu/h-i686-mingw32/bin/../lib/gcc/nios2-elf/4.1.2/../../../../nios2-elf/lib\libc.a(lib_a-memset.o)
                              obj/default/main.o (memset)
c:/altera/10.0/nios2eds/bin/gnu/h-i686-mingw32/bin/../lib/gcc/nios2-elf/4.1.2/../../../../nios2-elf/lib\libc.a(lib_a-openr.o)
                              c:/altera/10.0/nios2eds/bin/gnu/h-i686-mingw32/bin/../lib/gcc/nios2-elf/4.1.2/../../../../nios2-elf/lib\libc.a(lib_a-fopen.o) (_open_r)
c:/altera/10.0/nios2eds/bin/gnu/h-i686-mingw32/bin/../lib/gcc/nios2-elf/4.1.2/../../../../nios2-elf/lib\libc.a(lib_a-printf.o)
                              obj/default/main.o (printf)
c:/altera/10.0/nios2eds/bin/gnu/h-i686-mingw32/bin/../lib/gcc/nios2-elf/4.1.2/../../../../nios2-elf/lib\libc.a(lib_a-putchar.o)
                              obj/default/main.o (putchar)
c:/altera/10.0/nios2eds/bin/gnu/h-i686-mingw32/bin/../lib/gcc/nios2-elf/4.1.2/../../../../nios2-elf/lib\libc.a(lib_a-puts.o)
                              obj/default/main.o (puts)
c:/altera/10.0/nios2eds/bin/gnu/h-i686-mingw32/bin/../lib/gcc/nios2-elf/4.1.2/../../../../nios2-elf/lib\libc.a(lib_a-refill.o)
                              c:/altera/10.0/nios2eds/bin/gnu/h-i686-mingw32/bin/../lib/gcc/nios2-elf/4.1.2/../../../../nios2-elf/lib\libc.a(lib_a-fseek.o) (__srefill_r)
c:/altera/10.0/nios2eds/bin/gnu/h-i686-mingw32/bin/../lib/gcc/nios2-elf/4.1.2/../../../../nios2-elf/lib\libc.a(lib_a-sbrkr.o)
                              c:/altera/10.0/nios2eds/bin/gnu/h-i686-mingw32/bin/../lib/gcc/nios2-elf/4.1.2/../../../../nios2-elf/lib\libc.a(lib_a-freer.o) (_sbrk_r)
c:/altera/10.0/nios2eds/bin/gnu/h-i686-mingw32/bin/../lib/gcc/nios2-elf/4.1.2/../../../../nios2-elf/lib\libc.a(lib_a-sprintf.o)
                              obj/default/main.o (sprintf)
c:/altera/10.0/nios2eds/bin/gnu/h-i686-mingw32/bin/../lib/gcc/nios2-elf/4.1.2/../../../../nios2-elf/lib\libc.a(lib_a-stdio.o)
                              c:/altera/10.0/nios2eds/bin/gnu/h-i686-mingw32/bin/../lib/gcc/nios2-elf/4.1.2/../../../../nios2-elf/lib\libc.a(lib_a-findfp.o) (__sclose)
c:/altera/10.0/nios2eds/bin/gnu/h-i686-mingw32/bin/../lib/gcc/nios2-elf/4.1.2/../../../../nios2-elf/lib\libc.a(lib_a-strcasecmp.o)
                              obj/default/terasic_fat/FatFileSystem.o (strcasecmp)
c:/altera/10.0/nios2eds/bin/gnu/h-i686-mingw32/bin/../lib/gcc/nios2-elf/4.1.2/../../../../nios2-elf/lib\libc.a(lib_a-strcmp.o)
                              obj/default/terasic_fat/FatFileSystem.o (strcmp)
c:/altera/10.0/nios2eds/bin/gnu/h-i686-mingw32/bin/../lib/gcc/nios2-elf/4.1.2/../../../../nios2-elf/lib\libc.a(lib_a-strcpy.o)
                              obj/default/main.o (strcpy)
c:/altera/10.0/nios2eds/bin/gnu/h-i686-mingw32/bin/../lib/gcc/nios2-elf/4.1.2/../../../../nios2-elf/lib\libc.a(lib_a-strlen.o)
                              obj/default/main.o (strlen)
c:/altera/10.0/nios2eds/bin/gnu/h-i686-mingw32/bin/../lib/gcc/nios2-elf/4.1.2/../../../../nios2-elf/lib\libc.a(lib_a-vfprintf.o)
                              c:/altera/10.0/nios2eds/bin/gnu/h-i686-mingw32/bin/../lib/gcc/nios2-elf/4.1.2/../../../../nios2-elf/lib\libc.a(lib_a-printf.o) (___vfprintf_internal_r)
c:/altera/10.0/nios2eds/bin/gnu/h-i686-mingw32/bin/../lib/gcc/nios2-elf/4.1.2/../../../../nios2-elf/lib\libc.a(lib_a-vsnprintf.o)
                              obj/default/terasic_lib/debug.o (vsnprintf)
c:/altera/10.0/nios2eds/bin/gnu/h-i686-mingw32/bin/../lib/gcc/nios2-elf/4.1.2/../../../../nios2-elf/lib\libc.a(lib_a-writer.o)
                              c:/altera/10.0/nios2eds/bin/gnu/h-i686-mingw32/bin/../lib/gcc/nios2-elf/4.1.2/../../../../nios2-elf/lib\libc.a(lib_a-stdio.o) (_write_r)
c:/altera/10.0/nios2eds/bin/gnu/h-i686-mingw32/bin/../lib/gcc/nios2-elf/4.1.2/../../../../nios2-elf/lib\libc.a(lib_a-wsetup.o)
                              c:/altera/10.0/nios2eds/bin/gnu/h-i686-mingw32/bin/../lib/gcc/nios2-elf/4.1.2/../../../../nios2-elf/lib\libc.a(lib_a-vfprintf.o) (__swsetup_r)
c:/altera/10.0/nios2eds/bin/gnu/h-i686-mingw32/bin/../lib/gcc/nios2-elf/4.1.2/../../../../nios2-elf/lib\libc.a(lib_a-closer.o)
                              c:/altera/10.0/nios2eds/bin/gnu/h-i686-mingw32/bin/../lib/gcc/nios2-elf/4.1.2/../../../../nios2-elf/lib\libc.a(lib_a-stdio.o) (_close_r)
c:/altera/10.0/nios2eds/bin/gnu/h-i686-mingw32/bin/../lib/gcc/nios2-elf/4.1.2/../../../../nios2-elf/lib\libc.a(lib_a-ctype_.o)
                              c:/altera/10.0/nios2eds/bin/gnu/h-i686-mingw32/bin/../lib/gcc/nios2-elf/4.1.2/../../../../nios2-elf/lib\libc.a(lib_a-strcasecmp.o) (__ctype_ptr)
c:/altera/10.0/nios2eds/bin/gnu/h-i686-mingw32/bin/../lib/gcc/nios2-elf/4.1.2/../../../../nios2-elf/lib\libc.a(lib_a-dtoa.o)
                              c:/altera/10.0/nios2eds/bin/gnu/h-i686-mingw32/bin/../lib/gcc/nios2-elf/4.1.2/../../../../nios2-elf/lib\libc.a(lib_a-vfprintf.o) (_dtoa_r)
c:/altera/10.0/nios2eds/bin/gnu/h-i686-mingw32/bin/../lib/gcc/nios2-elf/4.1.2/../../../../nios2-elf/lib\libc.a(lib_a-flags.o)
                              c:/altera/10.0/nios2eds/bin/gnu/h-i686-mingw32/bin/../lib/gcc/nios2-elf/4.1.2/../../../../nios2-elf/lib\libc.a(lib_a-fopen.o) (__sflags)
c:/altera/10.0/nios2eds/bin/gnu/h-i686-mingw32/bin/../lib/gcc/nios2-elf/4.1.2/../../../../nios2-elf/lib\libc.a(lib_a-fvwrite.o)
                              c:/altera/10.0/nios2eds/bin/gnu/h-i686-mingw32/bin/../lib/gcc/nios2-elf/4.1.2/../../../../nios2-elf/lib\libc.a(lib_a-fwrite.o) (__sfvwrite_r)
c:/altera/10.0/nios2eds/bin/gnu/h-i686-mingw32/bin/../lib/gcc/nios2-elf/4.1.2/../../../../nios2-elf/lib\libc.a(lib_a-isattyr.o)
                              c:/altera/10.0/nios2eds/bin/gnu/h-i686-mingw32/bin/../lib/gcc/nios2-elf/4.1.2/../../../../nios2-elf/lib\libc.a(lib_a-makebuf.o) (_isatty_r)
c:/altera/10.0/nios2eds/bin/gnu/h-i686-mingw32/bin/../lib/gcc/nios2-elf/4.1.2/../../../../nios2-elf/lib\libc.a(lib_a-locale.o)
                              c:/altera/10.0/nios2eds/bin/gnu/h-i686-mingw32/bin/../lib/gcc/nios2-elf/4.1.2/../../../../nios2-elf/lib\libc.a(lib_a-vfprintf.o) (_localeconv_r)
c:/altera/10.0/nios2eds/bin/gnu/h-i686-mingw32/bin/../lib/gcc/nios2-elf/4.1.2/../../../../nios2-elf/lib\libc.a(lib_a-lseekr.o)
                              c:/altera/10.0/nios2eds/bin/gnu/h-i686-mingw32/bin/../lib/gcc/nios2-elf/4.1.2/../../../../nios2-elf/lib\libc.a(lib_a-stdio.o) (_lseek_r)
c:/altera/10.0/nios2eds/bin/gnu/h-i686-mingw32/bin/../lib/gcc/nios2-elf/4.1.2/../../../../nios2-elf/lib\libc.a(lib_a-memchr.o)
                              c:/altera/10.0/nios2eds/bin/gnu/h-i686-mingw32/bin/../lib/gcc/nios2-elf/4.1.2/../../../../nios2-elf/lib\libc.a(lib_a-vfprintf.o) (memchr)
c:/altera/10.0/nios2eds/bin/gnu/h-i686-mingw32/bin/../lib/gcc/nios2-elf/4.1.2/../../../../nios2-elf/lib\libc.a(lib_a-memmove.o)
                              c:/altera/10.0/nios2eds/bin/gnu/h-i686-mingw32/bin/../lib/gcc/nios2-elf/4.1.2/../../../../nios2-elf/lib\libc.a(lib_a-fvwrite.o) (memmove)
c:/altera/10.0/nios2eds/bin/gnu/h-i686-mingw32/bin/../lib/gcc/nios2-elf/4.1.2/../../../../nios2-elf/lib\libc.a(lib_a-mprec.o)
                              c:/altera/10.0/nios2eds/bin/gnu/h-i686-mingw32/bin/../lib/gcc/nios2-elf/4.1.2/../../../../nios2-elf/lib\libc.a(lib_a-dtoa.o) (_Bfree)
c:/altera/10.0/nios2eds/bin/gnu/h-i686-mingw32/bin/../lib/gcc/nios2-elf/4.1.2/../../../../nios2-elf/lib\libc.a(lib_a-putc.o)
                              c:/altera/10.0/nios2eds/bin/gnu/h-i686-mingw32/bin/../lib/gcc/nios2-elf/4.1.2/../../../../nios2-elf/lib\libc.a(lib_a-putchar.o) (_putc_r)
c:/altera/10.0/nios2eds/bin/gnu/h-i686-mingw32/bin/../lib/gcc/nios2-elf/4.1.2/../../../../nios2-elf/lib\libc.a(lib_a-readr.o)
                              c:/altera/10.0/nios2eds/bin/gnu/h-i686-mingw32/bin/../lib/gcc/nios2-elf/4.1.2/../../../../nios2-elf/lib\libc.a(lib_a-stdio.o) (_read_r)
c:/altera/10.0/nios2eds/bin/gnu/h-i686-mingw32/bin/../lib/gcc/nios2-elf/4.1.2/../../../../nios2-elf/lib\libc.a(lib_a-reallocr.o)
                              c:/altera/10.0/nios2eds/bin/gnu/h-i686-mingw32/bin/../lib/gcc/nios2-elf/4.1.2/../../../../nios2-elf/lib\libc.a(lib_a-fvwrite.o) (_realloc_r)
c:/altera/10.0/nios2eds/bin/gnu/h-i686-mingw32/bin/../lib/gcc/nios2-elf/4.1.2/../../../../nios2-elf/lib\libc.a(lib_a-s_isinfd.o)
                              c:/altera/10.0/nios2eds/bin/gnu/h-i686-mingw32/bin/../lib/gcc/nios2-elf/4.1.2/../../../../nios2-elf/lib\libc.a(lib_a-vfprintf.o) (__isinfd)
c:/altera/10.0/nios2eds/bin/gnu/h-i686-mingw32/bin/../lib/gcc/nios2-elf/4.1.2/../../../../nios2-elf/lib\libc.a(lib_a-s_isnand.o)
                              c:/altera/10.0/nios2eds/bin/gnu/h-i686-mingw32/bin/../lib/gcc/nios2-elf/4.1.2/../../../../nios2-elf/lib\libc.a(lib_a-vfprintf.o) (__isnand)
c:/altera/10.0/nios2eds/bin/gnu/h-i686-mingw32/bin/../lib/gcc/nios2-elf/4.1.2/../../../../nios2-elf/lib\libc.a(lib_a-wbuf.o)
                              c:/altera/10.0/nios2eds/bin/gnu/h-i686-mingw32/bin/../lib/gcc/nios2-elf/4.1.2/../../../../nios2-elf/lib\libc.a(lib_a-putc.o) (__swbuf_r)
c:/altera/10.0/nios2eds/bin/gnu/h-i686-mingw32/bin/../lib/gcc/nios2-elf/4.1.2/../../../../nios2-elf/lib\libc.a(lib_a-callocr.o)
                              c:/altera/10.0/nios2eds/bin/gnu/h-i686-mingw32/bin/../lib/gcc/nios2-elf/4.1.2/../../../../nios2-elf/lib\libc.a(lib_a-mprec.o) (_calloc_r)
c:/altera/10.0/nios2eds/bin/gnu/h-i686-mingw32/bin/../lib/gcc/nios2-elf/4.1.2\libgcc.a(_addsub_df.o)
                              c:/altera/10.0/nios2eds/bin/gnu/h-i686-mingw32/bin/../lib/gcc/nios2-elf/4.1.2/../../../../nios2-elf/lib\libc.a(lib_a-dtoa.o) (__subdf3)
c:/altera/10.0/nios2eds/bin/gnu/h-i686-mingw32/bin/../lib/gcc/nios2-elf/4.1.2\libgcc.a(_mul_df.o)
                              c:/altera/10.0/nios2eds/bin/gnu/h-i686-mingw32/bin/../lib/gcc/nios2-elf/4.1.2/../../../../nios2-elf/lib\libc.a(lib_a-dtoa.o) (__muldf3)
c:/altera/10.0/nios2eds/bin/gnu/h-i686-mingw32/bin/../lib/gcc/nios2-elf/4.1.2\libgcc.a(_eq_df.o)
                              c:/altera/10.0/nios2eds/bin/gnu/h-i686-mingw32/bin/../lib/gcc/nios2-elf/4.1.2/../../../../nios2-elf/lib\libc.a(lib_a-vfprintf.o) (__eqdf2)
c:/altera/10.0/nios2eds/bin/gnu/h-i686-mingw32/bin/../lib/gcc/nios2-elf/4.1.2\libgcc.a(_ne_df.o)
                              c:/altera/10.0/nios2eds/bin/gnu/h-i686-mingw32/bin/../lib/gcc/nios2-elf/4.1.2/../../../../nios2-elf/lib\libc.a(lib_a-vfprintf.o) (__nedf2)
c:/altera/10.0/nios2eds/bin/gnu/h-i686-mingw32/bin/../lib/gcc/nios2-elf/4.1.2\libgcc.a(_gt_df.o)
                              c:/altera/10.0/nios2eds/bin/gnu/h-i686-mingw32/bin/../lib/gcc/nios2-elf/4.1.2/../../../../nios2-elf/lib\libc.a(lib_a-dtoa.o) (__gtdf2)
c:/altera/10.0/nios2eds/bin/gnu/h-i686-mingw32/bin/../lib/gcc/nios2-elf/4.1.2\libgcc.a(_ge_df.o)
                              c:/altera/10.0/nios2eds/bin/gnu/h-i686-mingw32/bin/../lib/gcc/nios2-elf/4.1.2/../../../../nios2-elf/lib\libc.a(lib_a-dtoa.o) (__gedf2)
c:/altera/10.0/nios2eds/bin/gnu/h-i686-mingw32/bin/../lib/gcc/nios2-elf/4.1.2\libgcc.a(_lt_df.o)
                              c:/altera/10.0/nios2eds/bin/gnu/h-i686-mingw32/bin/../lib/gcc/nios2-elf/4.1.2/../../../../nios2-elf/lib\libc.a(lib_a-vfprintf.o) (__ltdf2)
c:/altera/10.0/nios2eds/bin/gnu/h-i686-mingw32/bin/../lib/gcc/nios2-elf/4.1.2\libgcc.a(_si_to_df.o)
                              c:/altera/10.0/nios2eds/bin/gnu/h-i686-mingw32/bin/../lib/gcc/nios2-elf/4.1.2/../../../../nios2-elf/lib\libc.a(lib_a-dtoa.o) (__floatsidf)
c:/altera/10.0/nios2eds/bin/gnu/h-i686-mingw32/bin/../lib/gcc/nios2-elf/4.1.2\libgcc.a(_df_to_si.o)
                              c:/altera/10.0/nios2eds/bin/gnu/h-i686-mingw32/bin/../lib/gcc/nios2-elf/4.1.2/../../../../nios2-elf/lib\libc.a(lib_a-dtoa.o) (__fixdfsi)
c:/altera/10.0/nios2eds/bin/gnu/h-i686-mingw32/bin/../lib/gcc/nios2-elf/4.1.2\libgcc.a(_usi_to_df.o)
                              c:/altera/10.0/nios2eds/bin/gnu/h-i686-mingw32/bin/../lib/gcc/nios2-elf/4.1.2/../../../../nios2-elf/lib\libc.a(lib_a-dtoa.o) (__floatunsidf)
c:/altera/10.0/nios2eds/bin/gnu/h-i686-mingw32/bin/../lib/gcc/nios2-elf/4.1.2\libgcc.a(_fpcmp_parts_df.o)
                              c:/altera/10.0/nios2eds/bin/gnu/h-i686-mingw32/bin/../lib/gcc/nios2-elf/4.1.2\libgcc.a(_eq_df.o) (__fpcmp_parts_d)
../DE2_115_SD_Card_Audio_Player_bsp/\libhal_bsp.a(alt_close.o)
                              c:/altera/10.0/nios2eds/bin/gnu/h-i686-mingw32/bin/../lib/gcc/nios2-elf/4.1.2/../../../../nios2-elf/lib\libc.a(lib_a-closer.o) (close)
../DE2_115_SD_Card_Audio_Player_bsp/\libhal_bsp.a(alt_dev.o)
                              ../DE2_115_SD_Card_Audio_Player_bsp/\libhal_bsp.a(alt_close.o) (alt_fd_list)
../DE2_115_SD_Card_Audio_Player_bsp/\libhal_bsp.a(alt_errno.o)
                              ../DE2_115_SD_Card_Audio_Player_bsp/\libhal_bsp.a(alt_close.o) (alt_errno)
../DE2_115_SD_Card_Audio_Player_bsp/\libhal_bsp.a(alt_fstat.o)
                              c:/altera/10.0/nios2eds/bin/gnu/h-i686-mingw32/bin/../lib/gcc/nios2-elf/4.1.2/../../../../nios2-elf/lib\libc.a(lib_a-fstatr.o) (fstat)
../DE2_115_SD_Card_Audio_Player_bsp/\libhal_bsp.a(alt_irq_register.o)
                              obj/default/main.o (alt_irq_register)
../DE2_115_SD_Card_Audio_Player_bsp/\libhal_bsp.a(alt_irq_vars.o)
                              ../DE2_115_SD_Card_Audio_Player_bsp/\libhal_bsp.a(alt_irq_register.o) (alt_irq_active)
../DE2_115_SD_Card_Audio_Player_bsp/\libhal_bsp.a(alt_isatty.o)
                              c:/altera/10.0/nios2eds/bin/gnu/h-i686-mingw32/bin/../lib/gcc/nios2-elf/4.1.2/../../../../nios2-elf/lib\libc.a(lib_a-isattyr.o) (isatty)
../DE2_115_SD_Card_Audio_Player_bsp/\libhal_bsp.a(alt_load.o)
                              ../DE2_115_SD_Card_Audio_Player_bsp//obj/HAL/src/crt0.o (alt_load)
../DE2_115_SD_Card_Audio_Player_bsp/\libhal_bsp.a(alt_lseek.o)
                              c:/altera/10.0/nios2eds/bin/gnu/h-i686-mingw32/bin/../lib/gcc/nios2-elf/4.1.2/../../../../nios2-elf/lib\libc.a(lib_a-lseekr.o) (lseek)
../DE2_115_SD_Card_Audio_Player_bsp/\libhal_bsp.a(alt_main.o)
                              ../DE2_115_SD_Card_Audio_Player_bsp//obj/HAL/src/crt0.o (alt_main)
../DE2_115_SD_Card_Audio_Player_bsp/\libhal_bsp.a(alt_malloc_lock.o)
                              c:/altera/10.0/nios2eds/bin/gnu/h-i686-mingw32/bin/../lib/gcc/nios2-elf/4.1.2/../../../../nios2-elf/lib\libc.a(lib_a-freer.o) (__malloc_lock)
../DE2_115_SD_Card_Audio_Player_bsp/\libhal_bsp.a(alt_open.o)
                              c:/altera/10.0/nios2eds/bin/gnu/h-i686-mingw32/bin/../lib/gcc/nios2-elf/4.1.2/../../../../nios2-elf/lib\libc.a(lib_a-openr.o) (open)
../DE2_115_SD_Card_Audio_Player_bsp/\libhal_bsp.a(alt_read.o)
                              c:/altera/10.0/nios2eds/bin/gnu/h-i686-mingw32/bin/../lib/gcc/nios2-elf/4.1.2/../../../../nios2-elf/lib\libc.a(lib_a-readr.o) (read)
../DE2_115_SD_Card_Audio_Player_bsp/\libhal_bsp.a(alt_release_fd.o)
                              ../DE2_115_SD_Card_Audio_Player_bsp/\libhal_bsp.a(alt_close.o) (alt_release_fd)
../DE2_115_SD_Card_Audio_Player_bsp/\libhal_bsp.a(alt_sbrk.o)
                              c:/altera/10.0/nios2eds/bin/gnu/h-i686-mingw32/bin/../lib/gcc/nios2-elf/4.1.2/../../../../nios2-elf/lib\libc.a(lib_a-sbrkr.o) (sbrk)
../DE2_115_SD_Card_Audio_Player_bsp/\libhal_bsp.a(alt_tick.o)
                              obj/default/main.o (_alt_tick_rate)
../DE2_115_SD_Card_Audio_Player_bsp/\libhal_bsp.a(alt_usleep.o)
                              obj/default/main.o (usleep)
../DE2_115_SD_Card_Audio_Player_bsp/\libhal_bsp.a(alt_write.o)
                              c:/altera/10.0/nios2eds/bin/gnu/h-i686-mingw32/bin/../lib/gcc/nios2-elf/4.1.2/../../../../nios2-elf/lib\libc.a(lib_a-writer.o) (write)
../DE2_115_SD_Card_Audio_Player_bsp/\libhal_bsp.a(alt_sys_init.o)
                              ../DE2_115_SD_Card_Audio_Player_bsp/\libhal_bsp.a(alt_main.o) (alt_irq_init)
../DE2_115_SD_Card_Audio_Player_bsp/\libhal_bsp.a(altera_avalon_cfi_flash.o)
                              ../DE2_115_SD_Card_Audio_Player_bsp/\libhal_bsp.a(alt_sys_init.o) (alt_flash_cfi_init)
../DE2_115_SD_Card_Audio_Player_bsp/\libhal_bsp.a(altera_avalon_cfi_flash_table.o)
                              ../DE2_115_SD_Card_Audio_Player_bsp/\libhal_bsp.a(altera_avalon_cfi_flash.o) (alt_set_flash_width_func)
../DE2_115_SD_Card_Audio_Player_bsp/\libhal_bsp.a(altera_avalon_jtag_uart_fd.o)
                              ../DE2_115_SD_Card_Audio_Player_bsp/\libhal_bsp.a(alt_sys_init.o) (altera_avalon_jtag_uart_read_fd)
../DE2_115_SD_Card_Audio_Player_bsp/\libhal_bsp.a(altera_avalon_jtag_uart_init.o)
                              ../DE2_115_SD_Card_Audio_Player_bsp/\libhal_bsp.a(alt_sys_init.o) (altera_avalon_jtag_uart_init)
../DE2_115_SD_Card_Audio_Player_bsp/\libhal_bsp.a(altera_avalon_jtag_uart_ioctl.o)
                              ../DE2_115_SD_Card_Audio_Player_bsp/\libhal_bsp.a(altera_avalon_jtag_uart_fd.o) (altera_avalon_jtag_uart_ioctl)
../DE2_115_SD_Card_Audio_Player_bsp/\libhal_bsp.a(altera_avalon_jtag_uart_read.o)
                              ../DE2_115_SD_Card_Audio_Player_bsp/\libhal_bsp.a(altera_avalon_jtag_uart_fd.o) (altera_avalon_jtag_uart_read)
../DE2_115_SD_Card_Audio_Player_bsp/\libhal_bsp.a(altera_avalon_jtag_uart_write.o)
                              ../DE2_115_SD_Card_Audio_Player_bsp/\libhal_bsp.a(altera_avalon_jtag_uart_fd.o) (altera_avalon_jtag_uart_write)
../DE2_115_SD_Card_Audio_Player_bsp/\libhal_bsp.a(altera_avalon_lcd_16207.o)
                              ../DE2_115_SD_Card_Audio_Player_bsp/\libhal_bsp.a(alt_sys_init.o) (altera_avalon_lcd_16207_init)
../DE2_115_SD_Card_Audio_Player_bsp/\libhal_bsp.a(altera_avalon_lcd_16207_fd.o)
                              ../DE2_115_SD_Card_Audio_Player_bsp/\libhal_bsp.a(alt_sys_init.o) (altera_avalon_lcd_16207_write_fd)
../DE2_115_SD_Card_Audio_Player_bsp/\libhal_bsp.a(altera_avalon_timer_sc.o)
                              ../DE2_115_SD_Card_Audio_Player_bsp/\libhal_bsp.a(alt_sys_init.o) (alt_avalon_timer_sc_init)
../DE2_115_SD_Card_Audio_Player_bsp/\libhal_bsp.a(altera_avalon_uart_fd.o)
                              ../DE2_115_SD_Card_Audio_Player_bsp/\libhal_bsp.a(alt_sys_init.o) (altera_avalon_uart_read_fd)
../DE2_115_SD_Card_Audio_Player_bsp/\libhal_bsp.a(altera_avalon_uart_init.o)
                              ../DE2_115_SD_Card_Audio_Player_bsp/\libhal_bsp.a(alt_sys_init.o) (altera_avalon_uart_init)
../DE2_115_SD_Card_Audio_Player_bsp/\libhal_bsp.a(altera_avalon_uart_read.o)
                              ../DE2_115_SD_Card_Audio_Player_bsp/\libhal_bsp.a(altera_avalon_uart_fd.o) (altera_avalon_uart_read)
../DE2_115_SD_Card_Audio_Player_bsp/\libhal_bsp.a(altera_avalon_uart_write.o)
                              ../DE2_115_SD_Card_Audio_Player_bsp/\libhal_bsp.a(altera_avalon_uart_fd.o) (altera_avalon_uart_write)
../DE2_115_SD_Card_Audio_Player_bsp/\libhal_bsp.a(alt_alarm_start.o)
                              ../DE2_115_SD_Card_Audio_Player_bsp/\libhal_bsp.a(altera_avalon_jtag_uart_init.o) (alt_alarm_start)
../DE2_115_SD_Card_Audio_Player_bsp/\libhal_bsp.a(alt_busy_sleep.o)
                              ../DE2_115_SD_Card_Audio_Player_bsp/\libhal_bsp.a(alt_usleep.o) (alt_busy_sleep)
../DE2_115_SD_Card_Audio_Player_bsp/\libhal_bsp.a(alt_dcache_flush.o)
                              ../DE2_115_SD_Card_Audio_Player_bsp/\libhal_bsp.a(altera_avalon_cfi_flash.o) (alt_dcache_flush)
../DE2_115_SD_Card_Audio_Player_bsp/\libhal_bsp.a(alt_dcache_flush_all.o)
                              ../DE2_115_SD_Card_Audio_Player_bsp/\libhal_bsp.a(alt_load.o) (alt_dcache_flush_all)
../DE2_115_SD_Card_Audio_Player_bsp/\libhal_bsp.a(alt_dev_llist_insert.o)
                              ../DE2_115_SD_Card_Audio_Player_bsp/\libhal_bsp.a(alt_sys_init.o) (alt_dev_llist_insert)
../DE2_115_SD_Card_Audio_Player_bsp/\libhal_bsp.a(alt_do_ctors.o)
                              ../DE2_115_SD_Card_Audio_Player_bsp/\libhal_bsp.a(alt_main.o) (_do_ctors)
../DE2_115_SD_Card_Audio_Player_bsp/\libhal_bsp.a(alt_do_dtors.o)
                              ../DE2_115_SD_Card_Audio_Player_bsp/\libhal_bsp.a(alt_main.o) (_do_dtors)
../DE2_115_SD_Card_Audio_Player_bsp/\libhal_bsp.a(alt_find_dev.o)
                              ../DE2_115_SD_Card_Audio_Player_bsp/\libhal_bsp.a(alt_open.o) (alt_find_dev)
../DE2_115_SD_Card_Audio_Player_bsp/\libhal_bsp.a(alt_find_file.o)
                              ../DE2_115_SD_Card_Audio_Player_bsp/\libhal_bsp.a(alt_open.o) (alt_find_file)
../DE2_115_SD_Card_Audio_Player_bsp/\libhal_bsp.a(alt_flash_dev.o)
                              ../DE2_115_SD_Card_Audio_Player_bsp/\libhal_bsp.a(altera_avalon_cfi_flash.o) (alt_flash_dev_list)
../DE2_115_SD_Card_Audio_Player_bsp/\libhal_bsp.a(alt_get_fd.o)
                              ../DE2_115_SD_Card_Audio_Player_bsp/\libhal_bsp.a(alt_open.o) (alt_get_fd)
../DE2_115_SD_Card_Audio_Player_bsp/\libhal_bsp.a(alt_icache_flush_all.o)
                              ../DE2_115_SD_Card_Audio_Player_bsp/\libhal_bsp.a(alt_load.o) (alt_icache_flush_all)
../DE2_115_SD_Card_Audio_Player_bsp/\libhal_bsp.a(alt_iic.o)
                              ../DE2_115_SD_Card_Audio_Player_bsp/\libhal_bsp.a(altera_avalon_jtag_uart_init.o) (alt_ic_isr_register)
../DE2_115_SD_Card_Audio_Player_bsp/\libhal_bsp.a(alt_iic_isr_register.o)
                              ../DE2_115_SD_Card_Audio_Player_bsp/\libhal_bsp.a(alt_iic.o) (alt_iic_isr_register)
../DE2_115_SD_Card_Audio_Player_bsp/\libhal_bsp.a(alt_io_redirect.o)
                              ../DE2_115_SD_Card_Audio_Player_bsp/\libhal_bsp.a(alt_main.o) (alt_io_redirect)
../DE2_115_SD_Card_Audio_Player_bsp/\libhal_bsp.a(alt_irq_entry.o)
                              ../DE2_115_SD_Card_Audio_Player_bsp/\libhal_bsp.a(alt_irq_register.o) (alt_irq_entry)
../DE2_115_SD_Card_Audio_Player_bsp/\libhal_bsp.a(alt_irq_handler.o)
                              ../DE2_115_SD_Card_Audio_Player_bsp/\libhal_bsp.a(alt_irq_register.o) (alt_irq_handler)
../DE2_115_SD_Card_Audio_Player_bsp/\libhal_bsp.a(altera_nios2_qsys_irq.o)
                              ../DE2_115_SD_Card_Audio_Player_bsp/\libhal_bsp.a(alt_sys_init.o) (altera_nios2_qsys_irq_init)
../DE2_115_SD_Card_Audio_Player_bsp/\libhal_bsp.a(altera_avalon_cfi_flash_amd.o)
                              ../DE2_115_SD_Card_Audio_Player_bsp/\libhal_bsp.a(altera_avalon_cfi_flash_table.o) (alt_program_amd)
../DE2_115_SD_Card_Audio_Player_bsp/\libhal_bsp.a(altera_avalon_cfi_flash_intel.o)
                              ../DE2_115_SD_Card_Audio_Player_bsp/\libhal_bsp.a(altera_avalon_cfi_flash_table.o) (alt_program_intel)
../DE2_115_SD_Card_Audio_Player_bsp/\libhal_bsp.a(alt_exception_entry.o)
                              ../DE2_115_SD_Card_Audio_Player_bsp/\libhal_bsp.a(alt_irq_entry.o) (alt_exception)
../DE2_115_SD_Card_Audio_Player_bsp/\libhal_bsp.a(alt_icache_flush.o)
                              ../DE2_115_SD_Card_Audio_Player_bsp/\libhal_bsp.a(alt_icache_flush_all.o) (alt_icache_flush)
c:/altera/10.0/nios2eds/bin/gnu/h-i686-mingw32/bin/../lib/gcc/nios2-elf/4.1.2/../../../../nios2-elf/lib\libc.a(lib_a-atexit.o)
                              ../DE2_115_SD_Card_Audio_Player_bsp/\libhal_bsp.a(alt_main.o) (atexit)
c:/altera/10.0/nios2eds/bin/gnu/h-i686-mingw32/bin/../lib/gcc/nios2-elf/4.1.2/../../../../nios2-elf/lib\libc.a(lib_a-exit.o)
                              ../DE2_115_SD_Card_Audio_Player_bsp/\libhal_bsp.a(alt_main.o) (exit)
c:/altera/10.0/nios2eds/bin/gnu/h-i686-mingw32/bin/../lib/gcc/nios2-elf/4.1.2/../../../../nios2-elf/lib\libc.a(lib_a-memcmp.o)
                              ../DE2_115_SD_Card_Audio_Player_bsp/\libhal_bsp.a(altera_avalon_cfi_flash.o) (memcmp)
c:/altera/10.0/nios2eds/bin/gnu/h-i686-mingw32/bin/../lib/gcc/nios2-elf/4.1.2/../../../../nios2-elf/lib\libc.a(lib_a-__atexit.o)
                              c:/altera/10.0/nios2eds/bin/gnu/h-i686-mingw32/bin/../lib/gcc/nios2-elf/4.1.2/../../../../nios2-elf/lib\libc.a(lib_a-atexit.o) (__register_exitproc)
c:/altera/10.0/nios2eds/bin/gnu/h-i686-mingw32/bin/../lib/gcc/nios2-elf/4.1.2/../../../../nios2-elf/lib\libc.a(lib_a-__call_atexit.o)
                              c:/altera/10.0/nios2eds/bin/gnu/h-i686-mingw32/bin/../lib/gcc/nios2-elf/4.1.2/../../../../nios2-elf/lib\libc.a(lib_a-exit.o) (__call_exitprocs)
../DE2_115_SD_Card_Audio_Player_bsp/\libhal_bsp.a(alt_exit.o)
                              c:/altera/10.0/nios2eds/bin/gnu/h-i686-mingw32/bin/../lib/gcc/nios2-elf/4.1.2/../../../../nios2-elf/lib\libc.a(lib_a-exit.o) (_exit)

Allocating common symbols
Common symbol       size              file

alt_irq             0x100             ../DE2_115_SD_Card_Audio_Player_bsp/\libhal_bsp.a(alt_irq_handler.o)
errno               0x4               c:/altera/10.0/nios2eds/bin/gnu/h-i686-mingw32/bin/../lib/gcc/nios2-elf/4.1.2/../../../../nios2-elf/lib\libc.a(lib_a-int_errno.o)
_atexit0            0x190             c:/altera/10.0/nios2eds/bin/gnu/h-i686-mingw32/bin/../lib/gcc/nios2-elf/4.1.2/../../../../nios2-elf/lib\libc.a(lib_a-atexit.o)

Memory Configuration

Name             Origin             Length             Attributes
av_tri_s1_cfi_flash_0 0x02800000         0x00800000
reset            0x03040000         0x00000020
onchip_memory2   0x03040020         0x0003ffe0
*default*        0x00000000         0xffffffff

Linker script and memory map

LOAD ../DE2_115_SD_Card_Audio_Player_bsp//obj/HAL/src/crt0.o
LOAD obj/default/main.o
LOAD obj/default/terasic_fat/FatFileSystem.o
LOAD obj/default/terasic_fat/FatInternal.o
LOAD obj/default/terasic_lib/AUDIO.o
LOAD obj/default/terasic_lib/I2C.o
LOAD obj/default/terasic_lib/LCD.o
LOAD obj/default/terasic_lib/LED.o
LOAD obj/default/terasic_lib/SEG7.o
LOAD obj/default/terasic_lib/WaveLib.o
LOAD obj/default/terasic_lib/debug.o
LOAD obj/default/terasic_sdcard/crc16.o
LOAD obj/default/terasic_sdcard/crc7.o
LOAD obj/default/terasic_sdcard/sd_hal.o
LOAD obj/default/terasic_sdcard/sd_lib.o
LOAD obj/default/terasic_sdcard/sd_protocol.o
LOAD c:/altera/10.0/nios2eds/bin/gnu/h-i686-mingw32/bin/../lib/gcc/nios2-elf/4.1.2/../../../../nios2-elf/lib\libstdc++.a
LOAD c:/altera/10.0/nios2eds/bin/gnu/h-i686-mingw32/bin/../lib/gcc/nios2-elf/4.1.2/../../../../nios2-elf/lib\libm.a
LOAD c:/altera/10.0/nios2eds/bin/gnu/h-i686-mingw32/bin/../lib/gcc/nios2-elf/4.1.2\libgcc.a
START GROUP
LOAD c:/altera/10.0/nios2eds/bin/gnu/h-i686-mingw32/bin/../lib/gcc/nios2-elf/4.1.2/../../../../nios2-elf/lib\libc.a
LOAD c:/altera/10.0/nios2eds/bin/gnu/h-i686-mingw32/bin/../lib/gcc/nios2-elf/4.1.2\libgcc.a
LOAD ../DE2_115_SD_Card_Audio_Player_bsp/\libhal_bsp.a
END GROUP
LOAD c:/altera/10.0/nios2eds/bin/gnu/h-i686-mingw32/bin/../lib/gcc/nios2-elf/4.1.2\libgcc.a
                0x02800000                __alt_mem_av_tri_s1_cfi_flash_0 = 0x2800000
                0x03040000                __alt_mem_onchip_memory2 = 0x3040000

.entry          0x03040000       0x20
 *(.entry)
 .entry         0x03040000       0x20 ../DE2_115_SD_Card_Audio_Player_bsp//obj/HAL/src/crt0.o
                0x03040000                __reset

.exceptions     0x03040020      0x1a4
                0x03040020                PROVIDE (__ram_exceptions_start, <code 341> (.))
                0x03040020                . = ALIGN (0x20)
 *(.irq)
 *(.exceptions.entry.label)
 .exceptions.entry.label
                0x03040020        0x0 ../DE2_115_SD_Card_Audio_Player_bsp/\libhal_bsp.a(alt_irq_entry.o)
                0x03040020                alt_irq_entry
 .exceptions.entry.label
                0x03040020        0x0 ../DE2_115_SD_Card_Audio_Player_bsp/\libhal_bsp.a(alt_exception_entry.o)
                0x03040020                alt_exception
 *(.exceptions.entry.user)
 *(.exceptions.entry)
 .exceptions.entry
                0x03040020       0x54 ../DE2_115_SD_Card_Audio_Player_bsp/\libhal_bsp.a(alt_exception_entry.o)
 *(.exceptions.irqtest.user)
 *(.exceptions.irqtest)
 .exceptions.irqtest
                0x03040074       0x10 ../DE2_115_SD_Card_Audio_Player_bsp/\libhal_bsp.a(alt_irq_entry.o)
 *(.exceptions.irqhandler.user)
 *(.exceptions.irqhandler)
 .exceptions.irqhandler
                0x03040084        0x4 ../DE2_115_SD_Card_Audio_Player_bsp/\libhal_bsp.a(alt_irq_entry.o)
 *(.exceptions.irqreturn.user)
 *(.exceptions.irqreturn)
 .exceptions.irqreturn
                0x03040088        0x4 ../DE2_115_SD_Card_Audio_Player_bsp/\libhal_bsp.a(alt_irq_entry.o)
 *(.exceptions.notirq.label)
 .exceptions.notirq.label
                0x0304008c        0x0 ../DE2_115_SD_Card_Audio_Player_bsp/\libhal_bsp.a(alt_irq_entry.o)
 *(.exceptions.notirq.user)
 *(.exceptions.notirq)
 .exceptions.notirq
                0x0304008c        0x8 ../DE2_115_SD_Card_Audio_Player_bsp/\libhal_bsp.a(alt_exception_entry.o)
 *(.exceptions.soft.user)
 *(.exceptions.soft)
 *(.exceptions.unknown.user)
 *(.exceptions.unknown)
 .exceptions.unknown
                0x03040094        0x4 ../DE2_115_SD_Card_Audio_Player_bsp/\libhal_bsp.a(alt_exception_entry.o)
 *(.exceptions.exit.label)
 .exceptions.exit.label
                0x03040098        0x0 ../DE2_115_SD_Card_Audio_Player_bsp/\libhal_bsp.a(alt_irq_entry.o)
 .exceptions.exit.label
                0x03040098        0x0 ../DE2_115_SD_Card_Audio_Player_bsp/\libhal_bsp.a(alt_exception_entry.o)
 *(.exceptions.exit.user)
 *(.exceptions.exit)
 .exceptions.exit
                0x03040098       0x54 ../DE2_115_SD_Card_Audio_Player_bsp/\libhal_bsp.a(alt_exception_entry.o)
 *(.exceptions)
 .exceptions    0x030400ec       0xd8 ../DE2_115_SD_Card_Audio_Player_bsp/\libhal_bsp.a(alt_irq_handler.o)
                0x030400ec                alt_irq_handler
                0x030401c4                PROVIDE (__ram_exceptions_end, <code 341> (.))
                0x03040020                PROVIDE (__flash_exceptions_start, LOADADDR (.exceptions))

.text           0x030401c4    0x197f4
                0x030401c4                PROVIDE (stext, <code 341> (.))
 *(.interp)
 *(.hash)
 *(.dynsym)
 *(.dynstr)
 *(.gnu.version)
 *(.gnu.version_d)
 *(.gnu.version_r)
 *(.rel.init)
 *(.rela.init)
 *(.rel.text .rel.text.* .rel.gnu.linkonce.t.*)
 *(.rela.text .rela.text.* .rela.gnu.linkonce.t.*)
 *(.rel.fini)
 *(.rela.fini)
 *(.rel.rodata .rel.rodata.* .rel.gnu.linkonce.r.*)
 *(.rela.rodata .rela.rodata.* .rela.gnu.linkonce.r.*)
 *(.rel.data .rel.data.* .rel.gnu.linkonce.d.*)
 *(.rela.data .rela.data.* .rela.gnu.linkonce.d.*)
 *(.rel.tdata .rel.tdata.* .rel.gnu.linkonce.td.*)
 *(.rela.tdata .rela.tdata.* .rela.gnu.linkonce.td.*)
 *(.rel.tbss .rel.tbss.* .rel.gnu.linkonce.tb.*)
 *(.rela.tbss .rela.tbss.* .rela.gnu.linkonce.tb.*)
 *(.rel.ctors)
 *(.rela.ctors)
 *(.rel.dtors)
 *(.rela.dtors)
 *(.rel.got)
 *(.rela.got)
 *(.rel.sdata .rel.sdata.* .rel.gnu.linkonce.s.*)
 *(.rela.sdata .rela.sdata.* .rela.gnu.linkonce.s.*)
 *(.rel.sbss .rel.sbss.* .rel.gnu.linkonce.sb.*)
 *(.rela.sbss .rela.sbss.* .rela.gnu.linkonce.sb.*)
 *(.rel.sdata2 .rel.sdata2.* .rel.gnu.linkonce.s2.*)
 *(.rela.sdata2 .rela.sdata2.* .rela.gnu.linkonce.s2.*)
 *(.rel.sbss2 .rel.sbss2.* .rel.gnu.linkonce.sb2.*)
 *(.rela.sbss2 .rela.sbss2.* .rela.gnu.linkonce.sb2.*)
 *(.rel.bss .rel.bss.* .rel.gnu.linkonce.b.*)
 *(.rela.bss .rela.bss.* .rela.gnu.linkonce.b.*)
 *(.rel.plt)
 *(.rela.plt)
 *(.rel.dyn)
 *(.init)
 *(.plt)
 *(.text .stub .text.* .gnu.linkonce.t.*)
 .text          0x030401c4       0x4c ../DE2_115_SD_Card_Audio_Player_bsp//obj/HAL/src/crt0.o
                0x030401c4                _start
 .text          0x03040210     0x19dc obj/default/main.o
                0x03040490                led_display_count
                0x03040fcc                waveplay_stop
                0x03040314                update_status
                0x03040564                is_supporrted_sample_rate
                0x030404c0                wait_sdcard_insert
                0x0304042c                lcd_display
                0x03040c94                waveplay_execute
                0x03040404                lcd_open
                0x03040460                led_display
                0x03040210                welcome_display
                0x03041814                main
                0x03041550                Fat_Test
                0x030411e0                IRDA_init
                0x03040fe8                handle_key
                0x03040608                build_wave_play_list
                0x03041234                handle_IrDA
                0x03040a18                waveplay_start
                0x03040278                demo_introduce
                0x030403b0                DisplayTime
 .text          0x03041bec     0x150c obj/default/terasic_fat/FatFileSystem.o
                0x03041d10                Fat_FileBrowseBegin
                0x03041d8c                Fat_FileBrowseNext
                0x03042564                Fat_FileExist
                0x03042614                Fat_FileOpen
                0x03041bec                Fat_Mount
                0x03042e98                Fat_FileClose
                0x03042284                Fat_FileCount
                0x0304284c                Fat_FileSize
                0x0304289c                Fat_FileRead
                0x03042edc                Fat_SpeedTest
                0x03042d74                Fat_FileSeek
                0x0304238c                fatComposeShortFilename
                0x03041c80                Fat_Type
                0x030422ec                fatSameLongFilename
                0x03041c34                Fat_Unmount
 .text          0x030430f8     0x1820 obj/default/terasic_fat/FatInternal.o
                0x03043890                fatIsValidDir
                0x03043284                fatNextCluster
                0x03044368                fatMount
                0x03043938                fatIsUnusedDir
                0x03044734                SD_ReadBlock512
                0x03043554                fatDelClusterList
                0x03044254                fatFindUnusedDirectory
                0x030441b4                fatFindDirectory
                0x03044124                fatReadSecter
                0x03043988                fatDump
                0x03043738                fatDumpDate
                0x03044770                SD_WriteBlock512
                0x03044098                fatArray2Value
                0x030431b0                fat32ClusterType
                0x030430f8                fat16ClusterType
                0x030437bc                fatDumpTime
                0x030447ac                fatMountSdcard
                0x030433dc                fatFindUnusedCluster
                0x03043840                fatIsLastDir
 .text          0x03044918      0xd98 obj/default/terasic_lib/AUDIO.o
                0x03044918                AUDIO_Init
                0x03044b94                AUDIO_AdcEnableHighPassFilter
                0x03045464                aduio_RegWrite
                0x03045684                AUDIO_FifoClear
                0x03045630                AUDIO_AdcFifoGetData
                0x0304534c                AUDIO_EnableByPass
                0x03045114                AUDIO_SetLineInVol
                0x03044cc4                AUDIO_DacEnableZeroCross
                0x03044b1c                AUDIO_MicBoost
                0x030453d8                AUDIO_EnableSiteTone
                0x03044da4                AUDIO_DacEnableSoftMute
                0x03044c0c                AUDIO_DacDeemphasisControl
                0x03044f9c                AUDIO_SetInputSource
                0x03044adc                AUDIO_InterfaceActive
                0x03044ebc                AUDIO_LineInMute
                0x03044e30                AUDIO_MicMute
                0x030455f8                AUDIO_AdcFifoNotEmpty
                0x030455b4                AUDIO_DacFifoSetData
                0x03045028                AUDIO_SetSampleRate
                0x03045230                AUDIO_SetLineOutVol
                0x03045560                AUDIO_DacFifoNotFull
 .text          0x030456b0      0x718 obj/default/terasic_lib/I2C.o
                0x030457ac                I2C_Read
                0x03045b58                i2c_write
                0x030458d4                I2C_MultipleRead
                0x030456b0                I2C_Write
                0x03045a58                i2c_start
                0x03045ae0                i2c_stop
                0x03045c7c                i2c_read
 .text          0x03045dc8      0x184 obj/default/terasic_lib/LCD.o
                0x03045e88                LCD_Clear
                0x03045e24                LCD_TextOut
                0x03045f10                LCD_Close
                0x03045dc8                LCD_Open
 .text          0x03045f4c      0x12c obj/default/terasic_lib/LED.o
                0x03045f78                LED_AllOff
                0x03045fa4                LED_Display
                0x03045f4c                LED_AllOn
                0x03045ff4                LED_LightCount
 .text          0x03046078      0x2ec obj/default/terasic_lib/SEG7.o
                0x03046078                SEG7_Clear
                0x03046138                SEG7_Number
                0x030460d4                SEG7_Full
                0x03046280                SEG7_Decimal
                0x030461b0                SEG7_Hex
 .text          0x03046364      0x574 obj/default/terasic_lib/WaveLib.o
                0x03046874                Wave_GetWaveOffset
                0x03046364                waveGetChunkOffset
                0x03046498                WAVE_IsWaveFile
                0x030467d8                Wave_GetDataByteSize
                0x030466c8                Wave_GetChannelNum
                0x03046620                Wave_GetSampleRate
                0x03046750                Wave_GetSampleBitNum
 .text          0x030468d8      0x194 obj/default/terasic_lib/debug.o
                0x03046908                myprintf
                0x03046968                myprintf_hexarray
                0x030468d8                debug_output
                0x030469e8                myprintf_dwordarray
 .text          0x03046a6c       0xa8 obj/default/terasic_sdcard/crc16.o
                0x03046a6c                crc16
 .text          0x03046b14       0xc0 obj/default/terasic_sdcard/crc7.o
                0x03046b14                crc7_byte
                0x03046b60                crc7
 .text          0x03046bd4      0x7b4 obj/default/terasic_sdcard/sd_hal.o
                0x03046bd4                SDHAL_IsSupport4Bits
                0x03046d58                SDHAL_GetResponse
                0x03046c64                SDHAL_SendCmd
                0x03046ff8                SDHAL_ReadData
                0x0304732c                SDHAL_DummyClock
                0x03046c00                SDHAL_Init
                0x03047150                SDHAL_WriteData
 .text          0x03047388      0x4c0 obj/default/terasic_sdcard/sd_lib.o
                0x030477b8                SDLIB_WriteBlock512
                0x03047388                SDLIB_Init
                0x03047728                SDLIB_ReadBlock512
 .text          0x03047848     0x16f4 obj/default/terasic_sdcard/sd_protocol.o
                0x03048ca0                SD_CMD24
                0x03047dd0                SD_CMD2
                0x03048980                SD_ACMD42
                0x030484c0                SD_CMD7
                0x03048648                SD_CMD16
                0x03048ec4                ArrayToU32
                0x03047898                SD_CMD0
                0x03047848                SD_Init
                0x03048e84                SD_WriteData
                0x030487e8                SD_ACMD6
                0x03047870                SD_IsSupport4Bits
                0x03047c2c                SD_ACMD41
                0x03047918                SD_CMD8
                0x03047aa8                SD_CMD55
                0x030482ec                SD_CMD10
                0x03048118                SD_CMD9
                0x03048afc                SD_CMD17
                0x03048e44                SD_ReadData
                0x03047f74                SD_CMD3
 .text          0x03048f3c      0x1e0 c:/altera/10.0/nios2eds/bin/gnu/h-i686-mingw32/bin/../lib/gcc/nios2-elf/4.1.2\libgcc.a(_mul_sf.o)
                0x03048f3c                __mulsf3
 .text          0x0304911c      0x178 c:/altera/10.0/nios2eds/bin/gnu/h-i686-mingw32/bin/../lib/gcc/nios2-elf/4.1.2\libgcc.a(_div_sf.o)
                0x0304911c                __divsf3
 .text          0x03049294       0x54 c:/altera/10.0/nios2eds/bin/gnu/h-i686-mingw32/bin/../lib/gcc/nios2-elf/4.1.2\libgcc.a(_sf_to_df.o)
                0x03049294                __extendsfdf2
 .text          0x030492e8        0x0 c:/altera/10.0/nios2eds/bin/gnu/h-i686-mingw32/bin/../lib/gcc/nios2-elf/4.1.2\libgcc.a(_thenan_sf.o)
 .text          0x030492e8       0xc0 c:/altera/10.0/nios2eds/bin/gnu/h-i686-mingw32/bin/../lib/gcc/nios2-elf/4.1.2\libgcc.a(_usi_to_sf.o)
                0x030492e8                __floatunsisf
 .text          0x030493a8      0x25c c:/altera/10.0/nios2eds/bin/gnu/h-i686-mingw32/bin/../lib/gcc/nios2-elf/4.1.2\libgcc.a(_div_df.o)
                0x030493a8                __divdf3
 .text          0x03049604       0x38 c:/altera/10.0/nios2eds/bin/gnu/h-i686-mingw32/bin/../lib/gcc/nios2-elf/4.1.2\libgcc.a(_make_df.o)
                0x03049604                __make_dp
 .text          0x0304963c       0x74 c:/altera/10.0/nios2eds/bin/gnu/h-i686-mingw32/bin/../lib/gcc/nios2-elf/4.1.2\libgcc.a(_df_to_sf.o)
                0x0304963c                __truncdfsf2
 .text          0x030496b0        0x0 c:/altera/10.0/nios2eds/bin/gnu/h-i686-mingw32/bin/../lib/gcc/nios2-elf/4.1.2\libgcc.a(_thenan_df.o)
 .text          0x030496b0      0x14c c:/altera/10.0/nios2eds/bin/gnu/h-i686-mingw32/bin/../lib/gcc/nios2-elf/4.1.2\libgcc.a(lib2-divmod.o)
                0x030497ec                __udivsi3
                0x030497f4                __umodsi3
                0x0304972c                __divsi3
                0x0304978c                __modsi3
 .text          0x030497fc       0x9c c:/altera/10.0/nios2eds/bin/gnu/h-i686-mingw32/bin/../lib/gcc/nios2-elf/4.1.2\libgcc.a(_muldi3.o)
                0x030497fc                __muldi3
 .text          0x03049898       0x80 c:/altera/10.0/nios2eds/bin/gnu/h-i686-mingw32/bin/../lib/gcc/nios2-elf/4.1.2\libgcc.a(_clzsi2.o)
                0x03049898                __clzsi2
 .text          0x03049918      0x160 c:/altera/10.0/nios2eds/bin/gnu/h-i686-mingw32/bin/../lib/gcc/nios2-elf/4.1.2\libgcc.a(_pack_sf.o)
                0x03049918                __pack_f
 .text          0x03049a78       0xc8 c:/altera/10.0/nios2eds/bin/gnu/h-i686-mingw32/bin/../lib/gcc/nios2-elf/4.1.2\libgcc.a(_unpack_sf.o)
                0x03049a78                __unpack_f
 .text          0x03049b40       0x2c c:/altera/10.0/nios2eds/bin/gnu/h-i686-mingw32/bin/../lib/gcc/nios2-elf/4.1.2\libgcc.a(_make_sf.o)
                0x03049b40                __make_fp
 .text          0x03049b6c      0x318 c:/altera/10.0/nios2eds/bin/gnu/h-i686-mingw32/bin/../lib/gcc/nios2-elf/4.1.2\libgcc.a(_pack_df.o)
                0x03049b6c                __pack_d
 .text          0x03049e84      0x140 c:/altera/10.0/nios2eds/bin/gnu/h-i686-mingw32/bin/../lib/gcc/nios2-elf/4.1.2\libgcc.a(_unpack_df.o)
                0x03049e84                __unpack_d
 .text          0x03049fc4        0x0 c:/altera/10.0/nios2eds/bin/gnu/h-i686-mingw32/bin/../lib/gcc/nios2-elf/4.1.2\libgcc.a(_clz.o)
 .text          0x03049fc4      0x124 c:/altera/10.0/nios2eds/bin/gnu/h-i686-mingw32/bin/../lib/gcc/nios2-elf/4.1.2/../../../../nios2-elf/lib\libc.a(lib_a-fclose.o)
                0x03049fc4                _fclose_r
                0x0304a0d4                fclose
 .text          0x0304a0e8      0x230 c:/altera/10.0/nios2eds/bin/gnu/h-i686-mingw32/bin/../lib/gcc/nios2-elf/4.1.2/../../../../nios2-elf/lib\libc.a(lib_a-fflush.o)
                0x0304a2e4                fflush
                0x0304a0e8                _fflush_r
 .text          0x0304a318      0x2c0 c:/altera/10.0/nios2eds/bin/gnu/h-i686-mingw32/bin/../lib/gcc/nios2-elf/4.1.2/../../../../nios2-elf/lib\libc.a(lib_a-findfp.o)
                0x0304a380                __sinit
                0x0304a480                __sfmoreglue
                0x0304a470                _cleanup
                0x0304a464                _cleanup_r
                0x0304a44c                __fp_lock_all
                0x0304a370                __sfp_lock_acquire
                0x0304a4e8                __sfp
                0x0304a37c                __sinit_lock_release
                0x0304a434                __fp_unlock_all
                0x0304a374                __sfp_lock_release
                0x0304a378                __sinit_lock_acquire
 .text          0x0304a5d8      0x110 c:/altera/10.0/nios2eds/bin/gnu/h-i686-mingw32/bin/../lib/gcc/nios2-elf/4.1.2/../../../../nios2-elf/lib\libc.a(lib_a-fopen.o)
                0x0304a6cc                fopen
                0x0304a5d8                _fopen_r
 .text          0x0304a6e8      0x440 c:/altera/10.0/nios2eds/bin/gnu/h-i686-mingw32/bin/../lib/gcc/nios2-elf/4.1.2/../../../../nios2-elf/lib\libc.a(lib_a-freer.o)
                0x0304a814                _free_r
                0x0304a6e8                _malloc_trim_r
 .text          0x0304ab28      0x460 c:/altera/10.0/nios2eds/bin/gnu/h-i686-mingw32/bin/../lib/gcc/nios2-elf/4.1.2/../../../../nios2-elf/lib\libc.a(lib_a-fseek.o)
                0x0304af64                fseek
                0x0304ab28                _fseek_r
 .text          0x0304af88       0x74 c:/altera/10.0/nios2eds/bin/gnu/h-i686-mingw32/bin/../lib/gcc/nios2-elf/4.1.2/../../../../nios2-elf/lib\libc.a(lib_a-fstatr.o)
                0x0304af88                _fstat_r
 .text          0x0304affc      0x188 c:/altera/10.0/nios2eds/bin/gnu/h-i686-mingw32/bin/../lib/gcc/nios2-elf/4.1.2/../../../../nios2-elf/lib\libc.a(lib_a-fwalk.o)
                0x0304b0c8                _fwalk
                0x0304affc                _fwalk_reent
 .text          0x0304b184       0xdc c:/altera/10.0/nios2eds/bin/gnu/h-i686-mingw32/bin/../lib/gcc/nios2-elf/4.1.2/../../../../nios2-elf/lib\libc.a(lib_a-fwrite.o)
                0x0304b184                _fwrite_r
                0x0304b220                fwrite
 .text          0x0304b260        0x0 c:/altera/10.0/nios2eds/bin/gnu/h-i686-mingw32/bin/../lib/gcc/nios2-elf/4.1.2/../../../../nios2-elf/lib\libc.a(lib_a-impure.o)
 .text          0x0304b260        0x0 c:/altera/10.0/nios2eds/bin/gnu/h-i686-mingw32/bin/../lib/gcc/nios2-elf/4.1.2/../../../../nios2-elf/lib\libc.a(lib_a-int_errno.o)
 .text          0x0304b260      0x194 c:/altera/10.0/nios2eds/bin/gnu/h-i686-mingw32/bin/../lib/gcc/nios2-elf/4.1.2/../../../../nios2-elf/lib\libc.a(lib_a-makebuf.o)
                0x0304b260                __smakebuf_r
 .text          0x0304b3f4       0x28 c:/altera/10.0/nios2eds/bin/gnu/h-i686-mingw32/bin/../lib/gcc/nios2-elf/4.1.2/../../../../nios2-elf/lib\libc.a(lib_a-malloc.o)
                0x0304b408                malloc
                0x0304b3f4                free
 .text          0x0304b41c      0x740 c:/altera/10.0/nios2eds/bin/gnu/h-i686-mingw32/bin/../lib/gcc/nios2-elf/4.1.2/../../../../nios2-elf/lib\libc.a(lib_a-mallocr.o)
                0x0304b41c                _malloc_r
 .text          0x0304bb5c       0xa0 c:/altera/10.0/nios2eds/bin/gnu/h-i686-mingw32/bin/../lib/gcc/nios2-elf/4.1.2/../../../../nios2-elf/lib\libc.a(lib_a-memcpy.o)
                0x0304bb5c                memcpy
 .text          0x0304bbfc       0x98 c:/altera/10.0/nios2eds/bin/gnu/h-i686-mingw32/bin/../lib/gcc/nios2-elf/4.1.2/../../../../nios2-elf/lib\libc.a(lib_a-memset.o)
                0x0304bbfc                memset
 .text          0x0304bc94       0x78 c:/altera/10.0/nios2eds/bin/gnu/h-i686-mingw32/bin/../lib/gcc/nios2-elf/4.1.2/../../../../nios2-elf/lib\libc.a(lib_a-openr.o)
                0x0304bc94                _open_r
 .text          0x0304bd0c       0x78 c:/altera/10.0/nios2eds/bin/gnu/h-i686-mingw32/bin/../lib/gcc/nios2-elf/4.1.2/../../../../nios2-elf/lib\libc.a(lib_a-printf.o)
                0x0304bd0c                printf
                0x0304bd50                _printf_r
 .text          0x0304bd84       0x24 c:/altera/10.0/nios2eds/bin/gnu/h-i686-mingw32/bin/../lib/gcc/nios2-elf/4.1.2/../../../../nios2-elf/lib\libc.a(lib_a-putchar.o)
                0x0304bd84                putchar
                0x0304bda0                _putchar_r
 .text          0x0304bda8       0xb4 c:/altera/10.0/nios2eds/bin/gnu/h-i686-mingw32/bin/../lib/gcc/nios2-elf/4.1.2/../../../../nios2-elf/lib\libc.a(lib_a-puts.o)
                0x0304bda8                _puts_r
                0x0304be48                puts
 .text          0x0304be5c      0x1e0 c:/altera/10.0/nios2eds/bin/gnu/h-i686-mingw32/bin/../lib/gcc/nios2-elf/4.1.2/../../../../nios2-elf/lib\libc.a(lib_a-refill.o)
                0x0304be5c                __srefill_r
 .text          0x0304c03c       0x70 c:/altera/10.0/nios2eds/bin/gnu/h-i686-mingw32/bin/../lib/gcc/nios2-elf/4.1.2/../../../../nios2-elf/lib\libc.a(lib_a-sbrkr.o)
                0x0304c03c                _sbrk_r
 .text          0x0304c0ac       0xd4 c:/altera/10.0/nios2eds/bin/gnu/h-i686-mingw32/bin/../lib/gcc/nios2-elf/4.1.2/../../../../nios2-elf/lib\libc.a(lib_a-sprintf.o)
                0x0304c120                _sprintf_r
                0x0304c0ac                sprintf
 .text          0x0304c180      0x14c c:/altera/10.0/nios2eds/bin/gnu/h-i686-mingw32/bin/../lib/gcc/nios2-elf/4.1.2/../../../../nios2-elf/lib\libc.a(lib_a-stdio.o)
                0x0304c188                __sseek
                0x0304c26c                __sread
                0x0304c180                __sclose
                0x0304c1f0                __swrite
 .text          0x0304c2cc       0xb0 c:/altera/10.0/nios2eds/bin/gnu/h-i686-mingw32/bin/../lib/gcc/nios2-elf/4.1.2/../../../../nios2-elf/lib\libc.a(lib_a-strcasecmp.o)
                0x0304c2cc                strcasecmp
 .text          0x0304c37c       0xbc c:/altera/10.0/nios2eds/bin/gnu/h-i686-mingw32/bin/../lib/gcc/nios2-elf/4.1.2/../../../../nios2-elf/lib\libc.a(lib_a-strcmp.o)
                0x0304c37c                strcmp
 .text          0x0304c438       0x8c c:/altera/10.0/nios2eds/bin/gnu/h-i686-mingw32/bin/../lib/gcc/nios2-elf/4.1.2/../../../../nios2-elf/lib\libc.a(lib_a-strcpy.o)
                0x0304c438                strcpy
 .text          0x0304c4c4       0x74 c:/altera/10.0/nios2eds/bin/gnu/h-i686-mingw32/bin/../lib/gcc/nios2-elf/4.1.2/../../../../nios2-elf/lib\libc.a(lib_a-strlen.o)
                0x0304c4c4                strlen
 .text          0x0304c538     0x1dcc c:/altera/10.0/nios2eds/bin/gnu/h-i686-mingw32/bin/../lib/gcc/nios2-elf/4.1.2/../../../../nios2-elf/lib\libc.a(lib_a-vfprintf.o)
                0x0304c590                ___vfprintf_internal_r
                0x0304e2e0                __vfprintf_internal
 .text          0x0304e304       0xf4 c:/altera/10.0/nios2eds/bin/gnu/h-i686-mingw32/bin/../lib/gcc/nios2-elf/4.1.2/../../../../nios2-elf/lib\libc.a(lib_a-vsnprintf.o)
                0x0304e3b8                vsnprintf
                0x0304e304                _vsnprintf_r
 .text          0x0304e3f8       0x78 c:/altera/10.0/nios2eds/bin/gnu/h-i686-mingw32/bin/../lib/gcc/nios2-elf/4.1.2/../../../../nios2-elf/lib\libc.a(lib_a-writer.o)
                0x0304e3f8                _write_r
 .text          0x0304e470      0x13c c:/altera/10.0/nios2eds/bin/gnu/h-i686-mingw32/bin/../lib/gcc/nios2-elf/4.1.2/../../../../nios2-elf/lib\libc.a(lib_a-wsetup.o)
                0x0304e470                __swsetup_r
 .text          0x0304e5ac       0x70 c:/altera/10.0/nios2eds/bin/gnu/h-i686-mingw32/bin/../lib/gcc/nios2-elf/4.1.2/../../../../nios2-elf/lib\libc.a(lib_a-closer.o)
                0x0304e5ac                _close_r
 .text          0x0304e61c        0x0 c:/altera/10.0/nios2eds/bin/gnu/h-i686-mingw32/bin/../lib/gcc/nios2-elf/4.1.2/../../../../nios2-elf/lib\libc.a(lib_a-ctype_.o)
 .text          0x0304e61c     0x1808 c:/altera/10.0/nios2eds/bin/gnu/h-i686-mingw32/bin/../lib/gcc/nios2-elf/4.1.2/../../../../nios2-elf/lib\libc.a(lib_a-dtoa.o)
                0x0304e824                _dtoa_r
 .text          0x0304fe24       0xa0 c:/altera/10.0/nios2eds/bin/gnu/h-i686-mingw32/bin/../lib/gcc/nios2-elf/4.1.2/../../../../nios2-elf/lib\libc.a(lib_a-flags.o)
                0x0304fe24                __sflags
 .text          0x0304fec4      0x49c c:/altera/10.0/nios2eds/bin/gnu/h-i686-mingw32/bin/../lib/gcc/nios2-elf/4.1.2/../../../../nios2-elf/lib\libc.a(lib_a-fvwrite.o)
                0x0304fec4                __sfvwrite_r
 .text          0x03050360       0x70 c:/altera/10.0/nios2eds/bin/gnu/h-i686-mingw32/bin/../lib/gcc/nios2-elf/4.1.2/../../../../nios2-elf/lib\libc.a(lib_a-isattyr.o)
                0x03050360                _isatty_r
 .text          0x030503d0       0xc4 c:/altera/10.0/nios2eds/bin/gnu/h-i686-mingw32/bin/../lib/gcc/nios2-elf/4.1.2/../../../../nios2-elf/lib\libc.a(lib_a-locale.o)
                0x030503f4                _setlocale_r
                0x030503d0                __locale_charset
                0x030503d8                _localeconv_r
                0x03050478                setlocale
                0x030503e4                localeconv
 .text          0x03050494       0x78 c:/altera/10.0/nios2eds/bin/gnu/h-i686-mingw32/bin/../lib/gcc/nios2-elf/4.1.2/../../../../nios2-elf/lib\libc.a(lib_a-lseekr.o)
                0x03050494                _lseek_r
 .text          0x0305050c       0xfc c:/altera/10.0/nios2eds/bin/gnu/h-i686-mingw32/bin/../lib/gcc/nios2-elf/4.1.2/../../../../nios2-elf/lib\libc.a(lib_a-memchr.o)
                0x0305050c                memchr
 .text          0x03050608       0xe0 c:/altera/10.0/nios2eds/bin/gnu/h-i686-mingw32/bin/../lib/gcc/nios2-elf/4.1.2/../../../../nios2-elf/lib\libc.a(lib_a-memmove.o)
                0x03050608                memmove
 .text          0x030506e8     0x1004 c:/altera/10.0/nios2eds/bin/gnu/h-i686-mingw32/bin/../lib/gcc/nios2-elf/4.1.2/../../../../nios2-elf/lib\libc.a(lib_a-mprec.o)
                0x03050b04                _mprec_log10
                0x03050bf8                __any_on
                0x03050c80                _Balloc
                0x03050a54                __ratio
                0x03051370                __i2b
                0x0305092c                __b2d
                0x030515cc                __s2b
                0x03050844                __mcmp
                0x03050710                __hi0bits
                0x030514ac                __pow5mult
                0x03051044                __lshift
                0x03051190                __multiply
                0x03050d3c                __d2b
                0x03050ba0                __copybits
                0x030508a4                __ulp
                0x03050eb8                __mdiff
                0x03050780                __lo0bits
                0x030513ac                __multadd
                0x030506e8                _Bfree
 .text          0x030516ec      0x1ec c:/altera/10.0/nios2eds/bin/gnu/h-i686-mingw32/bin/../lib/gcc/nios2-elf/4.1.2/../../../../nios2-elf/lib\libc.a(lib_a-putc.o)
                0x030517f0                _putc_r
                0x030516ec                putc
 .text          0x030518d8       0x78 c:/altera/10.0/nios2eds/bin/gnu/h-i686-mingw32/bin/../lib/gcc/nios2-elf/4.1.2/../../../../nios2-elf/lib\libc.a(lib_a-readr.o)
                0x030518d8                _read_r
 .text          0x03051950      0x628 c:/altera/10.0/nios2eds/bin/gnu/h-i686-mingw32/bin/../lib/gcc/nios2-elf/4.1.2/../../../../nios2-elf/lib\libc.a(lib_a-reallocr.o)
                0x03051950                _realloc_r
 .text          0x03051f78       0x44 c:/altera/10.0/nios2eds/bin/gnu/h-i686-mingw32/bin/../lib/gcc/nios2-elf/4.1.2/../../../../nios2-elf/lib\libc.a(lib_a-s_isinfd.o)
                0x03051f78                __isinfd
 .text          0x03051fbc       0x34 c:/altera/10.0/nios2eds/bin/gnu/h-i686-mingw32/bin/../lib/gcc/nios2-elf/4.1.2/../../../../nios2-elf/lib\libc.a(lib_a-s_isnand.o)
                0x03051fbc                __isnand
 .text          0x03051ff0      0x14c c:/altera/10.0/nios2eds/bin/gnu/h-i686-mingw32/bin/../lib/gcc/nios2-elf/4.1.2/../../../../nios2-elf/lib\libc.a(lib_a-wbuf.o)
                0x03051ff0                __swbuf_r
                0x03052120                __swbuf
 .text          0x0305213c       0xb8 c:/altera/10.0/nios2eds/bin/gnu/h-i686-mingw32/bin/../lib/gcc/nios2-elf/4.1.2/../../../../nios2-elf/lib\libc.a(lib_a-callocr.o)
                0x0305213c                _calloc_r
 .text          0x030521f4      0x504 c:/altera/10.0/nios2eds/bin/gnu/h-i686-mingw32/bin/../lib/gcc/nios2-elf/4.1.2\libgcc.a(_addsub_df.o)
                0x03052684                __adddf3
                0x03052604                __subdf3
 .text          0x030526f8      0x3c8 c:/altera/10.0/nios2eds/bin/gnu/h-i686-mingw32/bin/../lib/gcc/nios2-elf/4.1.2\libgcc.a(_mul_df.o)
                0x030526f8                __muldf3
 .text          0x03052ac0       0x88 c:/altera/10.0/nios2eds/bin/gnu/h-i686-mingw32/bin/../lib/gcc/nios2-elf/4.1.2\libgcc.a(_eq_df.o)
                0x03052ac0                __eqdf2
 .text          0x03052b48       0x88 c:/altera/10.0/nios2eds/bin/gnu/h-i686-mingw32/bin/../lib/gcc/nios2-elf/4.1.2\libgcc.a(_ne_df.o)
                0x03052b48                __nedf2
 .text          0x03052bd0       0x88 c:/altera/10.0/nios2eds/bin/gnu/h-i686-mingw32/bin/../lib/gcc/nios2-elf/4.1.2\libgcc.a(_gt_df.o)
                0x03052bd0                __gtdf2
 .text          0x03052c58       0x88 c:/altera/10.0/nios2eds/bin/gnu/h-i686-mingw32/bin/../lib/gcc/nios2-elf/4.1.2\libgcc.a(_ge_df.o)
                0x03052c58                __gedf2
 .text          0x03052ce0       0x88 c:/altera/10.0/nios2eds/bin/gnu/h-i686-mingw32/bin/../lib/gcc/nios2-elf/4.1.2\libgcc.a(_lt_df.o)
                0x03052ce0                __ltdf2
 .text          0x03052d68      0x100 c:/altera/10.0/nios2eds/bin/gnu/h-i686-mingw32/bin/../lib/gcc/nios2-elf/4.1.2\libgcc.a(_si_to_df.o)
                0x03052d68                __floatsidf
 .text          0x03052e68       0xdc c:/altera/10.0/nios2eds/bin/gnu/h-i686-mingw32/bin/../lib/gcc/nios2-elf/4.1.2\libgcc.a(_df_to_si.o)
                0x03052e68                __fixdfsi
 .text          0x03052f44      0x194 c:/altera/10.0/nios2eds/bin/gnu/h-i686-mingw32/bin/../lib/gcc/nios2-elf/4.1.2\libgcc.a(_usi_to_df.o)
                0x03052f44                __floatunsidf
 .text          0x030530d8       0xc8 c:/altera/10.0/nios2eds/bin/gnu/h-i686-mingw32/bin/../lib/gcc/nios2-elf/4.1.2\libgcc.a(_fpcmp_parts_df.o)
                0x030530d8                __fpcmp_parts_d
 .text          0x030531a0      0x144 ../DE2_115_SD_Card_Audio_Player_bsp/\libhal_bsp.a(alt_close.o)
                0x030531a0                close
 .text          0x030532e4       0x28 ../DE2_115_SD_Card_Audio_Player_bsp/\libhal_bsp.a(alt_dev.o)
 .text          0x0305330c        0x0 ../DE2_115_SD_Card_Audio_Player_bsp/\libhal_bsp.a(alt_errno.o)
 .text          0x0305330c      0x11c ../DE2_115_SD_Card_Audio_Player_bsp/\libhal_bsp.a(alt_fstat.o)
                0x0305330c                fstat
 .text          0x03053428      0x1a4 ../DE2_115_SD_Card_Audio_Player_bsp/\libhal_bsp.a(alt_irq_register.o)
                0x03053428                alt_irq_register
 .text          0x030535cc        0x0 ../DE2_115_SD_Card_Audio_Player_bsp/\libhal_bsp.a(alt_irq_vars.o)
 .text          0x030535cc      0x108 ../DE2_115_SD_Card_Audio_Player_bsp/\libhal_bsp.a(alt_isatty.o)
                0x030535cc                isatty
 .text          0x030536d4       0xe4 ../DE2_115_SD_Card_Audio_Player_bsp/\libhal_bsp.a(alt_load.o)
                0x030536d4                alt_load
 .text          0x030537b8      0x138 ../DE2_115_SD_Card_Audio_Player_bsp/\libhal_bsp.a(alt_lseek.o)
                0x030537b8                lseek
 .text          0x030538f0       0x70 ../DE2_115_SD_Card_Audio_Player_bsp/\libhal_bsp.a(alt_main.o)
                0x030538f0                alt_main
 .text          0x03053960       0x38 ../DE2_115_SD_Card_Audio_Player_bsp/\libhal_bsp.a(alt_malloc_lock.o)
                0x0305397c                __malloc_unlock
                0x03053960                __malloc_lock
 .text          0x03053998      0x290 ../DE2_115_SD_Card_Audio_Player_bsp/\libhal_bsp.a(alt_open.o)
                0x03053a60                open
 .text          0x03053c28      0x168 ../DE2_115_SD_Card_Audio_Player_bsp/\libhal_bsp.a(alt_read.o)
                0x03053c28                read
 .text          0x03053d90       0x5c ../DE2_115_SD_Card_Audio_Player_bsp/\libhal_bsp.a(alt_release_fd.o)
                0x03053d90                alt_release_fd
 .text          0x03053dec       0xc0 ../DE2_115_SD_Card_Audio_Player_bsp/\libhal_bsp.a(alt_sbrk.o)
                0x03053dec                sbrk
 .text          0x03053eac      0x19c ../DE2_115_SD_Card_Audio_Player_bsp/\libhal_bsp.a(alt_tick.o)
                0x03053f48                alt_tick
                0x03053eac                alt_alarm_stop
 .text          0x03054048       0x2c ../DE2_115_SD_Card_Audio_Player_bsp/\libhal_bsp.a(alt_usleep.o)
                0x03054048                usleep
 .text          0x03054074      0x168 ../DE2_115_SD_Card_Audio_Player_bsp/\libhal_bsp.a(alt_write.o)
                0x03054074                write
 .text          0x030541dc       0xfc ../DE2_115_SD_Card_Audio_Player_bsp/\libhal_bsp.a(alt_sys_init.o)
                0x0305420c                alt_sys_init
                0x030541dc                alt_irq_init
 .text          0x030542d8      0x854 ../DE2_115_SD_Card_Audio_Player_bsp/\libhal_bsp.a(altera_avalon_cfi_flash.o)
                0x030543a0                alt_flash_cfi_write
                0x03054874                alt_flash_program_block
                0x030546e0                alt_flash_cfi_read
                0x030542d8                alt_flash_cfi_init
                0x03054738                alt_write_value_to_flash
                0x03054654                alt_flash_cfi_get_info
 .text          0x03054b2c     0x1310 ../DE2_115_SD_Card_Audio_Player_bsp/\libhal_bsp.a(altera_avalon_cfi_flash_table.o)
                0x03054ba4                alt_read_query_entry_32bit
                0x03054d1c                alt_write_flash_command_32bit_device_16bit_mode
                0x03054b2c                alt_read_query_entry_8bit
                0x03055024                alt_set_flash_algorithm_func
                0x03054be0                alt_write_flash_command_8bit_device_8bit_mode
                0x03055d70                alt_check_primary_table
                0x03054d9c                alt_write_native_8bit
                0x03054c1c                alt_write_flash_command_16bit_device_8bit_mode
                0x03055150                alt_read_cfi_table
                0x03054b64                alt_read_query_entry_16bit
                0x03054e28                alt_set_flash_width_func
                0x030556c4                alt_read_cfi_width
                0x03054cd8                alt_write_flash_command_16bit_device_16bit_mode
                0x03054d5c                alt_write_flash_command_32bit_device_32bit_mode
                0x03054dcc                alt_write_native_16bit
                0x03054c98                alt_write_flash_command_32bit_device_8bit_mode
                0x03054dfc                alt_write_native_32bit
 .text          0x03055e3c      0x138 ../DE2_115_SD_Card_Audio_Player_bsp/\libhal_bsp.a(altera_avalon_jtag_uart_fd.o)
                0x03055e3c                altera_avalon_jtag_uart_read_fd
                0x03055ee4                altera_avalon_jtag_uart_close_fd
                0x03055f28                altera_avalon_jtag_uart_ioctl_fd
                0x03055e90                altera_avalon_jtag_uart_write_fd
 .text          0x03055f74      0x408 ../DE2_115_SD_Card_Audio_Player_bsp/\libhal_bsp.a(altera_avalon_jtag_uart_init.o)
                0x03055f74                altera_avalon_jtag_uart_init
                0x03056310                altera_avalon_jtag_uart_close
 .text          0x0305637c       0xf8 ../DE2_115_SD_Card_Audio_Player_bsp/\libhal_bsp.a(altera_avalon_jtag_uart_ioctl.o)
                0x0305637c                altera_avalon_jtag_uart_ioctl
 .text          0x03056474      0x234 ../DE2_115_SD_Card_Audio_Player_bsp/\libhal_bsp.a(altera_avalon_jtag_uart_read.o)
                0x03056474                altera_avalon_jtag_uart_read
 .text          0x030566a8      0x254 ../DE2_115_SD_Card_Audio_Player_bsp/\libhal_bsp.a(altera_avalon_jtag_uart_write.o)
                0x030566a8                altera_avalon_jtag_uart_write
 .text          0x030568fc      0xcfc ../DE2_115_SD_Card_Audio_Player_bsp/\libhal_bsp.a(altera_avalon_lcd_16207.o)
                0x03056fcc                altera_avalon_lcd_16207_write
                0x030574cc                altera_avalon_lcd_16207_init
 .text          0x030575f8       0x54 ../DE2_115_SD_Card_Audio_Player_bsp/\libhal_bsp.a(altera_avalon_lcd_16207_fd.o)
                0x030575f8                altera_avalon_lcd_16207_write_fd
 .text          0x0305764c      0x100 ../DE2_115_SD_Card_Audio_Player_bsp/\libhal_bsp.a(altera_avalon_timer_sc.o)
                0x030576c0                alt_avalon_timer_sc_init
 .text          0x0305774c       0xec ../DE2_115_SD_Card_Audio_Player_bsp/\libhal_bsp.a(altera_avalon_uart_fd.o)
                0x030577a0                altera_avalon_uart_write_fd
                0x030577f4                altera_avalon_uart_close_fd
                0x0305774c                altera_avalon_uart_read_fd
 .text          0x03057838      0x40c ../DE2_115_SD_Card_Audio_Player_bsp/\libhal_bsp.a(altera_avalon_uart_init.o)
                0x03057838                altera_avalon_uart_init
                0x03057bec                altera_avalon_uart_close
 .text          0x03057c44      0x288 ../DE2_115_SD_Card_Audio_Player_bsp/\libhal_bsp.a(altera_avalon_uart_read.o)
                0x03057c44                altera_avalon_uart_read
 .text          0x03057ecc      0x220 ../DE2_115_SD_Card_Audio_Player_bsp/\libhal_bsp.a(altera_avalon_uart_write.o)
                0x03057ecc                altera_avalon_uart_write
 .text          0x030580ec      0x154 ../DE2_115_SD_Card_Audio_Player_bsp/\libhal_bsp.a(alt_alarm_start.o)
                0x030580ec                alt_alarm_start
 .text          0x03058240      0x148 ../DE2_115_SD_Card_Audio_Player_bsp/\libhal_bsp.a(alt_busy_sleep.o)
                0x03058240                alt_busy_sleep
 .text          0x03058388       0x74 ../DE2_115_SD_Card_Audio_Player_bsp/\libhal_bsp.a(alt_dcache_flush.o)
                0x03058388                alt_dcache_flush
 .text          0x030583fc       0x40 ../DE2_115_SD_Card_Audio_Player_bsp/\libhal_bsp.a(alt_dcache_flush_all.o)
                0x030583fc                alt_dcache_flush_all
 .text          0x0305843c       0xf8 ../DE2_115_SD_Card_Audio_Player_bsp/\libhal_bsp.a(alt_dev_llist_insert.o)
                0x0305843c                alt_dev_llist_insert
 .text          0x03058534       0x58 ../DE2_115_SD_Card_Audio_Player_bsp/\libhal_bsp.a(alt_do_ctors.o)
                0x03058534                _do_ctors
 .text          0x0305858c       0x58 ../DE2_115_SD_Card_Audio_Player_bsp/\libhal_bsp.a(alt_do_dtors.o)
                0x0305858c                _do_dtors
 .text          0x030585e4       0x90 ../DE2_115_SD_Card_Audio_Player_bsp/\libhal_bsp.a(alt_find_dev.o)
                0x030585e4                alt_find_dev
 .text          0x03058674       0xe4 ../DE2_115_SD_Card_Audio_Player_bsp/\libhal_bsp.a(alt_find_file.o)
                0x03058674                alt_find_file
 .text          0x03058758       0xc8 ../DE2_115_SD_Card_Audio_Player_bsp/\libhal_bsp.a(alt_flash_dev.o)
                0x03058758                alt_flash_open_dev
                0x030587d0                alt_flash_close_dev
 .text          0x03058820       0xac ../DE2_115_SD_Card_Audio_Player_bsp/\libhal_bsp.a(alt_get_fd.o)
                0x03058820                alt_get_fd
 .text          0x030588cc       0x2c ../DE2_115_SD_Card_Audio_Player_bsp/\libhal_bsp.a(alt_icache_flush_all.o)
                0x030588cc                alt_icache_flush_all
 .text          0x030588f8      0x1a0 ../DE2_115_SD_Card_Audio_Player_bsp/\libhal_bsp.a(alt_iic.o)
                0x03058a58                alt_ic_irq_enabled
                0x030588f8                alt_ic_isr_register
                0x030589cc                alt_ic_irq_disable
                0x03058944                alt_ic_irq_enable
 .text          0x03058a98       0xfc ../DE2_115_SD_Card_Audio_Player_bsp/\libhal_bsp.a(alt_iic_isr_register.o)
                0x03058a98                alt_iic_isr_register
 .text          0x03058b94      0x134 ../DE2_115_SD_Card_Audio_Player_bsp/\libhal_bsp.a(alt_io_redirect.o)
                0x03058c54                alt_io_redirect
 .text          0x03058cc8        0x0 ../DE2_115_SD_Card_Audio_Player_bsp/\libhal_bsp.a(alt_irq_entry.o)
 .text          0x03058cc8        0x0 ../DE2_115_SD_Card_Audio_Player_bsp/\libhal_bsp.a(alt_irq_handler.o)
 .text          0x03058cc8       0x1c ../DE2_115_SD_Card_Audio_Player_bsp/\libhal_bsp.a(altera_nios2_qsys_irq.o)
                0x03058cc8                altera_nios2_qsys_irq_init
 .text          0x03058ce4      0x438 ../DE2_115_SD_Card_Audio_Player_bsp/\libhal_bsp.a(altera_avalon_cfi_flash_amd.o)
                0x03058d48                alt_erase_block_amd
                0x03058ce4                alt_program_amd
 .text          0x0305911c      0x410 ../DE2_115_SD_Card_Audio_Player_bsp/\libhal_bsp.a(altera_avalon_cfi_flash_intel.o)
                0x0305911c                alt_program_intel
                0x0305919c                alt_erase_block_intel
 .text          0x0305952c        0x0 ../DE2_115_SD_Card_Audio_Player_bsp/\libhal_bsp.a(alt_exception_entry.o)
 .text          0x0305952c       0x8c ../DE2_115_SD_Card_Audio_Player_bsp/\libhal_bsp.a(alt_icache_flush.o)
                0x0305952c                alt_icache_flush
 .text          0x030595b8       0x14 c:/altera/10.0/nios2eds/bin/gnu/h-i686-mingw32/bin/../lib/gcc/nios2-elf/4.1.2/../../../../nios2-elf/lib\libc.a(lib_a-atexit.o)
                0x030595b8                atexit
 .text          0x030595cc       0x38 c:/altera/10.0/nios2eds/bin/gnu/h-i686-mingw32/bin/../lib/gcc/nios2-elf/4.1.2/../../../../nios2-elf/lib\libc.a(lib_a-exit.o)
                0x030595cc                exit
 .text          0x03059604       0x74 c:/altera/10.0/nios2eds/bin/gnu/h-i686-mingw32/bin/../lib/gcc/nios2-elf/4.1.2/../../../../nios2-elf/lib\libc.a(lib_a-memcmp.o)
                0x03059604                memcmp
 .text          0x03059678      0x134 c:/altera/10.0/nios2eds/bin/gnu/h-i686-mingw32/bin/../lib/gcc/nios2-elf/4.1.2/../../../../nios2-elf/lib\libc.a(lib_a-__atexit.o)
                0x03059678                __register_exitproc
 .text          0x030597ac      0x1ac c:/altera/10.0/nios2eds/bin/gnu/h-i686-mingw32/bin/../lib/gcc/nios2-elf/4.1.2/../../../../nios2-elf/lib\libc.a(lib_a-__call_atexit.o)
                0x030597b0                __call_exitprocs
 .text          0x03059958       0x5c ../DE2_115_SD_Card_Audio_Player_bsp/\libhal_bsp.a(alt_exit.o)
                0x03059994                _exit
 *(.gnu.warning.*)
 *(.fini)
                0x030599b4                PROVIDE (__etext, <code 341> (.))
                0x030599b4                PROVIDE (_etext, <code 341> (.))
                0x030599b4                PROVIDE (etext, <code 341> (.))
 *(.eh_frame_hdr)
                0x030599b4                . = ALIGN (0x4)
                0x030599b4                PROVIDE (__preinit_array_start, <code 341> (.))
 *(.preinit_array)
                0x030599b4                PROVIDE (__preinit_array_end, <code 341> (.))
                0x030599b4                PROVIDE (__init_array_start, <code 341> (.))
 *(.init_array)
                0x030599b4                PROVIDE (__init_array_end, <code 341> (.))
                0x030599b4                PROVIDE (__fini_array_start, <code 341> (.))
 *(.fini_array)
                0x030599b4                PROVIDE (__fini_array_end, <code 341> (.))
 *(.eh_frame)
 *(.gcc_except_table)
 *(.dynamic)
                0x030599b4                PROVIDE (__CTOR_LIST__, <code 341> (.))
 *(.ctors)
 *(SORT(.ctors.*))
 .ctors.65535   0x030599b4        0x4 c:/altera/10.0/nios2eds/bin/gnu/h-i686-mingw32/bin/../lib/gcc/nios2-elf/4.1.2/../../../../nios2-elf/lib\libc.a(lib_a-__call_atexit.o)
                0x030599b8                PROVIDE (__CTOR_END__, <code 341> (.))
                0x030599b8                PROVIDE (__DTOR_LIST__, <code 341> (.))
 *(.dtors)
 *(SORT(.dtors.*))
                0x030599b8                PROVIDE (__DTOR_END__, <code 341> (.))
 *(.jcr)
                0x030599b8                . = ALIGN (0x4)

.rodata         0x030599b8     0x1374
                0x030599b8                PROVIDE (__ram_rodata_start, <code 341> (.))
                0x030599b8                . = ALIGN (0x4)
 *(.rodata .rodata.* .gnu.linkonce.r.*)
 .rodata        0x030599b8      0x500 obj/default/main.o
 .rodata        0x03059eb8       0xc0 obj/default/terasic_fat/FatFileSystem.o
 .rodata        0x03059f78      0x2dc obj/default/terasic_fat/FatInternal.o
 .rodata        0x0305a254       0xd4 obj/default/terasic_lib/AUDIO.o
 .rodata        0x0305a328       0x88 obj/default/terasic_lib/I2C.o
 .rodata        0x0305a3b0       0x30 obj/default/terasic_lib/LCD.o
 .rodata        0x0305a3e0       0x3c obj/default/terasic_lib/WaveLib.o
 .rodata        0x0305a41c       0x10 obj/default/terasic_lib/debug.o
 .rodata        0x0305a42c      0x200 obj/default/terasic_sdcard/crc16.o
 .rodata        0x0305a62c      0x100 obj/default/terasic_sdcard/crc7.o
 .rodata        0x0305a72c       0x10 c:/altera/10.0/nios2eds/bin/gnu/h-i686-mingw32/bin/../lib/gcc/nios2-elf/4.1.2\libgcc.a(_thenan_sf.o)
                0x0305a72c                __thenan_sf
 .rodata        0x0305a73c       0x14 c:/altera/10.0/nios2eds/bin/gnu/h-i686-mingw32/bin/../lib/gcc/nios2-elf/4.1.2\libgcc.a(_thenan_df.o)
                0x0305a73c                __thenan_df
 .rodata        0x0305a750      0x100 c:/altera/10.0/nios2eds/bin/gnu/h-i686-mingw32/bin/../lib/gcc/nios2-elf/4.1.2\libgcc.a(_clz.o)
                0x0305a750                __clz_tab
 .rodata.str1.4
                0x0305a850        0x2 c:/altera/10.0/nios2eds/bin/gnu/h-i686-mingw32/bin/../lib/gcc/nios2-elf/4.1.2/../../../../nios2-elf/lib\libc.a(lib_a-impure.o)
                                  0x4 (size before relaxing)
 *fill*         0x0305a852        0x2 00
 .rodata.str1.4
                0x0305a854        0x2 c:/altera/10.0/nios2eds/bin/gnu/h-i686-mingw32/bin/../lib/gcc/nios2-elf/4.1.2/../../../../nios2-elf/lib\libc.a(lib_a-puts.o)
                                  0x4 (size before relaxing)
 *fill*         0x0305a856        0x2 00
 .rodata.str1.4
                0x0305a858       0x5e c:/altera/10.0/nios2eds/bin/gnu/h-i686-mingw32/bin/../lib/gcc/nios2-elf/4.1.2/../../../../nios2-elf/lib\libc.a(lib_a-vfprintf.o)
                                 0x60 (size before relaxing)
 .rodata        0x0305a8b6       0x20 c:/altera/10.0/nios2eds/bin/gnu/h-i686-mingw32/bin/../lib/gcc/nios2-elf/4.1.2/../../../../nios2-elf/lib\libc.a(lib_a-vfprintf.o)
 .rodata        0x0305a8d6      0x281 c:/altera/10.0/nios2eds/bin/gnu/h-i686-mingw32/bin/../lib/gcc/nios2-elf/4.1.2/../../../../nios2-elf/lib\libc.a(lib_a-ctype_.o)
                0x0305a8d6                _ctype_
 *fill*         0x0305ab57        0x1 00
 .rodata.str1.4
                0x0305ab58       0x10 c:/altera/10.0/nios2eds/bin/gnu/h-i686-mingw32/bin/../lib/gcc/nios2-elf/4.1.2/../../../../nios2-elf/lib\libc.a(lib_a-dtoa.o)
                                 0x14 (size before relaxing)
 .rodata.str1.4
                0x0305ab68       0x10 c:/altera/10.0/nios2eds/bin/gnu/h-i686-mingw32/bin/../lib/gcc/nios2-elf/4.1.2/../../../../nios2-elf/lib\libc.a(lib_a-locale.o)
                                 0x18 (size before relaxing)
 .rodata        0x0305ab78       0x30 c:/altera/10.0/nios2eds/bin/gnu/h-i686-mingw32/bin/../lib/gcc/nios2-elf/4.1.2/../../../../nios2-elf/lib\libc.a(lib_a-locale.o)
 .rodata        0x0305aba8      0x124 c:/altera/10.0/nios2eds/bin/gnu/h-i686-mingw32/bin/../lib/gcc/nios2-elf/4.1.2/../../../../nios2-elf/lib\libc.a(lib_a-mprec.o)
                0x0305ac98                __mprec_tinytens
                0x0305aba8                __mprec_tens
                0x0305ac70                __mprec_bigtens
 .rodata        0x0305accc        0xc ../DE2_115_SD_Card_Audio_Player_bsp/\libhal_bsp.a(alt_dev.o)
 .rodata        0x0305acd8       0x10 ../DE2_115_SD_Card_Audio_Player_bsp/\libhal_bsp.a(alt_main.o)
 .rodata        0x0305ace8       0x44 ../DE2_115_SD_Card_Audio_Player_bsp/\libhal_bsp.a(alt_sys_init.o)
 *(.rodata1)
                0x0305ad2c                . = ALIGN (0x4)
                0x0305ad2c                PROVIDE (__ram_rodata_end, <code 341> (.))
                0x030599b8                PROVIDE (__flash_rodata_start, LOADADDR (.rodata))

.rwdata         0x0305ad2c     0x1d5c load address 0x0305ca88
                0x0305ad2c                PROVIDE (__ram_rwdata_start, <code 341> (.))
                0x0305ad2c                . = ALIGN (0x4)
 *(.got.plt)
 *(.got)
 *(.data1)
 *(.data .data.* .gnu.linkonce.d.*)
 .data          0x0305ad2c        0x0 ../DE2_115_SD_Card_Audio_Player_bsp//obj/HAL/src/crt0.o
 .data          0x0305ad2c        0x0 obj/default/main.o
 .data          0x0305ad2c        0x0 obj/default/terasic_fat/FatFileSystem.o
 .data          0x0305ad2c        0x0 obj/default/terasic_fat/FatInternal.o
 .data          0x0305ad2c        0x0 obj/default/terasic_lib/AUDIO.o
 .data          0x0305ad2c        0x0 obj/default/terasic_lib/I2C.o
 .data          0x0305ad2c        0x0 obj/default/terasic_lib/LCD.o
 .data          0x0305ad2c        0x0 obj/default/terasic_lib/LED.o
 .data          0x0305ad2c       0x10 obj/default/terasic_lib/SEG7.o
 .data          0x0305ad3c        0x0 obj/default/terasic_lib/WaveLib.o
 .data          0x0305ad3c        0x0 obj/default/terasic_lib/debug.o
 .data          0x0305ad3c        0x0 obj/default/terasic_sdcard/crc16.o
 .data          0x0305ad3c        0x0 obj/default/terasic_sdcard/crc7.o
 .data          0x0305ad3c        0x0 obj/default/terasic_sdcard/sd_hal.o
 .data          0x0305ad3c        0x0 obj/default/terasic_sdcard/sd_lib.o
 .data          0x0305ad3c        0x0 obj/default/terasic_sdcard/sd_protocol.o
 .data          0x0305ad3c        0x0 c:/altera/10.0/nios2eds/bin/gnu/h-i686-mingw32/bin/../lib/gcc/nios2-elf/4.1.2\libgcc.a(_mul_sf.o)
 .data          0x0305ad3c        0x0 c:/altera/10.0/nios2eds/bin/gnu/h-i686-mingw32/bin/../lib/gcc/nios2-elf/4.1.2\libgcc.a(_div_sf.o)
 .data          0x0305ad3c        0x0 c:/altera/10.0/nios2eds/bin/gnu/h-i686-mingw32/bin/../lib/gcc/nios2-elf/4.1.2\libgcc.a(_sf_to_df.o)
 .data          0x0305ad3c        0x0 c:/altera/10.0/nios2eds/bin/gnu/h-i686-mingw32/bin/../lib/gcc/nios2-elf/4.1.2\libgcc.a(_thenan_sf.o)
 .data          0x0305ad3c        0x0 c:/altera/10.0/nios2eds/bin/gnu/h-i686-mingw32/bin/../lib/gcc/nios2-elf/4.1.2\libgcc.a(_usi_to_sf.o)
 .data          0x0305ad3c        0x0 c:/altera/10.0/nios2eds/bin/gnu/h-i686-mingw32/bin/../lib/gcc/nios2-elf/4.1.2\libgcc.a(_div_df.o)
 .data          0x0305ad3c        0x0 c:/altera/10.0/nios2eds/bin/gnu/h-i686-mingw32/bin/../lib/gcc/nios2-elf/4.1.2\libgcc.a(_make_df.o)
 .data          0x0305ad3c        0x0 c:/altera/10.0/nios2eds/bin/gnu/h-i686-mingw32/bin/../lib/gcc/nios2-elf/4.1.2\libgcc.a(_df_to_sf.o)
 .data          0x0305ad3c        0x0 c:/altera/10.0/nios2eds/bin/gnu/h-i686-mingw32/bin/../lib/gcc/nios2-elf/4.1.2\libgcc.a(_thenan_df.o)
 .data          0x0305ad3c        0x0 c:/altera/10.0/nios2eds/bin/gnu/h-i686-mingw32/bin/../lib/gcc/nios2-elf/4.1.2\libgcc.a(lib2-divmod.o)
 .data          0x0305ad3c        0x0 c:/altera/10.0/nios2eds/bin/gnu/h-i686-mingw32/bin/../lib/gcc/nios2-elf/4.1.2\libgcc.a(_muldi3.o)
 .data          0x0305ad3c        0x0 c:/altera/10.0/nios2eds/bin/gnu/h-i686-mingw32/bin/../lib/gcc/nios2-elf/4.1.2\libgcc.a(_clzsi2.o)
 .data          0x0305ad3c        0x0 c:/altera/10.0/nios2eds/bin/gnu/h-i686-mingw32/bin/../lib/gcc/nios2-elf/4.1.2\libgcc.a(_pack_sf.o)
 .data          0x0305ad3c        0x0 c:/altera/10.0/nios2eds/bin/gnu/h-i686-mingw32/bin/../lib/gcc/nios2-elf/4.1.2\libgcc.a(_unpack_sf.o)
 .data          0x0305ad3c        0x0 c:/altera/10.0/nios2eds/bin/gnu/h-i686-mingw32/bin/../lib/gcc/nios2-elf/4.1.2\libgcc.a(_make_sf.o)
 .data          0x0305ad3c        0x0 c:/altera/10.0/nios2eds/bin/gnu/h-i686-mingw32/bin/../lib/gcc/nios2-elf/4.1.2\libgcc.a(_pack_df.o)
 .data          0x0305ad3c        0x0 c:/altera/10.0/nios2eds/bin/gnu/h-i686-mingw32/bin/../lib/gcc/nios2-elf/4.1.2\libgcc.a(_unpack_df.o)
 .data          0x0305ad3c        0x0 c:/altera/10.0/nios2eds/bin/gnu/h-i686-mingw32/bin/../lib/gcc/nios2-elf/4.1.2\libgcc.a(_clz.o)
 .data          0x0305ad3c        0x0 c:/altera/10.0/nios2eds/bin/gnu/h-i686-mingw32/bin/../lib/gcc/nios2-elf/4.1.2/../../../../nios2-elf/lib\libc.a(lib_a-fclose.o)
 .data          0x0305ad3c        0x0 c:/altera/10.0/nios2eds/bin/gnu/h-i686-mingw32/bin/../lib/gcc/nios2-elf/4.1.2/../../../../nios2-elf/lib\libc.a(lib_a-fflush.o)
 .data          0x0305ad3c        0x0 c:/altera/10.0/nios2eds/bin/gnu/h-i686-mingw32/bin/../lib/gcc/nios2-elf/4.1.2/../../../../nios2-elf/lib\libc.a(lib_a-findfp.o)
 .data          0x0305ad3c        0x0 c:/altera/10.0/nios2eds/bin/gnu/h-i686-mingw32/bin/../lib/gcc/nios2-elf/4.1.2/../../../../nios2-elf/lib\libc.a(lib_a-fopen.o)
 .data          0x0305ad3c        0x0 c:/altera/10.0/nios2eds/bin/gnu/h-i686-mingw32/bin/../lib/gcc/nios2-elf/4.1.2/../../../../nios2-elf/lib\libc.a(lib_a-freer.o)
 .data          0x0305ad3c        0x0 c:/altera/10.0/nios2eds/bin/gnu/h-i686-mingw32/bin/../lib/gcc/nios2-elf/4.1.2/../../../../nios2-elf/lib\libc.a(lib_a-fseek.o)
 .data          0x0305ad3c        0x0 c:/altera/10.0/nios2eds/bin/gnu/h-i686-mingw32/bin/../lib/gcc/nios2-elf/4.1.2/../../../../nios2-elf/lib\libc.a(lib_a-fstatr.o)
 .data          0x0305ad3c        0x0 c:/altera/10.0/nios2eds/bin/gnu/h-i686-mingw32/bin/../lib/gcc/nios2-elf/4.1.2/../../../../nios2-elf/lib\libc.a(lib_a-fwalk.o)
 .data          0x0305ad3c        0x0 c:/altera/10.0/nios2eds/bin/gnu/h-i686-mingw32/bin/../lib/gcc/nios2-elf/4.1.2/../../../../nios2-elf/lib\libc.a(lib_a-fwrite.o)
 .data          0x0305ad3c      0x400 c:/altera/10.0/nios2eds/bin/gnu/h-i686-mingw32/bin/../lib/gcc/nios2-elf/4.1.2/../../../../nios2-elf/lib\libc.a(lib_a-impure.o)
 .data          0x0305b13c        0x0 c:/altera/10.0/nios2eds/bin/gnu/h-i686-mingw32/bin/../lib/gcc/nios2-elf/4.1.2/../../../../nios2-elf/lib\libc.a(lib_a-int_errno.o)
 .data          0x0305b13c        0x0 c:/altera/10.0/nios2eds/bin/gnu/h-i686-mingw32/bin/../lib/gcc/nios2-elf/4.1.2/../../../../nios2-elf/lib\libc.a(lib_a-makebuf.o)
 .data          0x0305b13c        0x0 c:/altera/10.0/nios2eds/bin/gnu/h-i686-mingw32/bin/../lib/gcc/nios2-elf/4.1.2/../../../../nios2-elf/lib\libc.a(lib_a-malloc.o)
 .data          0x0305b13c      0x408 c:/altera/10.0/nios2eds/bin/gnu/h-i686-mingw32/bin/../lib/gcc/nios2-elf/4.1.2/../../../../nios2-elf/lib\libc.a(lib_a-mallocr.o)
                0x0305b13c                __malloc_av_
 .data          0x0305b544        0x0 c:/altera/10.0/nios2eds/bin/gnu/h-i686-mingw32/bin/../lib/gcc/nios2-elf/4.1.2/../../../../nios2-elf/lib\libc.a(lib_a-memcpy.o)
 .data          0x0305b544        0x0 c:/altera/10.0/nios2eds/bin/gnu/h-i686-mingw32/bin/../lib/gcc/nios2-elf/4.1.2/../../../../nios2-elf/lib\libc.a(lib_a-memset.o)
 .data          0x0305b544        0x0 c:/altera/10.0/nios2eds/bin/gnu/h-i686-mingw32/bin/../lib/gcc/nios2-elf/4.1.2/../../../../nios2-elf/lib\libc.a(lib_a-openr.o)
 .data          0x0305b544        0x0 c:/altera/10.0/nios2eds/bin/gnu/h-i686-mingw32/bin/../lib/gcc/nios2-elf/4.1.2/../../../../nios2-elf/lib\libc.a(lib_a-printf.o)
 .data          0x0305b544        0x0 c:/altera/10.0/nios2eds/bin/gnu/h-i686-mingw32/bin/../lib/gcc/nios2-elf/4.1.2/../../../../nios2-elf/lib\libc.a(lib_a-putchar.o)
 .data          0x0305b544        0x0 c:/altera/10.0/nios2eds/bin/gnu/h-i686-mingw32/bin/../lib/gcc/nios2-elf/4.1.2/../../../../nios2-elf/lib\libc.a(lib_a-puts.o)
 .data          0x0305b544        0x0 c:/altera/10.0/nios2eds/bin/gnu/h-i686-mingw32/bin/../lib/gcc/nios2-elf/4.1.2/../../../../nios2-elf/lib\libc.a(lib_a-refill.o)
 .data          0x0305b544        0x0 c:/altera/10.0/nios2eds/bin/gnu/h-i686-mingw32/bin/../lib/gcc/nios2-elf/4.1.2/../../../../nios2-elf/lib\libc.a(lib_a-sbrkr.o)
 .data          0x0305b544        0x0 c:/altera/10.0/nios2eds/bin/gnu/h-i686-mingw32/bin/../lib/gcc/nios2-elf/4.1.2/../../../../nios2-elf/lib\libc.a(lib_a-sprintf.o)
 .data          0x0305b544        0x0 c:/altera/10.0/nios2eds/bin/gnu/h-i686-mingw32/bin/../lib/gcc/nios2-elf/4.1.2/../../../../nios2-elf/lib\libc.a(lib_a-stdio.o)
 .data          0x0305b544        0x0 c:/altera/10.0/nios2eds/bin/gnu/h-i686-mingw32/bin/../lib/gcc/nios2-elf/4.1.2/../../../../nios2-elf/lib\libc.a(lib_a-strcasecmp.o)
 .data          0x0305b544        0x0 c:/altera/10.0/nios2eds/bin/gnu/h-i686-mingw32/bin/../lib/gcc/nios2-elf/4.1.2/../../../../nios2-elf/lib\libc.a(lib_a-strcmp.o)
 .data          0x0305b544        0x0 c:/altera/10.0/nios2eds/bin/gnu/h-i686-mingw32/bin/../lib/gcc/nios2-elf/4.1.2/../../../../nios2-elf/lib\libc.a(lib_a-strcpy.o)
 .data          0x0305b544        0x0 c:/altera/10.0/nios2eds/bin/gnu/h-i686-mingw32/bin/../lib/gcc/nios2-elf/4.1.2/../../../../nios2-elf/lib\libc.a(lib_a-strlen.o)
 .data          0x0305b544        0x0 c:/altera/10.0/nios2eds/bin/gnu/h-i686-mingw32/bin/../lib/gcc/nios2-elf/4.1.2/../../../../nios2-elf/lib\libc.a(lib_a-vfprintf.o)
 .data          0x0305b544        0x0 c:/altera/10.0/nios2eds/bin/gnu/h-i686-mingw32/bin/../lib/gcc/nios2-elf/4.1.2/../../../../nios2-elf/lib\libc.a(lib_a-vsnprintf.o)
 .data          0x0305b544        0x0 c:/altera/10.0/nios2eds/bin/gnu/h-i686-mingw32/bin/../lib/gcc/nios2-elf/4.1.2/../../../../nios2-elf/lib\libc.a(lib_a-writer.o)
 .data          0x0305b544        0x0 c:/altera/10.0/nios2eds/bin/gnu/h-i686-mingw32/bin/../lib/gcc/nios2-elf/4.1.2/../../../../nios2-elf/lib\libc.a(lib_a-wsetup.o)
 .data          0x0305b544        0x0 c:/altera/10.0/nios2eds/bin/gnu/h-i686-mingw32/bin/../lib/gcc/nios2-elf/4.1.2/../../../../nios2-elf/lib\libc.a(lib_a-closer.o)
 .data          0x0305b544        0x0 c:/altera/10.0/nios2eds/bin/gnu/h-i686-mingw32/bin/../lib/gcc/nios2-elf/4.1.2/../../../../nios2-elf/lib\libc.a(lib_a-ctype_.o)
 .data          0x0305b544        0x0 c:/altera/10.0/nios2eds/bin/gnu/h-i686-mingw32/bin/../lib/gcc/nios2-elf/4.1.2/../../../../nios2-elf/lib\libc.a(lib_a-dtoa.o)
 .data          0x0305b544        0x0 c:/altera/10.0/nios2eds/bin/gnu/h-i686-mingw32/bin/../lib/gcc/nios2-elf/4.1.2/../../../../nios2-elf/lib\libc.a(lib_a-flags.o)
 .data          0x0305b544        0x0 c:/altera/10.0/nios2eds/bin/gnu/h-i686-mingw32/bin/../lib/gcc/nios2-elf/4.1.2/../../../../nios2-elf/lib\libc.a(lib_a-fvwrite.o)
 .data          0x0305b544        0x0 c:/altera/10.0/nios2eds/bin/gnu/h-i686-mingw32/bin/../lib/gcc/nios2-elf/4.1.2/../../../../nios2-elf/lib\libc.a(lib_a-isattyr.o)
 .data          0x0305b544        0xc c:/altera/10.0/nios2eds/bin/gnu/h-i686-mingw32/bin/../lib/gcc/nios2-elf/4.1.2/../../../../nios2-elf/lib\libc.a(lib_a-locale.o)
                0x0305b544                __lc_ctype
 .data          0x0305b550        0x0 c:/altera/10.0/nios2eds/bin/gnu/h-i686-mingw32/bin/../lib/gcc/nios2-elf/4.1.2/../../../../nios2-elf/lib\libc.a(lib_a-lseekr.o)
 .data          0x0305b550        0x0 c:/altera/10.0/nios2eds/bin/gnu/h-i686-mingw32/bin/../lib/gcc/nios2-elf/4.1.2/../../../../nios2-elf/lib\libc.a(lib_a-memchr.o)
 .data          0x0305b550        0x0 c:/altera/10.0/nios2eds/bin/gnu/h-i686-mingw32/bin/../lib/gcc/nios2-elf/4.1.2/../../../../nios2-elf/lib\libc.a(lib_a-memmove.o)
 .data          0x0305b550        0x0 c:/altera/10.0/nios2eds/bin/gnu/h-i686-mingw32/bin/../lib/gcc/nios2-elf/4.1.2/../../../../nios2-elf/lib\libc.a(lib_a-mprec.o)
 .data          0x0305b550        0x0 c:/altera/10.0/nios2eds/bin/gnu/h-i686-mingw32/bin/../lib/gcc/nios2-elf/4.1.2/../../../../nios2-elf/lib\libc.a(lib_a-putc.o)
 .data          0x0305b550        0x0 c:/altera/10.0/nios2eds/bin/gnu/h-i686-mingw32/bin/../lib/gcc/nios2-elf/4.1.2/../../../../nios2-elf/lib\libc.a(lib_a-readr.o)
 .data          0x0305b550        0x0 c:/altera/10.0/nios2eds/bin/gnu/h-i686-mingw32/bin/../lib/gcc/nios2-elf/4.1.2/../../../../nios2-elf/lib\libc.a(lib_a-reallocr.o)
 .data          0x0305b550        0x0 c:/altera/10.0/nios2eds/bin/gnu/h-i686-mingw32/bin/../lib/gcc/nios2-elf/4.1.2/../../../../nios2-elf/lib\libc.a(lib_a-s_isinfd.o)
 .data          0x0305b550        0x0 c:/altera/10.0/nios2eds/bin/gnu/h-i686-mingw32/bin/../lib/gcc/nios2-elf/4.1.2/../../../../nios2-elf/lib\libc.a(lib_a-s_isnand.o)
 .data          0x0305b550        0x0 c:/altera/10.0/nios2eds/bin/gnu/h-i686-mingw32/bin/../lib/gcc/nios2-elf/4.1.2/../../../../nios2-elf/lib\libc.a(lib_a-wbuf.o)
 .data          0x0305b550        0x0 c:/altera/10.0/nios2eds/bin/gnu/h-i686-mingw32/bin/../lib/gcc/nios2-elf/4.1.2/../../../../nios2-elf/lib\libc.a(lib_a-callocr.o)
 .data          0x0305b550        0x0 c:/altera/10.0/nios2eds/bin/gnu/h-i686-mingw32/bin/../lib/gcc/nios2-elf/4.1.2\libgcc.a(_addsub_df.o)
 .data          0x0305b550        0x0 c:/altera/10.0/nios2eds/bin/gnu/h-i686-mingw32/bin/../lib/gcc/nios2-elf/4.1.2\libgcc.a(_mul_df.o)
 .data          0x0305b550        0x0 c:/altera/10.0/nios2eds/bin/gnu/h-i686-mingw32/bin/../lib/gcc/nios2-elf/4.1.2\libgcc.a(_eq_df.o)
 .data          0x0305b550        0x0 c:/altera/10.0/nios2eds/bin/gnu/h-i686-mingw32/bin/../lib/gcc/nios2-elf/4.1.2\libgcc.a(_ne_df.o)
 .data          0x0305b550        0x0 c:/altera/10.0/nios2eds/bin/gnu/h-i686-mingw32/bin/../lib/gcc/nios2-elf/4.1.2\libgcc.a(_gt_df.o)
 .data          0x0305b550        0x0 c:/altera/10.0/nios2eds/bin/gnu/h-i686-mingw32/bin/../lib/gcc/nios2-elf/4.1.2\libgcc.a(_ge_df.o)
 .data          0x0305b550        0x0 c:/altera/10.0/nios2eds/bin/gnu/h-i686-mingw32/bin/../lib/gcc/nios2-elf/4.1.2\libgcc.a(_lt_df.o)
 .data          0x0305b550        0x0 c:/altera/10.0/nios2eds/bin/gnu/h-i686-mingw32/bin/../lib/gcc/nios2-elf/4.1.2\libgcc.a(_si_to_df.o)
 .data          0x0305b550        0x0 c:/altera/10.0/nios2eds/bin/gnu/h-i686-mingw32/bin/../lib/gcc/nios2-elf/4.1.2\libgcc.a(_df_to_si.o)
 .data          0x0305b550        0x0 c:/altera/10.0/nios2eds/bin/gnu/h-i686-mingw32/bin/../lib/gcc/nios2-elf/4.1.2\libgcc.a(_usi_to_df.o)
 .data          0x0305b550        0x0 c:/altera/10.0/nios2eds/bin/gnu/h-i686-mingw32/bin/../lib/gcc/nios2-elf/4.1.2\libgcc.a(_fpcmp_parts_df.o)
 .data          0x0305b550        0x0 ../DE2_115_SD_Card_Audio_Player_bsp/\libhal_bsp.a(alt_close.o)
 .data          0x0305b550      0x1a8 ../DE2_115_SD_Card_Audio_Player_bsp/\libhal_bsp.a(alt_dev.o)
                0x0305b578                alt_fd_list
                0x0305b550                alt_dev_null
 .data          0x0305b6f8        0x0 ../DE2_115_SD_Card_Audio_Player_bsp/\libhal_bsp.a(alt_errno.o)
 .data          0x0305b6f8        0x0 ../DE2_115_SD_Card_Audio_Player_bsp/\libhal_bsp.a(alt_fstat.o)
 .data          0x0305b6f8        0x0 ../DE2_115_SD_Card_Audio_Player_bsp/\libhal_bsp.a(alt_irq_register.o)
 .data          0x0305b6f8        0x0 ../DE2_115_SD_Card_Audio_Player_bsp/\libhal_bsp.a(alt_irq_vars.o)
 .data          0x0305b6f8        0x0 ../DE2_115_SD_Card_Audio_Player_bsp/\libhal_bsp.a(alt_isatty.o)
 .data          0x0305b6f8        0x0 ../DE2_115_SD_Card_Audio_Player_bsp/\libhal_bsp.a(alt_load.o)
 .data          0x0305b6f8        0x0 ../DE2_115_SD_Card_Audio_Player_bsp/\libhal_bsp.a(alt_lseek.o)
 .data          0x0305b6f8        0x0 ../DE2_115_SD_Card_Audio_Player_bsp/\libhal_bsp.a(alt_main.o)
 .data          0x0305b6f8        0x0 ../DE2_115_SD_Card_Audio_Player_bsp/\libhal_bsp.a(alt_malloc_lock.o)
 .data          0x0305b6f8        0x0 ../DE2_115_SD_Card_Audio_Player_bsp/\libhal_bsp.a(alt_open.o)
 .data          0x0305b6f8        0x0 ../DE2_115_SD_Card_Audio_Player_bsp/\libhal_bsp.a(alt_read.o)
 .data          0x0305b6f8        0x0 ../DE2_115_SD_Card_Audio_Player_bsp/\libhal_bsp.a(alt_release_fd.o)
 .data          0x0305b6f8        0x0 ../DE2_115_SD_Card_Audio_Player_bsp/\libhal_bsp.a(alt_sbrk.o)
 .data          0x0305b6f8        0x0 ../DE2_115_SD_Card_Audio_Player_bsp/\libhal_bsp.a(alt_tick.o)
 .data          0x0305b6f8        0x0 ../DE2_115_SD_Card_Audio_Player_bsp/\libhal_bsp.a(alt_usleep.o)
 .data          0x0305b6f8        0x0 ../DE2_115_SD_Card_Audio_Player_bsp/\libhal_bsp.a(alt_write.o)
 .data          0x0305b6f8     0x131c ../DE2_115_SD_Card_Audio_Player_bsp/\libhal_bsp.a(alt_sys_init.o)
 .data          0x0305ca14        0x0 ../DE2_115_SD_Card_Audio_Player_bsp/\libhal_bsp.a(altera_avalon_cfi_flash.o)
 .data          0x0305ca14        0x0 ../DE2_115_SD_Card_Audio_Player_bsp/\libhal_bsp.a(altera_avalon_cfi_flash_table.o)
 .data          0x0305ca14        0x0 ../DE2_115_SD_Card_Audio_Player_bsp/\libhal_bsp.a(altera_avalon_jtag_uart_fd.o)
 .data          0x0305ca14        0x0 ../DE2_115_SD_Card_Audio_Player_bsp/\libhal_bsp.a(altera_avalon_jtag_uart_init.o)
 .data          0x0305ca14        0x0 ../DE2_115_SD_Card_Audio_Player_bsp/\libhal_bsp.a(altera_avalon_jtag_uart_ioctl.o)
 .data          0x0305ca14        0x0 ../DE2_115_SD_Card_Audio_Player_bsp/\libhal_bsp.a(altera_avalon_jtag_uart_read.o)
 .data          0x0305ca14        0x0 ../DE2_115_SD_Card_Audio_Player_bsp/\libhal_bsp.a(altera_avalon_jtag_uart_write.o)
 .data          0x0305ca14        0x0 ../DE2_115_SD_Card_Audio_Player_bsp/\libhal_bsp.a(altera_avalon_lcd_16207.o)
 .data          0x0305ca14        0x0 ../DE2_115_SD_Card_Audio_Player_bsp/\libhal_bsp.a(altera_avalon_lcd_16207_fd.o)
 .data          0x0305ca14        0x0 ../DE2_115_SD_Card_Audio_Player_bsp/\libhal_bsp.a(altera_avalon_timer_sc.o)
 .data          0x0305ca14        0x0 ../DE2_115_SD_Card_Audio_Player_bsp/\libhal_bsp.a(altera_avalon_uart_fd.o)
 .data          0x0305ca14        0x0 ../DE2_115_SD_Card_Audio_Player_bsp/\libhal_bsp.a(altera_avalon_uart_init.o)
 .data          0x0305ca14        0x0 ../DE2_115_SD_Card_Audio_Player_bsp/\libhal_bsp.a(altera_avalon_uart_read.o)
 .data          0x0305ca14        0x0 ../DE2_115_SD_Card_Audio_Player_bsp/\libhal_bsp.a(altera_avalon_uart_write.o)
 .data          0x0305ca14        0x0 ../DE2_115_SD_Card_Audio_Player_bsp/\libhal_bsp.a(alt_alarm_start.o)
 .data          0x0305ca14        0x0 ../DE2_115_SD_Card_Audio_Player_bsp/\libhal_bsp.a(alt_busy_sleep.o)
 .data          0x0305ca14        0x0 ../DE2_115_SD_Card_Audio_Player_bsp/\libhal_bsp.a(alt_dcache_flush.o)
 .data          0x0305ca14        0x0 ../DE2_115_SD_Card_Audio_Player_bsp/\libhal_bsp.a(alt_dcache_flush_all.o)
 .data          0x0305ca14        0x0 ../DE2_115_SD_Card_Audio_Player_bsp/\libhal_bsp.a(alt_dev_llist_insert.o)
 .data          0x0305ca14        0x0 ../DE2_115_SD_Card_Audio_Player_bsp/\libhal_bsp.a(alt_do_ctors.o)
 .data          0x0305ca14        0x0 ../DE2_115_SD_Card_Audio_Player_bsp/\libhal_bsp.a(alt_do_dtors.o)
 .data          0x0305ca14        0x0 ../DE2_115_SD_Card_Audio_Player_bsp/\libhal_bsp.a(alt_find_dev.o)
 .data          0x0305ca14        0x0 ../DE2_115_SD_Card_Audio_Player_bsp/\libhal_bsp.a(alt_find_file.o)
 .data          0x0305ca14        0x0 ../DE2_115_SD_Card_Audio_Player_bsp/\libhal_bsp.a(alt_flash_dev.o)
 .data          0x0305ca14        0x0 ../DE2_115_SD_Card_Audio_Player_bsp/\libhal_bsp.a(alt_get_fd.o)
 .data          0x0305ca14        0x0 ../DE2_115_SD_Card_Audio_Player_bsp/\libhal_bsp.a(alt_icache_flush_all.o)
 .data          0x0305ca14        0x0 ../DE2_115_SD_Card_Audio_Player_bsp/\libhal_bsp.a(alt_iic.o)
 .data          0x0305ca14        0x0 ../DE2_115_SD_Card_Audio_Player_bsp/\libhal_bsp.a(alt_iic_isr_register.o)
 .data          0x0305ca14        0x0 ../DE2_115_SD_Card_Audio_Player_bsp/\libhal_bsp.a(alt_io_redirect.o)
 .data          0x0305ca14        0x0 ../DE2_115_SD_Card_Audio_Player_bsp/\libhal_bsp.a(alt_irq_entry.o)
 .data          0x0305ca14        0x0 ../DE2_115_SD_Card_Audio_Player_bsp/\libhal_bsp.a(alt_irq_handler.o)
 .data          0x0305ca14        0x0 ../DE2_115_SD_Card_Audio_Player_bsp/\libhal_bsp.a(altera_nios2_qsys_irq.o)
 .data          0x0305ca14        0x0 ../DE2_115_SD_Card_Audio_Player_bsp/\libhal_bsp.a(altera_avalon_cfi_flash_amd.o)
 .data          0x0305ca14        0x0 ../DE2_115_SD_Card_Audio_Player_bsp/\libhal_bsp.a(altera_avalon_cfi_flash_intel.o)
 .data          0x0305ca14        0x0 ../DE2_115_SD_Card_Audio_Player_bsp/\libhal_bsp.a(alt_exception_entry.o)
 .data          0x0305ca14        0x0 ../DE2_115_SD_Card_Audio_Player_bsp/\libhal_bsp.a(alt_icache_flush.o)
 .data          0x0305ca14        0x0 c:/altera/10.0/nios2eds/bin/gnu/h-i686-mingw32/bin/../lib/gcc/nios2-elf/4.1.2/../../../../nios2-elf/lib\libc.a(lib_a-atexit.o)
 .data          0x0305ca14        0x0 c:/altera/10.0/nios2eds/bin/gnu/h-i686-mingw32/bin/../lib/gcc/nios2-elf/4.1.2/../../../../nios2-elf/lib\libc.a(lib_a-exit.o)
 .data          0x0305ca14        0x0 c:/altera/10.0/nios2eds/bin/gnu/h-i686-mingw32/bin/../lib/gcc/nios2-elf/4.1.2/../../../../nios2-elf/lib\libc.a(lib_a-memcmp.o)
 .data          0x0305ca14        0x0 c:/altera/10.0/nios2eds/bin/gnu/h-i686-mingw32/bin/../lib/gcc/nios2-elf/4.1.2/../../../../nios2-elf/lib\libc.a(lib_a-__atexit.o)
 .data          0x0305ca14        0x0 c:/altera/10.0/nios2eds/bin/gnu/h-i686-mingw32/bin/../lib/gcc/nios2-elf/4.1.2/../../../../nios2-elf/lib\libc.a(lib_a-__call_atexit.o)
 .data          0x0305ca14        0x0 ../DE2_115_SD_Card_Audio_Player_bsp/\libhal_bsp.a(alt_exit.o)
                0x03064a14                _gp = <code 341> ((. + 0x8000))
                0x03064a14                PROVIDE (gp, _gp)
 *(.rwdata .rwdata.*)
 *(.sdata .sdata.* .gnu.linkonce.s.*)
 .sdata         0x0305ca14        0xc obj/default/main.o
 .sdata         0x0305ca20        0x8 c:/altera/10.0/nios2eds/bin/gnu/h-i686-mingw32/bin/../lib/gcc/nios2-elf/4.1.2/../../../../nios2-elf/lib\libc.a(lib_a-impure.o)
                0x0305ca24                _global_impure_ptr
                0x0305ca20                _impure_ptr
 .sdata         0x0305ca28        0x8 c:/altera/10.0/nios2eds/bin/gnu/h-i686-mingw32/bin/../lib/gcc/nios2-elf/4.1.2/../../../../nios2-elf/lib\libc.a(lib_a-mallocr.o)
                0x0305ca2c                __malloc_sbrk_base
                0x0305ca28                __malloc_trim_threshold
 .sdata         0x0305ca30        0x4 c:/altera/10.0/nios2eds/bin/gnu/h-i686-mingw32/bin/../lib/gcc/nios2-elf/4.1.2/../../../../nios2-elf/lib\libc.a(lib_a-ctype_.o)
                0x0305ca30                __ctype_ptr
 .sdata         0x0305ca34        0x8 c:/altera/10.0/nios2eds/bin/gnu/h-i686-mingw32/bin/../lib/gcc/nios2-elf/4.1.2/../../../../nios2-elf/lib\libc.a(lib_a-locale.o)
                0x0305ca34                __mb_cur_max
 .sdata         0x0305ca3c       0x14 ../DE2_115_SD_Card_Audio_Player_bsp/\libhal_bsp.a(alt_dev.o)
                0x0305ca4c                alt_max_fd
                0x0305ca44                alt_dev_list
                0x0305ca3c                alt_fs_list
 .sdata         0x0305ca50        0x4 ../DE2_115_SD_Card_Audio_Player_bsp/\libhal_bsp.a(alt_errno.o)
                0x0305ca50                alt_errno
 .sdata         0x0305ca54        0x8 ../DE2_115_SD_Card_Audio_Player_bsp/\libhal_bsp.a(alt_irq_vars.o)
                0x0305ca54                alt_irq_active
                0x0305ca58                alt_priority_mask
 .sdata         0x0305ca5c        0xc ../DE2_115_SD_Card_Audio_Player_bsp/\libhal_bsp.a(alt_main.o)
                0x0305ca60                alt_argv
                0x0305ca64                alt_envp
                0x0305ca5c                alt_argc
 .sdata         0x0305ca68        0x4 ../DE2_115_SD_Card_Audio_Player_bsp/\libhal_bsp.a(alt_sbrk.o)
 .sdata         0x0305ca6c       0x10 ../DE2_115_SD_Card_Audio_Player_bsp/\libhal_bsp.a(alt_tick.o)
                0x0305ca6c                _alt_tick_rate
                0x0305ca70                _alt_nticks
                0x0305ca74                alt_alarm_list
 .sdata         0x0305ca7c        0x4 ../DE2_115_SD_Card_Audio_Player_bsp/\libhal_bsp.a(altera_avalon_lcd_16207.o)
 .sdata         0x0305ca80        0x8 ../DE2_115_SD_Card_Audio_Player_bsp/\libhal_bsp.a(alt_flash_dev.o)
                0x0305ca80                alt_flash_dev_list
 *(.sdata2 .sdata2.* .gnu.linkonce.s2.*)
                0x0305ca88                . = ALIGN (0x4)
                0x0305ca88                _edata = <code 341> (.)
                0x0305ca88                PROVIDE (edata, <code 341> (.))
                0x0305ca88                PROVIDE (__ram_rwdata_end, <code 341> (.))
                0x0305ca88                PROVIDE (__flash_rwdata_start, LOADADDR (.rwdata))

.bss            0x0305e7e4     0x158c
                0x0305e7e4                __bss_start = <code 341> (.)
                0x0305e7e4                PROVIDE (__sbss_start, <code 341> (.))
                0x0305e7e4                PROVIDE (___sbss_start, <code 341> (.))
 *(.dynsbss)
 *(.sbss .sbss.* .gnu.linkonce.sb.*)
 .sbss          0x0305e7e4       0x14 obj/default/main.o
 .sbss          0x0305e7f8        0x4 obj/default/terasic_lib/LCD.o
 .sbss          0x0305e7fc        0x4 c:/altera/10.0/nios2eds/bin/gnu/h-i686-mingw32/bin/../lib/gcc/nios2-elf/4.1.2/../../../../nios2-elf/lib\libc.a(lib_a-int_errno.o)
                0x0305e7fc                errno
 .sbss          0x0305e800        0xc c:/altera/10.0/nios2eds/bin/gnu/h-i686-mingw32/bin/../lib/gcc/nios2-elf/4.1.2/../../../../nios2-elf/lib\libc.a(lib_a-mallocr.o)
                0x0305e800                __malloc_top_pad
                0x0305e804                __malloc_max_sbrked_mem
                0x0305e808                __malloc_max_total_mem
 .sbss          0x0305e80c        0xc c:/altera/10.0/nios2eds/bin/gnu/h-i686-mingw32/bin/../lib/gcc/nios2-elf/4.1.2/../../../../nios2-elf/lib\libc.a(lib_a-locale.o)
                0x0305e80c                __nlocale_changed
                0x0305e810                __mlocale_changed
                0x0305e814                _PathLocale
 *(.sbss2 .sbss2.* .gnu.linkonce.sb2.*)
 *(.scommon)
                0x0305e818                PROVIDE (__sbss_end, <code 341> (.))
                0x0305e818                PROVIDE (___sbss_end, <code 341> (.))
 *(.dynbss)
 *(.bss .bss.* .gnu.linkonce.b.*)
 .bss           0x0305e818        0x0 ../DE2_115_SD_Card_Audio_Player_bsp//obj/HAL/src/crt0.o
 .bss           0x0305e818     0x1240 obj/default/main.o
 .bss           0x0305fa58        0x0 obj/default/terasic_fat/FatFileSystem.o
 .bss           0x0305fa58        0x0 obj/default/terasic_fat/FatInternal.o
 .bss           0x0305fa58       0x28 obj/default/terasic_lib/AUDIO.o
 .bss           0x0305fa80        0x0 obj/default/terasic_lib/I2C.o
 .bss           0x0305fa80        0x0 obj/default/terasic_lib/LCD.o
 .bss           0x0305fa80        0x0 obj/default/terasic_lib/LED.o
 .bss           0x0305fa80        0x0 obj/default/terasic_lib/SEG7.o
 .bss           0x0305fa80        0x0 obj/default/terasic_lib/WaveLib.o
 .bss           0x0305fa80        0x0 obj/default/terasic_lib/debug.o
 .bss           0x0305fa80        0x0 obj/default/terasic_sdcard/crc16.o
 .bss           0x0305fa80        0x0 obj/default/terasic_sdcard/crc7.o
 .bss           0x0305fa80        0x0 obj/default/terasic_sdcard/sd_hal.o
 .bss           0x0305fa80       0x38 obj/default/terasic_sdcard/sd_lib.o
 .bss           0x0305fab8        0x0 obj/default/terasic_sdcard/sd_protocol.o
 .bss           0x0305fab8        0x0 c:/altera/10.0/nios2eds/bin/gnu/h-i686-mingw32/bin/../lib/gcc/nios2-elf/4.1.2\libgcc.a(_mul_sf.o)
 .bss           0x0305fab8        0x0 c:/altera/10.0/nios2eds/bin/gnu/h-i686-mingw32/bin/../lib/gcc/nios2-elf/4.1.2\libgcc.a(_div_sf.o)
 .bss           0x0305fab8        0x0 c:/altera/10.0/nios2eds/bin/gnu/h-i686-mingw32/bin/../lib/gcc/nios2-elf/4.1.2\libgcc.a(_sf_to_df.o)
 .bss           0x0305fab8        0x0 c:/altera/10.0/nios2eds/bin/gnu/h-i686-mingw32/bin/../lib/gcc/nios2-elf/4.1.2\libgcc.a(_thenan_sf.o)
 .bss           0x0305fab8        0x0 c:/altera/10.0/nios2eds/bin/gnu/h-i686-mingw32/bin/../lib/gcc/nios2-elf/4.1.2\libgcc.a(_usi_to_sf.o)
 .bss           0x0305fab8        0x0 c:/altera/10.0/nios2eds/bin/gnu/h-i686-mingw32/bin/../lib/gcc/nios2-elf/4.1.2\libgcc.a(_div_df.o)
 .bss           0x0305fab8        0x0 c:/altera/10.0/nios2eds/bin/gnu/h-i686-mingw32/bin/../lib/gcc/nios2-elf/4.1.2\libgcc.a(_make_df.o)
 .bss           0x0305fab8        0x0 c:/altera/10.0/nios2eds/bin/gnu/h-i686-mingw32/bin/../lib/gcc/nios2-elf/4.1.2\libgcc.a(_df_to_sf.o)
 .bss           0x0305fab8        0x0 c:/altera/10.0/nios2eds/bin/gnu/h-i686-mingw32/bin/../lib/gcc/nios2-elf/4.1.2\libgcc.a(_thenan_df.o)
 .bss           0x0305fab8        0x0 c:/altera/10.0/nios2eds/bin/gnu/h-i686-mingw32/bin/../lib/gcc/nios2-elf/4.1.2\libgcc.a(lib2-divmod.o)
 .bss           0x0305fab8        0x0 c:/altera/10.0/nios2eds/bin/gnu/h-i686-mingw32/bin/../lib/gcc/nios2-elf/4.1.2\libgcc.a(_muldi3.o)
 .bss           0x0305fab8        0x0 c:/altera/10.0/nios2eds/bin/gnu/h-i686-mingw32/bin/../lib/gcc/nios2-elf/4.1.2\libgcc.a(_clzsi2.o)
 .bss           0x0305fab8        0x0 c:/altera/10.0/nios2eds/bin/gnu/h-i686-mingw32/bin/../lib/gcc/nios2-elf/4.1.2\libgcc.a(_pack_sf.o)
 .bss           0x0305fab8        0x0 c:/altera/10.0/nios2eds/bin/gnu/h-i686-mingw32/bin/../lib/gcc/nios2-elf/4.1.2\libgcc.a(_unpack_sf.o)
 .bss           0x0305fab8        0x0 c:/altera/10.0/nios2eds/bin/gnu/h-i686-mingw32/bin/../lib/gcc/nios2-elf/4.1.2\libgcc.a(_make_sf.o)
 .bss           0x0305fab8        0x0 c:/altera/10.0/nios2eds/bin/gnu/h-i686-mingw32/bin/../lib/gcc/nios2-elf/4.1.2\libgcc.a(_pack_df.o)
 .bss           0x0305fab8        0x0 c:/altera/10.0/nios2eds/bin/gnu/h-i686-mingw32/bin/../lib/gcc/nios2-elf/4.1.2\libgcc.a(_unpack_df.o)
 .bss           0x0305fab8        0x0 c:/altera/10.0/nios2eds/bin/gnu/h-i686-mingw32/bin/../lib/gcc/nios2-elf/4.1.2\libgcc.a(_clz.o)
 .bss           0x0305fab8        0x0 c:/altera/10.0/nios2eds/bin/gnu/h-i686-mingw32/bin/../lib/gcc/nios2-elf/4.1.2/../../../../nios2-elf/lib\libc.a(lib_a-fclose.o)
 .bss           0x0305fab8        0x0 c:/altera/10.0/nios2eds/bin/gnu/h-i686-mingw32/bin/../lib/gcc/nios2-elf/4.1.2/../../../../nios2-elf/lib\libc.a(lib_a-fflush.o)
 .bss           0x0305fab8        0x0 c:/altera/10.0/nios2eds/bin/gnu/h-i686-mingw32/bin/../lib/gcc/nios2-elf/4.1.2/../../../../nios2-elf/lib\libc.a(lib_a-findfp.o)
 .bss           0x0305fab8        0x0 c:/altera/10.0/nios2eds/bin/gnu/h-i686-mingw32/bin/../lib/gcc/nios2-elf/4.1.2/../../../../nios2-elf/lib\libc.a(lib_a-fopen.o)
 .bss           0x0305fab8        0x0 c:/altera/10.0/nios2eds/bin/gnu/h-i686-mingw32/bin/../lib/gcc/nios2-elf/4.1.2/../../../../nios2-elf/lib\libc.a(lib_a-freer.o)
 .bss           0x0305fab8        0x0 c:/altera/10.0/nios2eds/bin/gnu/h-i686-mingw32/bin/../lib/gcc/nios2-elf/4.1.2/../../../../nios2-elf/lib\libc.a(lib_a-fseek.o)
 .bss           0x0305fab8        0x0 c:/altera/10.0/nios2eds/bin/gnu/h-i686-mingw32/bin/../lib/gcc/nios2-elf/4.1.2/../../../../nios2-elf/lib\libc.a(lib_a-fstatr.o)
 .bss           0x0305fab8        0x0 c:/altera/10.0/nios2eds/bin/gnu/h-i686-mingw32/bin/../lib/gcc/nios2-elf/4.1.2/../../../../nios2-elf/lib\libc.a(lib_a-fwalk.o)
 .bss           0x0305fab8        0x0 c:/altera/10.0/nios2eds/bin/gnu/h-i686-mingw32/bin/../lib/gcc/nios2-elf/4.1.2/../../../../nios2-elf/lib\libc.a(lib_a-fwrite.o)
 .bss           0x0305fab8        0x0 c:/altera/10.0/nios2eds/bin/gnu/h-i686-mingw32/bin/../lib/gcc/nios2-elf/4.1.2/../../../../nios2-elf/lib\libc.a(lib_a-impure.o)
 .bss           0x0305fab8        0x0 c:/altera/10.0/nios2eds/bin/gnu/h-i686-mingw32/bin/../lib/gcc/nios2-elf/4.1.2/../../../../nios2-elf/lib\libc.a(lib_a-int_errno.o)
 .bss           0x0305fab8        0x0 c:/altera/10.0/nios2eds/bin/gnu/h-i686-mingw32/bin/../lib/gcc/nios2-elf/4.1.2/../../../../nios2-elf/lib\libc.a(lib_a-makebuf.o)
 .bss           0x0305fab8        0x0 c:/altera/10.0/nios2eds/bin/gnu/h-i686-mingw32/bin/../lib/gcc/nios2-elf/4.1.2/../../../../nios2-elf/lib\libc.a(lib_a-malloc.o)
 .bss           0x0305fab8       0x28 c:/altera/10.0/nios2eds/bin/gnu/h-i686-mingw32/bin/../lib/gcc/nios2-elf/4.1.2/../../../../nios2-elf/lib\libc.a(lib_a-mallocr.o)
                0x0305fab8                __malloc_current_mallinfo
 .bss           0x0305fae0        0x0 c:/altera/10.0/nios2eds/bin/gnu/h-i686-mingw32/bin/../lib/gcc/nios2-elf/4.1.2/../../../../nios2-elf/lib\libc.a(lib_a-memcpy.o)
 .bss           0x0305fae0        0x0 c:/altera/10.0/nios2eds/bin/gnu/h-i686-mingw32/bin/../lib/gcc/nios2-elf/4.1.2/../../../../nios2-elf/lib\libc.a(lib_a-memset.o)
 .bss           0x0305fae0        0x0 c:/altera/10.0/nios2eds/bin/gnu/h-i686-mingw32/bin/../lib/gcc/nios2-elf/4.1.2/../../../../nios2-elf/lib\libc.a(lib_a-openr.o)
 .bss           0x0305fae0        0x0 c:/altera/10.0/nios2eds/bin/gnu/h-i686-mingw32/bin/../lib/gcc/nios2-elf/4.1.2/../../../../nios2-elf/lib\libc.a(lib_a-printf.o)
 .bss           0x0305fae0        0x0 c:/altera/10.0/nios2eds/bin/gnu/h-i686-mingw32/bin/../lib/gcc/nios2-elf/4.1.2/../../../../nios2-elf/lib\libc.a(lib_a-putchar.o)
 .bss           0x0305fae0        0x0 c:/altera/10.0/nios2eds/bin/gnu/h-i686-mingw32/bin/../lib/gcc/nios2-elf/4.1.2/../../../../nios2-elf/lib\libc.a(lib_a-puts.o)
 .bss           0x0305fae0        0x0 c:/altera/10.0/nios2eds/bin/gnu/h-i686-mingw32/bin/../lib/gcc/nios2-elf/4.1.2/../../../../nios2-elf/lib\libc.a(lib_a-refill.o)
 .bss           0x0305fae0        0x0 c:/altera/10.0/nios2eds/bin/gnu/h-i686-mingw32/bin/../lib/gcc/nios2-elf/4.1.2/../../../../nios2-elf/lib\libc.a(lib_a-sbrkr.o)
 .bss           0x0305fae0        0x0 c:/altera/10.0/nios2eds/bin/gnu/h-i686-mingw32/bin/../lib/gcc/nios2-elf/4.1.2/../../../../nios2-elf/lib\libc.a(lib_a-sprintf.o)
 .bss           0x0305fae0        0x0 c:/altera/10.0/nios2eds/bin/gnu/h-i686-mingw32/bin/../lib/gcc/nios2-elf/4.1.2/../../../../nios2-elf/lib\libc.a(lib_a-stdio.o)
 .bss           0x0305fae0        0x0 c:/altera/10.0/nios2eds/bin/gnu/h-i686-mingw32/bin/../lib/gcc/nios2-elf/4.1.2/../../../../nios2-elf/lib\libc.a(lib_a-strcasecmp.o)
 .bss           0x0305fae0        0x0 c:/altera/10.0/nios2eds/bin/gnu/h-i686-mingw32/bin/../lib/gcc/nios2-elf/4.1.2/../../../../nios2-elf/lib\libc.a(lib_a-strcmp.o)
 .bss           0x0305fae0        0x0 c:/altera/10.0/nios2eds/bin/gnu/h-i686-mingw32/bin/../lib/gcc/nios2-elf/4.1.2/../../../../nios2-elf/lib\libc.a(lib_a-strcpy.o)
 .bss           0x0305fae0        0x0 c:/altera/10.0/nios2eds/bin/gnu/h-i686-mingw32/bin/../lib/gcc/nios2-elf/4.1.2/../../../../nios2-elf/lib\libc.a(lib_a-strlen.o)
 .bss           0x0305fae0        0x0 c:/altera/10.0/nios2eds/bin/gnu/h-i686-mingw32/bin/../lib/gcc/nios2-elf/4.1.2/../../../../nios2-elf/lib\libc.a(lib_a-vfprintf.o)
 .bss           0x0305fae0        0x0 c:/altera/10.0/nios2eds/bin/gnu/h-i686-mingw32/bin/../lib/gcc/nios2-elf/4.1.2/../../../../nios2-elf/lib\libc.a(lib_a-vsnprintf.o)
 .bss           0x0305fae0        0x0 c:/altera/10.0/nios2eds/bin/gnu/h-i686-mingw32/bin/../lib/gcc/nios2-elf/4.1.2/../../../../nios2-elf/lib\libc.a(lib_a-writer.o)
 .bss           0x0305fae0        0x0 c:/altera/10.0/nios2eds/bin/gnu/h-i686-mingw32/bin/../lib/gcc/nios2-elf/4.1.2/../../../../nios2-elf/lib\libc.a(lib_a-wsetup.o)
 .bss           0x0305fae0        0x0 c:/altera/10.0/nios2eds/bin/gnu/h-i686-mingw32/bin/../lib/gcc/nios2-elf/4.1.2/../../../../nios2-elf/lib\libc.a(lib_a-closer.o)
 .bss           0x0305fae0        0x0 c:/altera/10.0/nios2eds/bin/gnu/h-i686-mingw32/bin/../lib/gcc/nios2-elf/4.1.2/../../../../nios2-elf/lib\libc.a(lib_a-ctype_.o)
 .bss           0x0305fae0        0x0 c:/altera/10.0/nios2eds/bin/gnu/h-i686-mingw32/bin/../lib/gcc/nios2-elf/4.1.2/../../../../nios2-elf/lib\libc.a(lib_a-dtoa.o)
 .bss           0x0305fae0        0x0 c:/altera/10.0/nios2eds/bin/gnu/h-i686-mingw32/bin/../lib/gcc/nios2-elf/4.1.2/../../../../nios2-elf/lib\libc.a(lib_a-flags.o)
 .bss           0x0305fae0        0x0 c:/altera/10.0/nios2eds/bin/gnu/h-i686-mingw32/bin/../lib/gcc/nios2-elf/4.1.2/../../../../nios2-elf/lib\libc.a(lib_a-fvwrite.o)
 .bss           0x0305fae0        0x0 c:/altera/10.0/nios2eds/bin/gnu/h-i686-mingw32/bin/../lib/gcc/nios2-elf/4.1.2/../../../../nios2-elf/lib\libc.a(lib_a-isattyr.o)
 .bss           0x0305fae0        0x0 c:/altera/10.0/nios2eds/bin/gnu/h-i686-mingw32/bin/../lib/gcc/nios2-elf/4.1.2/../../../../nios2-elf/lib\libc.a(lib_a-locale.o)
 .bss           0x0305fae0        0x0 c:/altera/10.0/nios2eds/bin/gnu/h-i686-mingw32/bin/../lib/gcc/nios2-elf/4.1.2/../../../../nios2-elf/lib\libc.a(lib_a-lseekr.o)
 .bss           0x0305fae0        0x0 c:/altera/10.0/nios2eds/bin/gnu/h-i686-mingw32/bin/../lib/gcc/nios2-elf/4.1.2/../../../../nios2-elf/lib\libc.a(lib_a-memchr.o)
 .bss           0x0305fae0        0x0 c:/altera/10.0/nios2eds/bin/gnu/h-i686-mingw32/bin/../lib/gcc/nios2-elf/4.1.2/../../../../nios2-elf/lib\libc.a(lib_a-memmove.o)
 .bss           0x0305fae0        0x0 c:/altera/10.0/nios2eds/bin/gnu/h-i686-mingw32/bin/../lib/gcc/nios2-elf/4.1.2/../../../../nios2-elf/lib\libc.a(lib_a-mprec.o)
 .bss           0x0305fae0        0x0 c:/altera/10.0/nios2eds/bin/gnu/h-i686-mingw32/bin/../lib/gcc/nios2-elf/4.1.2/../../../../nios2-elf/lib\libc.a(lib_a-putc.o)
 .bss           0x0305fae0        0x0 c:/altera/10.0/nios2eds/bin/gnu/h-i686-mingw32/bin/../lib/gcc/nios2-elf/4.1.2/../../../../nios2-elf/lib\libc.a(lib_a-readr.o)
 .bss           0x0305fae0        0x0 c:/altera/10.0/nios2eds/bin/gnu/h-i686-mingw32/bin/../lib/gcc/nios2-elf/4.1.2/../../../../nios2-elf/lib\libc.a(lib_a-reallocr.o)
 .bss           0x0305fae0        0x0 c:/altera/10.0/nios2eds/bin/gnu/h-i686-mingw32/bin/../lib/gcc/nios2-elf/4.1.2/../../../../nios2-elf/lib\libc.a(lib_a-s_isinfd.o)
 .bss           0x0305fae0        0x0 c:/altera/10.0/nios2eds/bin/gnu/h-i686-mingw32/bin/../lib/gcc/nios2-elf/4.1.2/../../../../nios2-elf/lib\libc.a(lib_a-s_isnand.o)
 .bss           0x0305fae0        0x0 c:/altera/10.0/nios2eds/bin/gnu/h-i686-mingw32/bin/../lib/gcc/nios2-elf/4.1.2/../../../../nios2-elf/lib\libc.a(lib_a-wbuf.o)
 .bss           0x0305fae0        0x0 c:/altera/10.0/nios2eds/bin/gnu/h-i686-mingw32/bin/../lib/gcc/nios2-elf/4.1.2/../../../../nios2-elf/lib\libc.a(lib_a-callocr.o)
 .bss           0x0305fae0        0x0 c:/altera/10.0/nios2eds/bin/gnu/h-i686-mingw32/bin/../lib/gcc/nios2-elf/4.1.2\libgcc.a(_addsub_df.o)
 .bss           0x0305fae0        0x0 c:/altera/10.0/nios2eds/bin/gnu/h-i686-mingw32/bin/../lib/gcc/nios2-elf/4.1.2\libgcc.a(_mul_df.o)
 .bss           0x0305fae0        0x0 c:/altera/10.0/nios2eds/bin/gnu/h-i686-mingw32/bin/../lib/gcc/nios2-elf/4.1.2\libgcc.a(_eq_df.o)
 .bss           0x0305fae0        0x0 c:/altera/10.0/nios2eds/bin/gnu/h-i686-mingw32/bin/../lib/gcc/nios2-elf/4.1.2\libgcc.a(_ne_df.o)
 .bss           0x0305fae0        0x0 c:/altera/10.0/nios2eds/bin/gnu/h-i686-mingw32/bin/../lib/gcc/nios2-elf/4.1.2\libgcc.a(_gt_df.o)
 .bss           0x0305fae0        0x0 c:/altera/10.0/nios2eds/bin/gnu/h-i686-mingw32/bin/../lib/gcc/nios2-elf/4.1.2\libgcc.a(_ge_df.o)
 .bss           0x0305fae0        0x0 c:/altera/10.0/nios2eds/bin/gnu/h-i686-mingw32/bin/../lib/gcc/nios2-elf/4.1.2\libgcc.a(_lt_df.o)
 .bss           0x0305fae0        0x0 c:/altera/10.0/nios2eds/bin/gnu/h-i686-mingw32/bin/../lib/gcc/nios2-elf/4.1.2\libgcc.a(_si_to_df.o)
 .bss           0x0305fae0        0x0 c:/altera/10.0/nios2eds/bin/gnu/h-i686-mingw32/bin/../lib/gcc/nios2-elf/4.1.2\libgcc.a(_df_to_si.o)
 .bss           0x0305fae0        0x0 c:/altera/10.0/nios2eds/bin/gnu/h-i686-mingw32/bin/../lib/gcc/nios2-elf/4.1.2\libgcc.a(_usi_to_df.o)
 .bss           0x0305fae0        0x0 c:/altera/10.0/nios2eds/bin/gnu/h-i686-mingw32/bin/../lib/gcc/nios2-elf/4.1.2\libgcc.a(_fpcmp_parts_df.o)
 .bss           0x0305fae0        0x0 ../DE2_115_SD_Card_Audio_Player_bsp/\libhal_bsp.a(alt_close.o)
 .bss           0x0305fae0        0x0 ../DE2_115_SD_Card_Audio_Player_bsp/\libhal_bsp.a(alt_dev.o)
 .bss           0x0305fae0        0x0 ../DE2_115_SD_Card_Audio_Player_bsp/\libhal_bsp.a(alt_errno.o)
 .bss           0x0305fae0        0x0 ../DE2_115_SD_Card_Audio_Player_bsp/\libhal_bsp.a(alt_fstat.o)
 .bss           0x0305fae0        0x0 ../DE2_115_SD_Card_Audio_Player_bsp/\libhal_bsp.a(alt_irq_register.o)
 .bss           0x0305fae0        0x0 ../DE2_115_SD_Card_Audio_Player_bsp/\libhal_bsp.a(alt_irq_vars.o)
 .bss           0x0305fae0        0x0 ../DE2_115_SD_Card_Audio_Player_bsp/\libhal_bsp.a(alt_isatty.o)
 .bss           0x0305fae0        0x0 ../DE2_115_SD_Card_Audio_Player_bsp/\libhal_bsp.a(alt_load.o)
 .bss           0x0305fae0        0x0 ../DE2_115_SD_Card_Audio_Player_bsp/\libhal_bsp.a(alt_lseek.o)
 .bss           0x0305fae0        0x0 ../DE2_115_SD_Card_Audio_Player_bsp/\libhal_bsp.a(alt_main.o)
 .bss           0x0305fae0        0x0 ../DE2_115_SD_Card_Audio_Player_bsp/\libhal_bsp.a(alt_malloc_lock.o)
 .bss           0x0305fae0        0x0 ../DE2_115_SD_Card_Audio_Player_bsp/\libhal_bsp.a(alt_open.o)
 .bss           0x0305fae0        0x0 ../DE2_115_SD_Card_Audio_Player_bsp/\libhal_bsp.a(alt_read.o)
 .bss           0x0305fae0        0x0 ../DE2_115_SD_Card_Audio_Player_bsp/\libhal_bsp.a(alt_release_fd.o)
 .bss           0x0305fae0        0x0 ../DE2_115_SD_Card_Audio_Player_bsp/\libhal_bsp.a(alt_sbrk.o)
 .bss           0x0305fae0        0x0 ../DE2_115_SD_Card_Audio_Player_bsp/\libhal_bsp.a(alt_tick.o)
 .bss           0x0305fae0        0x0 ../DE2_115_SD_Card_Audio_Player_bsp/\libhal_bsp.a(alt_usleep.o)
 .bss           0x0305fae0        0x0 ../DE2_115_SD_Card_Audio_Player_bsp/\libhal_bsp.a(alt_write.o)
 .bss           0x0305fae0        0x0 ../DE2_115_SD_Card_Audio_Player_bsp/\libhal_bsp.a(alt_sys_init.o)
 .bss           0x0305fae0        0x0 ../DE2_115_SD_Card_Audio_Player_bsp/\libhal_bsp.a(altera_avalon_cfi_flash.o)
 .bss           0x0305fae0        0x0 ../DE2_115_SD_Card_Audio_Player_bsp/\libhal_bsp.a(altera_avalon_cfi_flash_table.o)
 .bss           0x0305fae0        0x0 ../DE2_115_SD_Card_Audio_Player_bsp/\libhal_bsp.a(altera_avalon_jtag_uart_fd.o)
 .bss           0x0305fae0        0x0 ../DE2_115_SD_Card_Audio_Player_bsp/\libhal_bsp.a(altera_avalon_jtag_uart_init.o)
 .bss           0x0305fae0        0x0 ../DE2_115_SD_Card_Audio_Player_bsp/\libhal_bsp.a(altera_avalon_jtag_uart_ioctl.o)
 .bss           0x0305fae0        0x0 ../DE2_115_SD_Card_Audio_Player_bsp/\libhal_bsp.a(altera_avalon_jtag_uart_read.o)
 .bss           0x0305fae0        0x0 ../DE2_115_SD_Card_Audio_Player_bsp/\libhal_bsp.a(altera_avalon_jtag_uart_write.o)
 .bss           0x0305fae0        0x0 ../DE2_115_SD_Card_Audio_Player_bsp/\libhal_bsp.a(altera_avalon_lcd_16207.o)
 .bss           0x0305fae0        0x0 ../DE2_115_SD_Card_Audio_Player_bsp/\libhal_bsp.a(altera_avalon_lcd_16207_fd.o)
 .bss           0x0305fae0        0x0 ../DE2_115_SD_Card_Audio_Player_bsp/\libhal_bsp.a(altera_avalon_timer_sc.o)
 .bss           0x0305fae0        0x0 ../DE2_115_SD_Card_Audio_Player_bsp/\libhal_bsp.a(altera_avalon_uart_fd.o)
 .bss           0x0305fae0        0x0 ../DE2_115_SD_Card_Audio_Player_bsp/\libhal_bsp.a(altera_avalon_uart_init.o)
 .bss           0x0305fae0        0x0 ../DE2_115_SD_Card_Audio_Player_bsp/\libhal_bsp.a(altera_avalon_uart_read.o)
 .bss           0x0305fae0        0x0 ../DE2_115_SD_Card_Audio_Player_bsp/\libhal_bsp.a(altera_avalon_uart_write.o)
 .bss           0x0305fae0        0x0 ../DE2_115_SD_Card_Audio_Player_bsp/\libhal_bsp.a(alt_alarm_start.o)
 .bss           0x0305fae0        0x0 ../DE2_115_SD_Card_Audio_Player_bsp/\libhal_bsp.a(alt_busy_sleep.o)
 .bss           0x0305fae0        0x0 ../DE2_115_SD_Card_Audio_Player_bsp/\libhal_bsp.a(alt_dcache_flush.o)
 .bss           0x0305fae0        0x0 ../DE2_115_SD_Card_Audio_Player_bsp/\libhal_bsp.a(alt_dcache_flush_all.o)
 .bss           0x0305fae0        0x0 ../DE2_115_SD_Card_Audio_Player_bsp/\libhal_bsp.a(alt_dev_llist_insert.o)
 .bss           0x0305fae0        0x0 ../DE2_115_SD_Card_Audio_Player_bsp/\libhal_bsp.a(alt_do_ctors.o)
 .bss           0x0305fae0        0x0 ../DE2_115_SD_Card_Audio_Player_bsp/\libhal_bsp.a(alt_do_dtors.o)
 .bss           0x0305fae0        0x0 ../DE2_115_SD_Card_Audio_Player_bsp/\libhal_bsp.a(alt_find_dev.o)
 .bss           0x0305fae0        0x0 ../DE2_115_SD_Card_Audio_Player_bsp/\libhal_bsp.a(alt_find_file.o)
 .bss           0x0305fae0        0x0 ../DE2_115_SD_Card_Audio_Player_bsp/\libhal_bsp.a(alt_flash_dev.o)
 .bss           0x0305fae0        0x0 ../DE2_115_SD_Card_Audio_Player_bsp/\libhal_bsp.a(alt_get_fd.o)
 .bss           0x0305fae0        0x0 ../DE2_115_SD_Card_Audio_Player_bsp/\libhal_bsp.a(alt_icache_flush_all.o)
 .bss           0x0305fae0        0x0 ../DE2_115_SD_Card_Audio_Player_bsp/\libhal_bsp.a(alt_iic.o)
 .bss           0x0305fae0        0x0 ../DE2_115_SD_Card_Audio_Player_bsp/\libhal_bsp.a(alt_iic_isr_register.o)
 .bss           0x0305fae0        0x0 ../DE2_115_SD_Card_Audio_Player_bsp/\libhal_bsp.a(alt_io_redirect.o)
 .bss           0x0305fae0        0x0 ../DE2_115_SD_Card_Audio_Player_bsp/\libhal_bsp.a(alt_irq_entry.o)
 .bss           0x0305fae0        0x0 ../DE2_115_SD_Card_Audio_Player_bsp/\libhal_bsp.a(alt_irq_handler.o)
 .bss           0x0305fae0        0x0 ../DE2_115_SD_Card_Audio_Player_bsp/\libhal_bsp.a(altera_nios2_qsys_irq.o)
 .bss           0x0305fae0        0x0 ../DE2_115_SD_Card_Audio_Player_bsp/\libhal_bsp.a(altera_avalon_cfi_flash_amd.o)
 .bss           0x0305fae0        0x0 ../DE2_115_SD_Card_Audio_Player_bsp/\libhal_bsp.a(altera_avalon_cfi_flash_intel.o)
 .bss           0x0305fae0        0x0 ../DE2_115_SD_Card_Audio_Player_bsp/\libhal_bsp.a(alt_exception_entry.o)
 .bss           0x0305fae0        0x0 ../DE2_115_SD_Card_Audio_Player_bsp/\libhal_bsp.a(alt_icache_flush.o)
 .bss           0x0305fae0        0x0 c:/altera/10.0/nios2eds/bin/gnu/h-i686-mingw32/bin/../lib/gcc/nios2-elf/4.1.2/../../../../nios2-elf/lib\libc.a(lib_a-atexit.o)
 .bss           0x0305fae0        0x0 c:/altera/10.0/nios2eds/bin/gnu/h-i686-mingw32/bin/../lib/gcc/nios2-elf/4.1.2/../../../../nios2-elf/lib\libc.a(lib_a-exit.o)
 .bss           0x0305fae0        0x0 c:/altera/10.0/nios2eds/bin/gnu/h-i686-mingw32/bin/../lib/gcc/nios2-elf/4.1.2/../../../../nios2-elf/lib\libc.a(lib_a-memcmp.o)
 .bss           0x0305fae0        0x0 c:/altera/10.0/nios2eds/bin/gnu/h-i686-mingw32/bin/../lib/gcc/nios2-elf/4.1.2/../../../../nios2-elf/lib\libc.a(lib_a-__atexit.o)
 .bss           0x0305fae0        0x0 c:/altera/10.0/nios2eds/bin/gnu/h-i686-mingw32/bin/../lib/gcc/nios2-elf/4.1.2/../../../../nios2-elf/lib\libc.a(lib_a-__call_atexit.o)
 .bss           0x0305fae0        0x0 ../DE2_115_SD_Card_Audio_Player_bsp/\libhal_bsp.a(alt_exit.o)
 *(COMMON)
 COMMON         0x0305fae0      0x100 ../DE2_115_SD_Card_Audio_Player_bsp/\libhal_bsp.a(alt_irq_handler.o)
                0x0305fae0                alt_irq
 COMMON         0x0305fbe0      0x190 c:/altera/10.0/nios2eds/bin/gnu/h-i686-mingw32/bin/../lib/gcc/nios2-elf/4.1.2/../../../../nios2-elf/lib\libc.a(lib_a-atexit.o)
                0x0305fbe0                _atexit0
                0x0305fd70                . = ALIGN (0x4)
                0x0305fd70                __bss_end = <code 341> (.)

.av_tri_s1_cfi_flash_0
                0x02800000        0x0 load address 0x0305fd70
                0x02800000                PROVIDE (_alt_partition_av_tri_s1_cfi_flash_0_start, <code 341> (.))
 *(.av_tri_s1_cfi_flash_0. av_tri_s1_cfi_flash_0.*)
                0x02800000                . = ALIGN (0x4)
                0x02800000                PROVIDE (_alt_partition_av_tri_s1_cfi_flash_0_end, <code 341> (.))
                0x0305fd70                PROVIDE (_alt_partition_av_tri_s1_cfi_flash_0_load_addr, LOADADDR (.av_tri_s1_cfi_flash_0))

.onchip_memory2
                0x0305fd70        0x0
                0x0305fd70                PROVIDE (_alt_partition_onchip_memory2_start, <code 341> (.))
 *(.onchip_memory2. onchip_memory2.*)
                0x0305fd70                . = ALIGN (0x4)
                0x0305fd70                PROVIDE (_alt_partition_onchip_memory2_end, <code 341> (.))
                0x0305fd70                _end = <code 341> (.)
                0x0305fd70                end = <code 341> (.)
                0x0305fd70                __alt_stack_base = <code 341> (.)
                0x0305fd70                PROVIDE (_alt_partition_onchip_memory2_load_addr, LOADADDR (.onchip_memory2))

.stab
 *(.stab)

.stabstr
 *(.stabstr)

.stab.excl
 *(.stab.excl)

.stab.exclstr
 *(.stab.exclstr)

.stab.index
 *(.stab.index)

.stab.indexstr
 *(.stab.indexstr)

.comment        0x00000000     0x176a
 *(.comment)
 .comment       0x00000000       0x24 obj/default/main.o
 .comment       0x00000024       0x24 obj/default/terasic_fat/FatFileSystem.o
 .comment       0x00000048       0x24 obj/default/terasic_fat/FatInternal.o
 .comment       0x0000006c       0x24 obj/default/terasic_lib/AUDIO.o
 .comment       0x00000090       0x24 obj/default/terasic_lib/I2C.o
 .comment       0x000000b4       0x24 obj/default/terasic_lib/LCD.o
 .comment       0x000000d8       0x24 obj/default/terasic_lib/LED.o
 .comment       0x000000fc       0x24 obj/default/terasic_lib/SEG7.o
 .comment       0x00000120       0x24 obj/default/terasic_lib/WaveLib.o
 .comment       0x00000144       0x24 obj/default/terasic_lib/debug.o
 .comment       0x00000168       0x24 obj/default/terasic_sdcard/crc16.o
 .comment       0x0000018c       0x24 obj/default/terasic_sdcard/crc7.o
 .comment       0x000001b0       0x24 obj/default/terasic_sdcard/sd_hal.o
 .comment       0x000001d4       0x24 obj/default/terasic_sdcard/sd_lib.o
 .comment       0x000001f8       0x24 obj/default/terasic_sdcard/sd_protocol.o
 .comment       0x0000021c       0x24 c:/altera/10.0/nios2eds/bin/gnu/h-i686-mingw32/bin/../lib/gcc/nios2-elf/4.1.2\libgcc.a(_mul_sf.o)
 .comment       0x00000240       0x24 c:/altera/10.0/nios2eds/bin/gnu/h-i686-mingw32/bin/../lib/gcc/nios2-elf/4.1.2\libgcc.a(_div_sf.o)
 .comment       0x00000264       0x24 c:/altera/10.0/nios2eds/bin/gnu/h-i686-mingw32/bin/../lib/gcc/nios2-elf/4.1.2\libgcc.a(_sf_to_df.o)
 .comment       0x00000288       0x24 c:/altera/10.0/nios2eds/bin/gnu/h-i686-mingw32/bin/../lib/gcc/nios2-elf/4.1.2\libgcc.a(_thenan_sf.o)
 .comment       0x000002ac       0x24 c:/altera/10.0/nios2eds/bin/gnu/h-i686-mingw32/bin/../lib/gcc/nios2-elf/4.1.2\libgcc.a(_usi_to_sf.o)
 .comment       0x000002d0       0x24 c:/altera/10.0/nios2eds/bin/gnu/h-i686-mingw32/bin/../lib/gcc/nios2-elf/4.1.2\libgcc.a(_div_df.o)
 .comment       0x000002f4       0x24 c:/altera/10.0/nios2eds/bin/gnu/h-i686-mingw32/bin/../lib/gcc/nios2-elf/4.1.2\libgcc.a(_make_df.o)
 .comment       0x00000318       0x24 c:/altera/10.0/nios2eds/bin/gnu/h-i686-mingw32/bin/../lib/gcc/nios2-elf/4.1.2\libgcc.a(_df_to_sf.o)
 .comment       0x0000033c       0x24 c:/altera/10.0/nios2eds/bin/gnu/h-i686-mingw32/bin/../lib/gcc/nios2-elf/4.1.2\libgcc.a(_thenan_df.o)
 .comment       0x00000360       0x24 c:/altera/10.0/nios2eds/bin/gnu/h-i686-mingw32/bin/../lib/gcc/nios2-elf/4.1.2\libgcc.a(lib2-divmod.o)
 .comment       0x00000384       0x24 c:/altera/10.0/nios2eds/bin/gnu/h-i686-mingw32/bin/../lib/gcc/nios2-elf/4.1.2\libgcc.a(_muldi3.o)
 .comment       0x000003a8       0x24 c:/altera/10.0/nios2eds/bin/gnu/h-i686-mingw32/bin/../lib/gcc/nios2-elf/4.1.2\libgcc.a(_clzsi2.o)
 .comment       0x000003cc       0x24 c:/altera/10.0/nios2eds/bin/gnu/h-i686-mingw32/bin/../lib/gcc/nios2-elf/4.1.2\libgcc.a(_pack_sf.o)
 .comment       0x000003f0       0x24 c:/altera/10.0/nios2eds/bin/gnu/h-i686-mingw32/bin/../lib/gcc/nios2-elf/4.1.2\libgcc.a(_unpack_sf.o)
 .comment       0x00000414       0x24 c:/altera/10.0/nios2eds/bin/gnu/h-i686-mingw32/bin/../lib/gcc/nios2-elf/4.1.2\libgcc.a(_make_sf.o)
 .comment       0x00000438       0x24 c:/altera/10.0/nios2eds/bin/gnu/h-i686-mingw32/bin/../lib/gcc/nios2-elf/4.1.2\libgcc.a(_pack_df.o)
 .comment       0x0000045c       0x24 c:/altera/10.0/nios2eds/bin/gnu/h-i686-mingw32/bin/../lib/gcc/nios2-elf/4.1.2\libgcc.a(_unpack_df.o)
 .comment       0x00000480       0x24 c:/altera/10.0/nios2eds/bin/gnu/h-i686-mingw32/bin/../lib/gcc/nios2-elf/4.1.2\libgcc.a(_clz.o)
 .comment       0x000004a4       0x24 c:/altera/10.0/nios2eds/bin/gnu/h-i686-mingw32/bin/../lib/gcc/nios2-elf/4.1.2/../../../../nios2-elf/lib\libc.a(lib_a-fclose.o)
 .comment       0x000004c8       0x24 c:/altera/10.0/nios2eds/bin/gnu/h-i686-mingw32/bin/../lib/gcc/nios2-elf/4.1.2/../../../../nios2-elf/lib\libc.a(lib_a-fflush.o)
 .comment       0x000004ec       0x24 c:/altera/10.0/nios2eds/bin/gnu/h-i686-mingw32/bin/../lib/gcc/nios2-elf/4.1.2/../../../../nios2-elf/lib\libc.a(lib_a-findfp.o)
 .comment       0x00000510       0x24 c:/altera/10.0/nios2eds/bin/gnu/h-i686-mingw32/bin/../lib/gcc/nios2-elf/4.1.2/../../../../nios2-elf/lib\libc.a(lib_a-fopen.o)
 .comment       0x00000534       0x24 c:/altera/10.0/nios2eds/bin/gnu/h-i686-mingw32/bin/../lib/gcc/nios2-elf/4.1.2/../../../../nios2-elf/lib\libc.a(lib_a-freer.o)
 .comment       0x00000558       0x24 c:/altera/10.0/nios2eds/bin/gnu/h-i686-mingw32/bin/../lib/gcc/nios2-elf/4.1.2/../../../../nios2-elf/lib\libc.a(lib_a-fseek.o)
 .comment       0x0000057c       0x24 c:/altera/10.0/nios2eds/bin/gnu/h-i686-mingw32/bin/../lib/gcc/nios2-elf/4.1.2/../../../../nios2-elf/lib\libc.a(lib_a-fstatr.o)
 .comment       0x000005a0       0x24 c:/altera/10.0/nios2eds/bin/gnu/h-i686-mingw32/bin/../lib/gcc/nios2-elf/4.1.2/../../../../nios2-elf/lib\libc.a(lib_a-fwalk.o)
 .comment       0x000005c4       0x24 c:/altera/10.0/nios2eds/bin/gnu/h-i686-mingw32/bin/../lib/gcc/nios2-elf/4.1.2/../../../../nios2-elf/lib\libc.a(lib_a-fwrite.o)
 .comment       0x000005e8       0x24 c:/altera/10.0/nios2eds/bin/gnu/h-i686-mingw32/bin/../lib/gcc/nios2-elf/4.1.2/../../../../nios2-elf/lib\libc.a(lib_a-impure.o)
 .comment       0x0000060c       0x24 c:/altera/10.0/nios2eds/bin/gnu/h-i686-mingw32/bin/../lib/gcc/nios2-elf/4.1.2/../../../../nios2-elf/lib\libc.a(lib_a-int_errno.o)
 .comment       0x00000630       0x24 c:/altera/10.0/nios2eds/bin/gnu/h-i686-mingw32/bin/../lib/gcc/nios2-elf/4.1.2/../../../../nios2-elf/lib\libc.a(lib_a-makebuf.o)
 .comment       0x00000654       0x24 c:/altera/10.0/nios2eds/bin/gnu/h-i686-mingw32/bin/../lib/gcc/nios2-elf/4.1.2/../../../../nios2-elf/lib\libc.a(lib_a-malloc.o)
 .comment       0x00000678       0x24 c:/altera/10.0/nios2eds/bin/gnu/h-i686-mingw32/bin/../lib/gcc/nios2-elf/4.1.2/../../../../nios2-elf/lib\libc.a(lib_a-mallocr.o)
 .comment       0x0000069c       0x24 c:/altera/10.0/nios2eds/bin/gnu/h-i686-mingw32/bin/../lib/gcc/nios2-elf/4.1.2/../../../../nios2-elf/lib\libc.a(lib_a-memcpy.o)
 .comment       0x000006c0       0x24 c:/altera/10.0/nios2eds/bin/gnu/h-i686-mingw32/bin/../lib/gcc/nios2-elf/4.1.2/../../../../nios2-elf/lib\libc.a(lib_a-memset.o)
 .comment       0x000006e4       0x24 c:/altera/10.0/nios2eds/bin/gnu/h-i686-mingw32/bin/../lib/gcc/nios2-elf/4.1.2/../../../../nios2-elf/lib\libc.a(lib_a-openr.o)
 .comment       0x00000708       0x24 c:/altera/10.0/nios2eds/bin/gnu/h-i686-mingw32/bin/../lib/gcc/nios2-elf/4.1.2/../../../../nios2-elf/lib\libc.a(lib_a-printf.o)
 .comment       0x0000072c       0x24 c:/altera/10.0/nios2eds/bin/gnu/h-i686-mingw32/bin/../lib/gcc/nios2-elf/4.1.2/../../../../nios2-elf/lib\libc.a(lib_a-putchar.o)
 .comment       0x00000750       0x24 c:/altera/10.0/nios2eds/bin/gnu/h-i686-mingw32/bin/../lib/gcc/nios2-elf/4.1.2/../../../../nios2-elf/lib\libc.a(lib_a-puts.o)
 .comment       0x00000774       0x24 c:/altera/10.0/nios2eds/bin/gnu/h-i686-mingw32/bin/../lib/gcc/nios2-elf/4.1.2/../../../../nios2-elf/lib\libc.a(lib_a-refill.o)
 .comment       0x00000798       0x24 c:/altera/10.0/nios2eds/bin/gnu/h-i686-mingw32/bin/../lib/gcc/nios2-elf/4.1.2/../../../../nios2-elf/lib\libc.a(lib_a-sbrkr.o)
 .comment       0x000007bc       0x24 c:/altera/10.0/nios2eds/bin/gnu/h-i686-mingw32/bin/../lib/gcc/nios2-elf/4.1.2/../../../../nios2-elf/lib\libc.a(lib_a-sprintf.o)
 .comment       0x000007e0       0x24 c:/altera/10.0/nios2eds/bin/gnu/h-i686-mingw32/bin/../lib/gcc/nios2-elf/4.1.2/../../../../nios2-elf/lib\libc.a(lib_a-stdio.o)
 .comment       0x00000804       0x24 c:/altera/10.0/nios2eds/bin/gnu/h-i686-mingw32/bin/../lib/gcc/nios2-elf/4.1.2/../../../../nios2-elf/lib\libc.a(lib_a-strcasecmp.o)
 .comment       0x00000828       0x24 c:/altera/10.0/nios2eds/bin/gnu/h-i686-mingw32/bin/../lib/gcc/nios2-elf/4.1.2/../../../../nios2-elf/lib\libc.a(lib_a-strcmp.o)
 .comment       0x0000084c       0x24 c:/altera/10.0/nios2eds/bin/gnu/h-i686-mingw32/bin/../lib/gcc/nios2-elf/4.1.2/../../../../nios2-elf/lib\libc.a(lib_a-strcpy.o)
 .comment       0x00000870       0x24 c:/altera/10.0/nios2eds/bin/gnu/h-i686-mingw32/bin/../lib/gcc/nios2-elf/4.1.2/../../../../nios2-elf/lib\libc.a(lib_a-strlen.o)
 .comment       0x00000894       0x24 c:/altera/10.0/nios2eds/bin/gnu/h-i686-mingw32/bin/../lib/gcc/nios2-elf/4.1.2/../../../../nios2-elf/lib\libc.a(lib_a-vfprintf.o)
 .comment       0x000008b8       0x24 c:/altera/10.0/nios2eds/bin/gnu/h-i686-mingw32/bin/../lib/gcc/nios2-elf/4.1.2/../../../../nios2-elf/lib\libc.a(lib_a-vsnprintf.o)
 .comment       0x000008dc       0x24 c:/altera/10.0/nios2eds/bin/gnu/h-i686-mingw32/bin/../lib/gcc/nios2-elf/4.1.2/../../../../nios2-elf/lib\libc.a(lib_a-writer.o)
 .comment       0x00000900       0x24 c:/altera/10.0/nios2eds/bin/gnu/h-i686-mingw32/bin/../lib/gcc/nios2-elf/4.1.2/../../../../nios2-elf/lib\libc.a(lib_a-wsetup.o)
 .comment       0x00000924       0x24 c:/altera/10.0/nios2eds/bin/gnu/h-i686-mingw32/bin/../lib/gcc/nios2-elf/4.1.2/../../../../nios2-elf/lib\libc.a(lib_a-closer.o)
 .comment       0x00000948       0x24 c:/altera/10.0/nios2eds/bin/gnu/h-i686-mingw32/bin/../lib/gcc/nios2-elf/4.1.2/../../../../nios2-elf/lib\libc.a(lib_a-ctype_.o)
 .comment       0x0000096c       0x24 c:/altera/10.0/nios2eds/bin/gnu/h-i686-mingw32/bin/../lib/gcc/nios2-elf/4.1.2/../../../../nios2-elf/lib\libc.a(lib_a-dtoa.o)
 .comment       0x00000990       0x24 c:/altera/10.0/nios2eds/bin/gnu/h-i686-mingw32/bin/../lib/gcc/nios2-elf/4.1.2/../../../../nios2-elf/lib\libc.a(lib_a-flags.o)
 .comment       0x000009b4       0x24 c:/altera/10.0/nios2eds/bin/gnu/h-i686-mingw32/bin/../lib/gcc/nios2-elf/4.1.2/../../../../nios2-elf/lib\libc.a(lib_a-fvwrite.o)
 .comment       0x000009d8       0x24 c:/altera/10.0/nios2eds/bin/gnu/h-i686-mingw32/bin/../lib/gcc/nios2-elf/4.1.2/../../../../nios2-elf/lib\libc.a(lib_a-isattyr.o)
 .comment       0x000009fc       0x24 c:/altera/10.0/nios2eds/bin/gnu/h-i686-mingw32/bin/../lib/gcc/nios2-elf/4.1.2/../../../../nios2-elf/lib\libc.a(lib_a-locale.o)
 .comment       0x00000a20       0x24 c:/altera/10.0/nios2eds/bin/gnu/h-i686-mingw32/bin/../lib/gcc/nios2-elf/4.1.2/../../../../nios2-elf/lib\libc.a(lib_a-lseekr.o)
 .comment       0x00000a44       0x24 c:/altera/10.0/nios2eds/bin/gnu/h-i686-mingw32/bin/../lib/gcc/nios2-elf/4.1.2/../../../../nios2-elf/lib\libc.a(lib_a-memchr.o)
 .comment       0x00000a68       0x24 c:/altera/10.0/nios2eds/bin/gnu/h-i686-mingw32/bin/../lib/gcc/nios2-elf/4.1.2/../../../../nios2-elf/lib\libc.a(lib_a-memmove.o)
 .comment       0x00000a8c       0x24 c:/altera/10.0/nios2eds/bin/gnu/h-i686-mingw32/bin/../lib/gcc/nios2-elf/4.1.2/../../../../nios2-elf/lib\libc.a(lib_a-mprec.o)
 .comment       0x00000ab0       0x24 c:/altera/10.0/nios2eds/bin/gnu/h-i686-mingw32/bin/../lib/gcc/nios2-elf/4.1.2/../../../../nios2-elf/lib\libc.a(lib_a-putc.o)
 .comment       0x00000ad4       0x24 c:/altera/10.0/nios2eds/bin/gnu/h-i686-mingw32/bin/../lib/gcc/nios2-elf/4.1.2/../../../../nios2-elf/lib\libc.a(lib_a-readr.o)
 .comment       0x00000af8       0x24 c:/altera/10.0/nios2eds/bin/gnu/h-i686-mingw32/bin/../lib/gcc/nios2-elf/4.1.2/../../../../nios2-elf/lib\libc.a(lib_a-reallocr.o)
 .comment       0x00000b1c       0x24 c:/altera/10.0/nios2eds/bin/gnu/h-i686-mingw32/bin/../lib/gcc/nios2-elf/4.1.2/../../../../nios2-elf/lib\libc.a(lib_a-s_isinfd.o)
 .comment       0x00000b40       0x24 c:/altera/10.0/nios2eds/bin/gnu/h-i686-mingw32/bin/../lib/gcc/nios2-elf/4.1.2/../../../../nios2-elf/lib\libc.a(lib_a-s_isnand.o)
 .comment       0x00000b64       0x24 c:/altera/10.0/nios2eds/bin/gnu/h-i686-mingw32/bin/../lib/gcc/nios2-elf/4.1.2/../../../../nios2-elf/lib\libc.a(lib_a-wbuf.o)
 .comment       0x00000b88       0x24 c:/altera/10.0/nios2eds/bin/gnu/h-i686-mingw32/bin/../lib/gcc/nios2-elf/4.1.2/../../../../nios2-elf/lib\libc.a(lib_a-callocr.o)
 .comment       0x00000bac       0x24 c:/altera/10.0/nios2eds/bin/gnu/h-i686-mingw32/bin/../lib/gcc/nios2-elf/4.1.2\libgcc.a(_addsub_df.o)
 .comment       0x00000bd0       0x24 c:/altera/10.0/nios2eds/bin/gnu/h-i686-mingw32/bin/../lib/gcc/nios2-elf/4.1.2\libgcc.a(_mul_df.o)
 .comment       0x00000bf4       0x24 c:/altera/10.0/nios2eds/bin/gnu/h-i686-mingw32/bin/../lib/gcc/nios2-elf/4.1.2\libgcc.a(_eq_df.o)
 .comment       0x00000c18       0x24 c:/altera/10.0/nios2eds/bin/gnu/h-i686-mingw32/bin/../lib/gcc/nios2-elf/4.1.2\libgcc.a(_ne_df.o)
 .comment       0x00000c3c       0x24 c:/altera/10.0/nios2eds/bin/gnu/h-i686-mingw32/bin/../lib/gcc/nios2-elf/4.1.2\libgcc.a(_gt_df.o)
 .comment       0x00000c60       0x24 c:/altera/10.0/nios2eds/bin/gnu/h-i686-mingw32/bin/../lib/gcc/nios2-elf/4.1.2\libgcc.a(_ge_df.o)
 .comment       0x00000c84       0x24 c:/altera/10.0/nios2eds/bin/gnu/h-i686-mingw32/bin/../lib/gcc/nios2-elf/4.1.2\libgcc.a(_lt_df.o)
 .comment       0x00000ca8       0x24 c:/altera/10.0/nios2eds/bin/gnu/h-i686-mingw32/bin/../lib/gcc/nios2-elf/4.1.2\libgcc.a(_si_to_df.o)
 .comment       0x00000ccc       0x24 c:/altera/10.0/nios2eds/bin/gnu/h-i686-mingw32/bin/../lib/gcc/nios2-elf/4.1.2\libgcc.a(_df_to_si.o)
 .comment       0x00000cf0       0x24 c:/altera/10.0/nios2eds/bin/gnu/h-i686-mingw32/bin/../lib/gcc/nios2-elf/4.1.2\libgcc.a(_usi_to_df.o)
 .comment       0x00000d14       0x24 c:/altera/10.0/nios2eds/bin/gnu/h-i686-mingw32/bin/../lib/gcc/nios2-elf/4.1.2\libgcc.a(_fpcmp_parts_df.o)
 .comment       0x00000d38       0x2d ../DE2_115_SD_Card_Audio_Player_bsp/\libhal_bsp.a(alt_close.o)
 .comment       0x00000d65       0x2d ../DE2_115_SD_Card_Audio_Player_bsp/\libhal_bsp.a(alt_dev.o)
 .comment       0x00000d92       0x2d ../DE2_115_SD_Card_Audio_Player_bsp/\libhal_bsp.a(alt_errno.o)
 .comment       0x00000dbf       0x2d ../DE2_115_SD_Card_Audio_Player_bsp/\libhal_bsp.a(alt_fstat.o)
 .comment       0x00000dec       0x2d ../DE2_115_SD_Card_Audio_Player_bsp/\libhal_bsp.a(alt_irq_register.o)
 .comment       0x00000e19       0x2d ../DE2_115_SD_Card_Audio_Player_bsp/\libhal_bsp.a(alt_irq_vars.o)
 .comment       0x00000e46       0x2d ../DE2_115_SD_Card_Audio_Player_bsp/\libhal_bsp.a(alt_isatty.o)
 .comment       0x00000e73       0x2d ../DE2_115_SD_Card_Audio_Player_bsp/\libhal_bsp.a(alt_load.o)
 .comment       0x00000ea0       0x2d ../DE2_115_SD_Card_Audio_Player_bsp/\libhal_bsp.a(alt_lseek.o)
 .comment       0x00000ecd       0x2d ../DE2_115_SD_Card_Audio_Player_bsp/\libhal_bsp.a(alt_main.o)
 .comment       0x00000efa       0x2d ../DE2_115_SD_Card_Audio_Player_bsp/\libhal_bsp.a(alt_malloc_lock.o)
 .comment       0x00000f27       0x2d ../DE2_115_SD_Card_Audio_Player_bsp/\libhal_bsp.a(alt_open.o)
 .comment       0x00000f54       0x2d ../DE2_115_SD_Card_Audio_Player_bsp/\libhal_bsp.a(alt_read.o)
 .comment       0x00000f81       0x2d ../DE2_115_SD_Card_Audio_Player_bsp/\libhal_bsp.a(alt_release_fd.o)
 .comment       0x00000fae       0x2d ../DE2_115_SD_Card_Audio_Player_bsp/\libhal_bsp.a(alt_sbrk.o)
 .comment       0x00000fdb       0x2d ../DE2_115_SD_Card_Audio_Player_bsp/\libhal_bsp.a(alt_tick.o)
 .comment       0x00001008       0x2d ../DE2_115_SD_Card_Audio_Player_bsp/\libhal_bsp.a(alt_usleep.o)
 .comment       0x00001035       0x2d ../DE2_115_SD_Card_Audio_Player_bsp/\libhal_bsp.a(alt_write.o)
 .comment       0x00001062       0x2d ../DE2_115_SD_Card_Audio_Player_bsp/\libhal_bsp.a(alt_sys_init.o)
 .comment       0x0000108f       0x2d ../DE2_115_SD_Card_Audio_Player_bsp/\libhal_bsp.a(altera_avalon_cfi_flash.o)
 .comment       0x000010bc       0x2d ../DE2_115_SD_Card_Audio_Player_bsp/\libhal_bsp.a(altera_avalon_cfi_flash_table.o)
 .comment       0x000010e9       0x2d ../DE2_115_SD_Card_Audio_Player_bsp/\libhal_bsp.a(altera_avalon_jtag_uart_fd.o)
 .comment       0x00001116       0x2d ../DE2_115_SD_Card_Audio_Player_bsp/\libhal_bsp.a(altera_avalon_jtag_uart_init.o)
 .comment       0x00001143       0x2d ../DE2_115_SD_Card_Audio_Player_bsp/\libhal_bsp.a(altera_avalon_jtag_uart_ioctl.o)
 .comment       0x00001170       0x2d ../DE2_115_SD_Card_Audio_Player_bsp/\libhal_bsp.a(altera_avalon_jtag_uart_read.o)
 .comment       0x0000119d       0x2d ../DE2_115_SD_Card_Audio_Player_bsp/\libhal_bsp.a(altera_avalon_jtag_uart_write.o)
 .comment       0x000011ca       0x2d ../DE2_115_SD_Card_Audio_Player_bsp/\libhal_bsp.a(altera_avalon_lcd_16207.o)
 .comment       0x000011f7       0x2d ../DE2_115_SD_Card_Audio_Player_bsp/\libhal_bsp.a(altera_avalon_lcd_16207_fd.o)
 .comment       0x00001224       0x2d ../DE2_115_SD_Card_Audio_Player_bsp/\libhal_bsp.a(altera_avalon_timer_sc.o)
 .comment       0x00001251       0x2d ../DE2_115_SD_Card_Audio_Player_bsp/\libhal_bsp.a(altera_avalon_uart_fd.o)
 .comment       0x0000127e       0x2d ../DE2_115_SD_Card_Audio_Player_bsp/\libhal_bsp.a(altera_avalon_uart_init.o)
 .comment       0x000012ab       0x2d ../DE2_115_SD_Card_Audio_Player_bsp/\libhal_bsp.a(altera_avalon_uart_read.o)
 .comment       0x000012d8       0x2d ../DE2_115_SD_Card_Audio_Player_bsp/\libhal_bsp.a(altera_avalon_uart_write.o)
 .comment       0x00001305       0x2d ../DE2_115_SD_Card_Audio_Player_bsp/\libhal_bsp.a(alt_alarm_start.o)
 .comment       0x00001332       0x2d ../DE2_115_SD_Card_Audio_Player_bsp/\libhal_bsp.a(alt_busy_sleep.o)
 .comment       0x0000135f       0x2d ../DE2_115_SD_Card_Audio_Player_bsp/\libhal_bsp.a(alt_dcache_flush.o)
 .comment       0x0000138c       0x2d ../DE2_115_SD_Card_Audio_Player_bsp/\libhal_bsp.a(alt_dcache_flush_all.o)
 .comment       0x000013b9       0x2d ../DE2_115_SD_Card_Audio_Player_bsp/\libhal_bsp.a(alt_dev_llist_insert.o)
 .comment       0x000013e6       0x2d ../DE2_115_SD_Card_Audio_Player_bsp/\libhal_bsp.a(alt_do_ctors.o)
 .comment       0x00001413       0x2d ../DE2_115_SD_Card_Audio_Player_bsp/\libhal_bsp.a(alt_do_dtors.o)
 .comment       0x00001440       0x2d ../DE2_115_SD_Card_Audio_Player_bsp/\libhal_bsp.a(alt_find_dev.o)
 .comment       0x0000146d       0x2d ../DE2_115_SD_Card_Audio_Player_bsp/\libhal_bsp.a(alt_find_file.o)
 .comment       0x0000149a       0x2d ../DE2_115_SD_Card_Audio_Player_bsp/\libhal_bsp.a(alt_flash_dev.o)
 .comment       0x000014c7       0x2d ../DE2_115_SD_Card_Audio_Player_bsp/\libhal_bsp.a(alt_get_fd.o)
 .comment       0x000014f4       0x2d ../DE2_115_SD_Card_Audio_Player_bsp/\libhal_bsp.a(alt_icache_flush_all.o)
 .comment       0x00001521       0x2d ../DE2_115_SD_Card_Audio_Player_bsp/\libhal_bsp.a(alt_iic.o)
 .comment       0x0000154e       0x2d ../DE2_115_SD_Card_Audio_Player_bsp/\libhal_bsp.a(alt_iic_isr_register.o)
 .comment       0x0000157b       0x2d ../DE2_115_SD_Card_Audio_Player_bsp/\libhal_bsp.a(alt_io_redirect.o)
 .comment       0x000015a8       0x2d ../DE2_115_SD_Card_Audio_Player_bsp/\libhal_bsp.a(alt_irq_handler.o)
 .comment       0x000015d5       0x2d ../DE2_115_SD_Card_Audio_Player_bsp/\libhal_bsp.a(altera_nios2_qsys_irq.o)
 .comment       0x00001602       0x2d ../DE2_115_SD_Card_Audio_Player_bsp/\libhal_bsp.a(altera_avalon_cfi_flash_amd.o)
 .comment       0x0000162f       0x2d ../DE2_115_SD_Card_Audio_Player_bsp/\libhal_bsp.a(altera_avalon_cfi_flash_intel.o)
 .comment       0x0000165c       0x2d ../DE2_115_SD_Card_Audio_Player_bsp/\libhal_bsp.a(alt_icache_flush.o)
 .comment       0x00001689       0x24 c:/altera/10.0/nios2eds/bin/gnu/h-i686-mingw32/bin/../lib/gcc/nios2-elf/4.1.2/../../../../nios2-elf/lib\libc.a(lib_a-atexit.o)
 .comment       0x000016ad       0x24 c:/altera/10.0/nios2eds/bin/gnu/h-i686-mingw32/bin/../lib/gcc/nios2-elf/4.1.2/../../../../nios2-elf/lib\libc.a(lib_a-exit.o)
 .comment       0x000016d1       0x24 c:/altera/10.0/nios2eds/bin/gnu/h-i686-mingw32/bin/../lib/gcc/nios2-elf/4.1.2/../../../../nios2-elf/lib\libc.a(lib_a-memcmp.o)
 .comment       0x000016f5       0x24 c:/altera/10.0/nios2eds/bin/gnu/h-i686-mingw32/bin/../lib/gcc/nios2-elf/4.1.2/../../../../nios2-elf/lib\libc.a(lib_a-__atexit.o)
 .comment       0x00001719       0x24 c:/altera/10.0/nios2eds/bin/gnu/h-i686-mingw32/bin/../lib/gcc/nios2-elf/4.1.2/../../../../nios2-elf/lib\libc.a(lib_a-__call_atexit.o)
 .comment       0x0000173d       0x2d ../DE2_115_SD_Card_Audio_Player_bsp/\libhal_bsp.a(alt_exit.o)

.debug
 *(.debug)

.line
 *(.line)

.debug_srcinfo
 *(.debug_srcinfo)

.debug_sfnames
 *(.debug_sfnames)

.debug_aranges  0x00000000     0x12b8
 *(.debug_aranges)
 .debug_aranges
                0x00000000       0x28 ../DE2_115_SD_Card_Audio_Player_bsp//obj/HAL/src/crt0.o
 .debug_aranges
                0x00000028       0x20 obj/default/main.o
 .debug_aranges
                0x00000048       0x20 obj/default/terasic_fat/FatFileSystem.o
 .debug_aranges
                0x00000068       0x20 obj/default/terasic_fat/FatInternal.o
 .debug_aranges
                0x00000088       0x20 obj/default/terasic_lib/AUDIO.o
 .debug_aranges
                0x000000a8       0x20 obj/default/terasic_lib/I2C.o
 .debug_aranges
                0x000000c8       0x20 obj/default/terasic_lib/LCD.o
 .debug_aranges
                0x000000e8       0x20 obj/default/terasic_lib/LED.o
 .debug_aranges
                0x00000108       0x20 obj/default/terasic_lib/SEG7.o
 .debug_aranges
                0x00000128       0x20 obj/default/terasic_lib/WaveLib.o
 .debug_aranges
                0x00000148       0x20 obj/default/terasic_lib/debug.o
 .debug_aranges
                0x00000168       0x20 obj/default/terasic_sdcard/crc16.o
 .debug_aranges
                0x00000188       0x20 obj/default/terasic_sdcard/crc7.o
 .debug_aranges
                0x000001a8       0x20 obj/default/terasic_sdcard/sd_hal.o
 .debug_aranges
                0x000001c8       0x20 obj/default/terasic_sdcard/sd_lib.o
 .debug_aranges
                0x000001e8       0x20 obj/default/terasic_sdcard/sd_protocol.o
 .debug_aranges
                0x00000208       0x20 c:/altera/10.0/nios2eds/bin/gnu/h-i686-mingw32/bin/../lib/gcc/nios2-elf/4.1.2\libgcc.a(_mul_sf.o)
 .debug_aranges
                0x00000228       0x20 c:/altera/10.0/nios2eds/bin/gnu/h-i686-mingw32/bin/../lib/gcc/nios2-elf/4.1.2\libgcc.a(_div_sf.o)
 .debug_aranges
                0x00000248       0x20 c:/altera/10.0/nios2eds/bin/gnu/h-i686-mingw32/bin/../lib/gcc/nios2-elf/4.1.2\libgcc.a(_sf_to_df.o)
 .debug_aranges
                0x00000268       0x20 c:/altera/10.0/nios2eds/bin/gnu/h-i686-mingw32/bin/../lib/gcc/nios2-elf/4.1.2\libgcc.a(_usi_to_sf.o)
 .debug_aranges
                0x00000288       0x20 c:/altera/10.0/nios2eds/bin/gnu/h-i686-mingw32/bin/../lib/gcc/nios2-elf/4.1.2\libgcc.a(_div_df.o)
 .debug_aranges
                0x000002a8       0x20 c:/altera/10.0/nios2eds/bin/gnu/h-i686-mingw32/bin/../lib/gcc/nios2-elf/4.1.2\libgcc.a(_make_df.o)
 .debug_aranges
                0x000002c8       0x20 c:/altera/10.0/nios2eds/bin/gnu/h-i686-mingw32/bin/../lib/gcc/nios2-elf/4.1.2\libgcc.a(_df_to_sf.o)
 .debug_aranges
                0x000002e8       0x20 c:/altera/10.0/nios2eds/bin/gnu/h-i686-mingw32/bin/../lib/gcc/nios2-elf/4.1.2\libgcc.a(lib2-divmod.o)
 .debug_aranges
                0x00000308       0x20 c:/altera/10.0/nios2eds/bin/gnu/h-i686-mingw32/bin/../lib/gcc/nios2-elf/4.1.2\libgcc.a(_muldi3.o)
 .debug_aranges
                0x00000328       0x20 c:/altera/10.0/nios2eds/bin/gnu/h-i686-mingw32/bin/../lib/gcc/nios2-elf/4.1.2\libgcc.a(_clzsi2.o)
 .debug_aranges
                0x00000348       0x20 c:/altera/10.0/nios2eds/bin/gnu/h-i686-mingw32/bin/../lib/gcc/nios2-elf/4.1.2\libgcc.a(_pack_sf.o)
 .debug_aranges
                0x00000368       0x20 c:/altera/10.0/nios2eds/bin/gnu/h-i686-mingw32/bin/../lib/gcc/nios2-elf/4.1.2\libgcc.a(_unpack_sf.o)
 .debug_aranges
                0x00000388       0x20 c:/altera/10.0/nios2eds/bin/gnu/h-i686-mingw32/bin/../lib/gcc/nios2-elf/4.1.2\libgcc.a(_make_sf.o)
 .debug_aranges
                0x000003a8       0x20 c:/altera/10.0/nios2eds/bin/gnu/h-i686-mingw32/bin/../lib/gcc/nios2-elf/4.1.2\libgcc.a(_pack_df.o)
 .debug_aranges
                0x000003c8       0x20 c:/altera/10.0/nios2eds/bin/gnu/h-i686-mingw32/bin/../lib/gcc/nios2-elf/4.1.2\libgcc.a(_unpack_df.o)
 .debug_aranges
                0x000003e8       0x20 c:/altera/10.0/nios2eds/bin/gnu/h-i686-mingw32/bin/../lib/gcc/nios2-elf/4.1.2/../../../../nios2-elf/lib\libc.a(lib_a-fclose.o)
 .debug_aranges
                0x00000408       0x20 c:/altera/10.0/nios2eds/bin/gnu/h-i686-mingw32/bin/../lib/gcc/nios2-elf/4.1.2/../../../../nios2-elf/lib\libc.a(lib_a-fflush.o)
 .debug_aranges
                0x00000428       0x20 c:/altera/10.0/nios2eds/bin/gnu/h-i686-mingw32/bin/../lib/gcc/nios2-elf/4.1.2/../../../../nios2-elf/lib\libc.a(lib_a-findfp.o)
 .debug_aranges
                0x00000448       0x20 c:/altera/10.0/nios2eds/bin/gnu/h-i686-mingw32/bin/../lib/gcc/nios2-elf/4.1.2/../../../../nios2-elf/lib\libc.a(lib_a-fopen.o)
 .debug_aranges
                0x00000468       0x20 c:/altera/10.0/nios2eds/bin/gnu/h-i686-mingw32/bin/../lib/gcc/nios2-elf/4.1.2/../../../../nios2-elf/lib\libc.a(lib_a-freer.o)
 .debug_aranges
                0x00000488       0x20 c:/altera/10.0/nios2eds/bin/gnu/h-i686-mingw32/bin/../lib/gcc/nios2-elf/4.1.2/../../../../nios2-elf/lib\libc.a(lib_a-fseek.o)
 .debug_aranges
                0x000004a8       0x20 c:/altera/10.0/nios2eds/bin/gnu/h-i686-mingw32/bin/../lib/gcc/nios2-elf/4.1.2/../../../../nios2-elf/lib\libc.a(lib_a-fstatr.o)
 .debug_aranges
                0x000004c8       0x20 c:/altera/10.0/nios2eds/bin/gnu/h-i686-mingw32/bin/../lib/gcc/nios2-elf/4.1.2/../../../../nios2-elf/lib\libc.a(lib_a-fwalk.o)
 .debug_aranges
                0x000004e8       0x20 c:/altera/10.0/nios2eds/bin/gnu/h-i686-mingw32/bin/../lib/gcc/nios2-elf/4.1.2/../../../../nios2-elf/lib\libc.a(lib_a-fwrite.o)
 .debug_aranges
                0x00000508       0x20 c:/altera/10.0/nios2eds/bin/gnu/h-i686-mingw32/bin/../lib/gcc/nios2-elf/4.1.2/../../../../nios2-elf/lib\libc.a(lib_a-makebuf.o)
 .debug_aranges
                0x00000528       0x20 c:/altera/10.0/nios2eds/bin/gnu/h-i686-mingw32/bin/../lib/gcc/nios2-elf/4.1.2/../../../../nios2-elf/lib\libc.a(lib_a-malloc.o)
 .debug_aranges
                0x00000548       0x20 c:/altera/10.0/nios2eds/bin/gnu/h-i686-mingw32/bin/../lib/gcc/nios2-elf/4.1.2/../../../../nios2-elf/lib\libc.a(lib_a-mallocr.o)
 .debug_aranges
                0x00000568       0x20 c:/altera/10.0/nios2eds/bin/gnu/h-i686-mingw32/bin/../lib/gcc/nios2-elf/4.1.2/../../../../nios2-elf/lib\libc.a(lib_a-memcpy.o)
 .debug_aranges
                0x00000588       0x20 c:/altera/10.0/nios2eds/bin/gnu/h-i686-mingw32/bin/../lib/gcc/nios2-elf/4.1.2/../../../../nios2-elf/lib\libc.a(lib_a-memset.o)
 .debug_aranges
                0x000005a8       0x20 c:/altera/10.0/nios2eds/bin/gnu/h-i686-mingw32/bin/../lib/gcc/nios2-elf/4.1.2/../../../../nios2-elf/lib\libc.a(lib_a-openr.o)
 .debug_aranges
                0x000005c8       0x20 c:/altera/10.0/nios2eds/bin/gnu/h-i686-mingw32/bin/../lib/gcc/nios2-elf/4.1.2/../../../../nios2-elf/lib\libc.a(lib_a-printf.o)
 .debug_aranges
                0x000005e8       0x20 c:/altera/10.0/nios2eds/bin/gnu/h-i686-mingw32/bin/../lib/gcc/nios2-elf/4.1.2/../../../../nios2-elf/lib\libc.a(lib_a-putchar.o)
 .debug_aranges
                0x00000608       0x20 c:/altera/10.0/nios2eds/bin/gnu/h-i686-mingw32/bin/../lib/gcc/nios2-elf/4.1.2/../../../../nios2-elf/lib\libc.a(lib_a-puts.o)
 .debug_aranges
                0x00000628       0x20 c:/altera/10.0/nios2eds/bin/gnu/h-i686-mingw32/bin/../lib/gcc/nios2-elf/4.1.2/../../../../nios2-elf/lib\libc.a(lib_a-refill.o)
 .debug_aranges
                0x00000648       0x20 c:/altera/10.0/nios2eds/bin/gnu/h-i686-mingw32/bin/../lib/gcc/nios2-elf/4.1.2/../../../../nios2-elf/lib\libc.a(lib_a-sbrkr.o)
 .debug_aranges
                0x00000668       0x20 c:/altera/10.0/nios2eds/bin/gnu/h-i686-mingw32/bin/../lib/gcc/nios2-elf/4.1.2/../../../../nios2-elf/lib\libc.a(lib_a-sprintf.o)
 .debug_aranges
                0x00000688       0x20 c:/altera/10.0/nios2eds/bin/gnu/h-i686-mingw32/bin/../lib/gcc/nios2-elf/4.1.2/../../../../nios2-elf/lib\libc.a(lib_a-stdio.o)
 .debug_aranges
                0x000006a8       0x20 c:/altera/10.0/nios2eds/bin/gnu/h-i686-mingw32/bin/../lib/gcc/nios2-elf/4.1.2/../../../../nios2-elf/lib\libc.a(lib_a-strcasecmp.o)
 .debug_aranges
                0x000006c8       0x20 c:/altera/10.0/nios2eds/bin/gnu/h-i686-mingw32/bin/../lib/gcc/nios2-elf/4.1.2/../../../../nios2-elf/lib\libc.a(lib_a-strcmp.o)
 .debug_aranges
                0x000006e8       0x20 c:/altera/10.0/nios2eds/bin/gnu/h-i686-mingw32/bin/../lib/gcc/nios2-elf/4.1.2/../../../../nios2-elf/lib\libc.a(lib_a-strcpy.o)
 .debug_aranges
                0x00000708       0x20 c:/altera/10.0/nios2eds/bin/gnu/h-i686-mingw32/bin/../lib/gcc/nios2-elf/4.1.2/../../../../nios2-elf/lib\libc.a(lib_a-strlen.o)
 .debug_aranges
                0x00000728       0x20 c:/altera/10.0/nios2eds/bin/gnu/h-i686-mingw32/bin/../lib/gcc/nios2-elf/4.1.2/../../../../nios2-elf/lib\libc.a(lib_a-vfprintf.o)
 .debug_aranges
                0x00000748       0x20 c:/altera/10.0/nios2eds/bin/gnu/h-i686-mingw32/bin/../lib/gcc/nios2-elf/4.1.2/../../../../nios2-elf/lib\libc.a(lib_a-vsnprintf.o)
 .debug_aranges
                0x00000768       0x20 c:/altera/10.0/nios2eds/bin/gnu/h-i686-mingw32/bin/../lib/gcc/nios2-elf/4.1.2/../../../../nios2-elf/lib\libc.a(lib_a-writer.o)
 .debug_aranges
                0x00000788       0x20 c:/altera/10.0/nios2eds/bin/gnu/h-i686-mingw32/bin/../lib/gcc/nios2-elf/4.1.2/../../../../nios2-elf/lib\libc.a(lib_a-wsetup.o)
 .debug_aranges
                0x000007a8       0x20 c:/altera/10.0/nios2eds/bin/gnu/h-i686-mingw32/bin/../lib/gcc/nios2-elf/4.1.2/../../../../nios2-elf/lib\libc.a(lib_a-closer.o)
 .debug_aranges
                0x000007c8       0x20 c:/altera/10.0/nios2eds/bin/gnu/h-i686-mingw32/bin/../lib/gcc/nios2-elf/4.1.2/../../../../nios2-elf/lib\libc.a(lib_a-dtoa.o)
 .debug_aranges
                0x000007e8       0x20 c:/altera/10.0/nios2eds/bin/gnu/h-i686-mingw32/bin/../lib/gcc/nios2-elf/4.1.2/../../../../nios2-elf/lib\libc.a(lib_a-flags.o)
 .debug_aranges
                0x00000808       0x20 c:/altera/10.0/nios2eds/bin/gnu/h-i686-mingw32/bin/../lib/gcc/nios2-elf/4.1.2/../../../../nios2-elf/lib\libc.a(lib_a-fvwrite.o)
 .debug_aranges
                0x00000828       0x20 c:/altera/10.0/nios2eds/bin/gnu/h-i686-mingw32/bin/../lib/gcc/nios2-elf/4.1.2/../../../../nios2-elf/lib\libc.a(lib_a-isattyr.o)
 .debug_aranges
                0x00000848       0x20 c:/altera/10.0/nios2eds/bin/gnu/h-i686-mingw32/bin/../lib/gcc/nios2-elf/4.1.2/../../../../nios2-elf/lib\libc.a(lib_a-locale.o)
 .debug_aranges
                0x00000868       0x20 c:/altera/10.0/nios2eds/bin/gnu/h-i686-mingw32/bin/../lib/gcc/nios2-elf/4.1.2/../../../../nios2-elf/lib\libc.a(lib_a-lseekr.o)
 .debug_aranges
                0x00000888       0x20 c:/altera/10.0/nios2eds/bin/gnu/h-i686-mingw32/bin/../lib/gcc/nios2-elf/4.1.2/../../../../nios2-elf/lib\libc.a(lib_a-memchr.o)
 .debug_aranges
                0x000008a8       0x20 c:/altera/10.0/nios2eds/bin/gnu/h-i686-mingw32/bin/../lib/gcc/nios2-elf/4.1.2/../../../../nios2-elf/lib\libc.a(lib_a-memmove.o)
 .debug_aranges
                0x000008c8       0x20 c:/altera/10.0/nios2eds/bin/gnu/h-i686-mingw32/bin/../lib/gcc/nios2-elf/4.1.2/../../../../nios2-elf/lib\libc.a(lib_a-mprec.o)
 .debug_aranges
                0x000008e8       0x20 c:/altera/10.0/nios2eds/bin/gnu/h-i686-mingw32/bin/../lib/gcc/nios2-elf/4.1.2/../../../../nios2-elf/lib\libc.a(lib_a-putc.o)
 .debug_aranges
                0x00000908       0x20 c:/altera/10.0/nios2eds/bin/gnu/h-i686-mingw32/bin/../lib/gcc/nios2-elf/4.1.2/../../../../nios2-elf/lib\libc.a(lib_a-readr.o)
 .debug_aranges
                0x00000928       0x20 c:/altera/10.0/nios2eds/bin/gnu/h-i686-mingw32/bin/../lib/gcc/nios2-elf/4.1.2/../../../../nios2-elf/lib\libc.a(lib_a-reallocr.o)
 .debug_aranges
                0x00000948       0x20 c:/altera/10.0/nios2eds/bin/gnu/h-i686-mingw32/bin/../lib/gcc/nios2-elf/4.1.2/../../../../nios2-elf/lib\libc.a(lib_a-s_isinfd.o)
 .debug_aranges
                0x00000968       0x20 c:/altera/10.0/nios2eds/bin/gnu/h-i686-mingw32/bin/../lib/gcc/nios2-elf/4.1.2/../../../../nios2-elf/lib\libc.a(lib_a-s_isnand.o)
 .debug_aranges
                0x00000988       0x20 c:/altera/10.0/nios2eds/bin/gnu/h-i686-mingw32/bin/../lib/gcc/nios2-elf/4.1.2/../../../../nios2-elf/lib\libc.a(lib_a-wbuf.o)
 .debug_aranges
                0x000009a8       0x20 c:/altera/10.0/nios2eds/bin/gnu/h-i686-mingw32/bin/../lib/gcc/nios2-elf/4.1.2/../../../../nios2-elf/lib\libc.a(lib_a-callocr.o)
 .debug_aranges
                0x000009c8       0x20 c:/altera/10.0/nios2eds/bin/gnu/h-i686-mingw32/bin/../lib/gcc/nios2-elf/4.1.2\libgcc.a(_addsub_df.o)
 .debug_aranges
                0x000009e8       0x20 c:/altera/10.0/nios2eds/bin/gnu/h-i686-mingw32/bin/../lib/gcc/nios2-elf/4.1.2\libgcc.a(_mul_df.o)
 .debug_aranges
                0x00000a08       0x20 c:/altera/10.0/nios2eds/bin/gnu/h-i686-mingw32/bin/../lib/gcc/nios2-elf/4.1.2\libgcc.a(_eq_df.o)
 .debug_aranges
                0x00000a28       0x20 c:/altera/10.0/nios2eds/bin/gnu/h-i686-mingw32/bin/../lib/gcc/nios2-elf/4.1.2\libgcc.a(_ne_df.o)
 .debug_aranges
                0x00000a48       0x20 c:/altera/10.0/nios2eds/bin/gnu/h-i686-mingw32/bin/../lib/gcc/nios2-elf/4.1.2\libgcc.a(_gt_df.o)
 .debug_aranges
                0x00000a68       0x20 c:/altera/10.0/nios2eds/bin/gnu/h-i686-mingw32/bin/../lib/gcc/nios2-elf/4.1.2\libgcc.a(_ge_df.o)
 .debug_aranges
                0x00000a88       0x20 c:/altera/10.0/nios2eds/bin/gnu/h-i686-mingw32/bin/../lib/gcc/nios2-elf/4.1.2\libgcc.a(_lt_df.o)
 .debug_aranges
                0x00000aa8       0x20 c:/altera/10.0/nios2eds/bin/gnu/h-i686-mingw32/bin/../lib/gcc/nios2-elf/4.1.2\libgcc.a(_si_to_df.o)
 .debug_aranges
                0x00000ac8       0x20 c:/altera/10.0/nios2eds/bin/gnu/h-i686-mingw32/bin/../lib/gcc/nios2-elf/4.1.2\libgcc.a(_df_to_si.o)
 .debug_aranges
                0x00000ae8       0x20 c:/altera/10.0/nios2eds/bin/gnu/h-i686-mingw32/bin/../lib/gcc/nios2-elf/4.1.2\libgcc.a(_usi_to_df.o)
 .debug_aranges
                0x00000b08       0x20 c:/altera/10.0/nios2eds/bin/gnu/h-i686-mingw32/bin/../lib/gcc/nios2-elf/4.1.2\libgcc.a(_fpcmp_parts_df.o)
 .debug_aranges
                0x00000b28       0x20 ../DE2_115_SD_Card_Audio_Player_bsp/\libhal_bsp.a(alt_close.o)
 .debug_aranges
                0x00000b48       0x20 ../DE2_115_SD_Card_Audio_Player_bsp/\libhal_bsp.a(alt_dev.o)
 .debug_aranges
                0x00000b68       0x20 ../DE2_115_SD_Card_Audio_Player_bsp/\libhal_bsp.a(alt_fstat.o)
 .debug_aranges
                0x00000b88       0x20 ../DE2_115_SD_Card_Audio_Player_bsp/\libhal_bsp.a(alt_irq_register.o)
 .debug_aranges
                0x00000ba8       0x20 ../DE2_115_SD_Card_Audio_Player_bsp/\libhal_bsp.a(alt_isatty.o)
 .debug_aranges
                0x00000bc8       0x20 ../DE2_115_SD_Card_Audio_Player_bsp/\libhal_bsp.a(alt_load.o)
 .debug_aranges
                0x00000be8       0x20 ../DE2_115_SD_Card_Audio_Player_bsp/\libhal_bsp.a(alt_lseek.o)
 .debug_aranges
                0x00000c08       0x20 ../DE2_115_SD_Card_Audio_Player_bsp/\libhal_bsp.a(alt_main.o)
 .debug_aranges
                0x00000c28       0x20 ../DE2_115_SD_Card_Audio_Player_bsp/\libhal_bsp.a(alt_malloc_lock.o)
 .debug_aranges
                0x00000c48       0x20 ../DE2_115_SD_Card_Audio_Player_bsp/\libhal_bsp.a(alt_open.o)
 .debug_aranges
                0x00000c68       0x20 ../DE2_115_SD_Card_Audio_Player_bsp/\libhal_bsp.a(alt_read.o)
 .debug_aranges
                0x00000c88       0x20 ../DE2_115_SD_Card_Audio_Player_bsp/\libhal_bsp.a(alt_release_fd.o)
 .debug_aranges
                0x00000ca8       0x20 ../DE2_115_SD_Card_Audio_Player_bsp/\libhal_bsp.a(alt_sbrk.o)
 .debug_aranges
                0x00000cc8       0x20 ../DE2_115_SD_Card_Audio_Player_bsp/\libhal_bsp.a(alt_tick.o)
 .debug_aranges
                0x00000ce8       0x20 ../DE2_115_SD_Card_Audio_Player_bsp/\libhal_bsp.a(alt_usleep.o)
 .debug_aranges
                0x00000d08       0x20 ../DE2_115_SD_Card_Audio_Player_bsp/\libhal_bsp.a(alt_write.o)
 .debug_aranges
                0x00000d28       0x20 ../DE2_115_SD_Card_Audio_Player_bsp/\libhal_bsp.a(alt_sys_init.o)
 .debug_aranges
                0x00000d48       0x20 ../DE2_115_SD_Card_Audio_Player_bsp/\libhal_bsp.a(altera_avalon_cfi_flash.o)
 .debug_aranges
                0x00000d68       0x20 ../DE2_115_SD_Card_Audio_Player_bsp/\libhal_bsp.a(altera_avalon_cfi_flash_table.o)
 .debug_aranges
                0x00000d88       0x20 ../DE2_115_SD_Card_Audio_Player_bsp/\libhal_bsp.a(altera_avalon_jtag_uart_fd.o)
 .debug_aranges
                0x00000da8       0x20 ../DE2_115_SD_Card_Audio_Player_bsp/\libhal_bsp.a(altera_avalon_jtag_uart_init.o)
 .debug_aranges
                0x00000dc8       0x20 ../DE2_115_SD_Card_Audio_Player_bsp/\libhal_bsp.a(altera_avalon_jtag_uart_ioctl.o)
 .debug_aranges
                0x00000de8       0x20 ../DE2_115_SD_Card_Audio_Player_bsp/\libhal_bsp.a(altera_avalon_jtag_uart_read.o)
 .debug_aranges
                0x00000e08       0x20 ../DE2_115_SD_Card_Audio_Player_bsp/\libhal_bsp.a(altera_avalon_jtag_uart_write.o)
 .debug_aranges
                0x00000e28       0x20 ../DE2_115_SD_Card_Audio_Player_bsp/\libhal_bsp.a(altera_avalon_lcd_16207.o)
 .debug_aranges
                0x00000e48       0x20 ../DE2_115_SD_Card_Audio_Player_bsp/\libhal_bsp.a(altera_avalon_lcd_16207_fd.o)
 .debug_aranges
                0x00000e68       0x20 ../DE2_115_SD_Card_Audio_Player_bsp/\libhal_bsp.a(altera_avalon_timer_sc.o)
 .debug_aranges
                0x00000e88       0x20 ../DE2_115_SD_Card_Audio_Player_bsp/\libhal_bsp.a(altera_avalon_uart_fd.o)
 .debug_aranges
                0x00000ea8       0x20 ../DE2_115_SD_Card_Audio_Player_bsp/\libhal_bsp.a(altera_avalon_uart_init.o)
 .debug_aranges
                0x00000ec8       0x20 ../DE2_115_SD_Card_Audio_Player_bsp/\libhal_bsp.a(altera_avalon_uart_read.o)
 .debug_aranges
                0x00000ee8       0x20 ../DE2_115_SD_Card_Audio_Player_bsp/\libhal_bsp.a(altera_avalon_uart_write.o)
 .debug_aranges
                0x00000f08       0x20 ../DE2_115_SD_Card_Audio_Player_bsp/\libhal_bsp.a(alt_alarm_start.o)
 .debug_aranges
                0x00000f28       0x20 ../DE2_115_SD_Card_Audio_Player_bsp/\libhal_bsp.a(alt_busy_sleep.o)
 .debug_aranges
                0x00000f48       0x20 ../DE2_115_SD_Card_Audio_Player_bsp/\libhal_bsp.a(alt_dcache_flush.o)
 .debug_aranges
                0x00000f68       0x20 ../DE2_115_SD_Card_Audio_Player_bsp/\libhal_bsp.a(alt_dcache_flush_all.o)
 .debug_aranges
                0x00000f88       0x20 ../DE2_115_SD_Card_Audio_Player_bsp/\libhal_bsp.a(alt_dev_llist_insert.o)
 .debug_aranges
                0x00000fa8       0x20 ../DE2_115_SD_Card_Audio_Player_bsp/\libhal_bsp.a(alt_do_ctors.o)
 .debug_aranges
                0x00000fc8       0x20 ../DE2_115_SD_Card_Audio_Player_bsp/\libhal_bsp.a(alt_do_dtors.o)
 .debug_aranges
                0x00000fe8       0x20 ../DE2_115_SD_Card_Audio_Player_bsp/\libhal_bsp.a(alt_find_dev.o)
 .debug_aranges
                0x00001008       0x20 ../DE2_115_SD_Card_Audio_Player_bsp/\libhal_bsp.a(alt_find_file.o)
 .debug_aranges
                0x00001028       0x20 ../DE2_115_SD_Card_Audio_Player_bsp/\libhal_bsp.a(alt_flash_dev.o)
 .debug_aranges
                0x00001048       0x20 ../DE2_115_SD_Card_Audio_Player_bsp/\libhal_bsp.a(alt_get_fd.o)
 .debug_aranges
                0x00001068       0x20 ../DE2_115_SD_Card_Audio_Player_bsp/\libhal_bsp.a(alt_icache_flush_all.o)
 .debug_aranges
                0x00001088       0x20 ../DE2_115_SD_Card_Audio_Player_bsp/\libhal_bsp.a(alt_iic.o)
 .debug_aranges
                0x000010a8       0x20 ../DE2_115_SD_Card_Audio_Player_bsp/\libhal_bsp.a(alt_iic_isr_register.o)
 .debug_aranges
                0x000010c8       0x20 ../DE2_115_SD_Card_Audio_Player_bsp/\libhal_bsp.a(alt_io_redirect.o)
 .debug_aranges
                0x000010e8       0x30 ../DE2_115_SD_Card_Audio_Player_bsp/\libhal_bsp.a(alt_irq_entry.o)
 .debug_aranges
                0x00001118       0x28 ../DE2_115_SD_Card_Audio_Player_bsp/\libhal_bsp.a(alt_irq_handler.o)
 .debug_aranges
                0x00001140       0x20 ../DE2_115_SD_Card_Audio_Player_bsp/\libhal_bsp.a(altera_nios2_qsys_irq.o)
 .debug_aranges
                0x00001160       0x20 ../DE2_115_SD_Card_Audio_Player_bsp/\libhal_bsp.a(altera_avalon_cfi_flash_amd.o)
 .debug_aranges
                0x00001180       0x20 ../DE2_115_SD_Card_Audio_Player_bsp/\libhal_bsp.a(altera_avalon_cfi_flash_intel.o)
 .debug_aranges
                0x000011a0       0x38 ../DE2_115_SD_Card_Audio_Player_bsp/\libhal_bsp.a(alt_exception_entry.o)
 .debug_aranges
                0x000011d8       0x20 ../DE2_115_SD_Card_Audio_Player_bsp/\libhal_bsp.a(alt_icache_flush.o)
 .debug_aranges
                0x000011f8       0x20 c:/altera/10.0/nios2eds/bin/gnu/h-i686-mingw32/bin/../lib/gcc/nios2-elf/4.1.2/../../../../nios2-elf/lib\libc.a(lib_a-atexit.o)
 .debug_aranges
                0x00001218       0x20 c:/altera/10.0/nios2eds/bin/gnu/h-i686-mingw32/bin/../lib/gcc/nios2-elf/4.1.2/../../../../nios2-elf/lib\libc.a(lib_a-exit.o)
 .debug_aranges
                0x00001238       0x20 c:/altera/10.0/nios2eds/bin/gnu/h-i686-mingw32/bin/../lib/gcc/nios2-elf/4.1.2/../../../../nios2-elf/lib\libc.a(lib_a-memcmp.o)
 .debug_aranges
                0x00001258       0x20 c:/altera/10.0/nios2eds/bin/gnu/h-i686-mingw32/bin/../lib/gcc/nios2-elf/4.1.2/../../../../nios2-elf/lib\libc.a(lib_a-__atexit.o)
 .debug_aranges
                0x00001278       0x20 c:/altera/10.0/nios2eds/bin/gnu/h-i686-mingw32/bin/../lib/gcc/nios2-elf/4.1.2/../../../../nios2-elf/lib\libc.a(lib_a-__call_atexit.o)
 .debug_aranges
                0x00001298       0x20 ../DE2_115_SD_Card_Audio_Player_bsp/\libhal_bsp.a(alt_exit.o)

.debug_pubnames
                0x00000000     0x2785
 *(.debug_pubnames)
 .debug_pubnames
                0x00000000      0x169 obj/default/main.o
 .debug_pubnames
                0x00000169      0x12c obj/default/terasic_fat/FatFileSystem.o
 .debug_pubnames
                0x00000295      0x17e obj/default/terasic_fat/FatInternal.o
 .debug_pubnames
                0x00000413      0x20b obj/default/terasic_lib/AUDIO.o
 .debug_pubnames
                0x0000061e       0x78 obj/default/terasic_lib/I2C.o
 .debug_pubnames
                0x00000696       0x4b obj/default/terasic_lib/LCD.o
 .debug_pubnames
                0x000006e1       0x52 obj/default/terasic_lib/LED.o
 .debug_pubnames
                0x00000733       0x5d obj/default/terasic_lib/SEG7.o
 .debug_pubnames
                0x00000790       0xb4 obj/default/terasic_lib/WaveLib.o
 .debug_pubnames
                0x00000844       0x5e obj/default/terasic_lib/debug.o
 .debug_pubnames
                0x000008a2       0x1c obj/default/terasic_sdcard/crc16.o
 .debug_pubnames
                0x000008be       0x29 obj/default/terasic_sdcard/crc7.o
 .debug_pubnames
                0x000008e7       0x9e obj/default/terasic_sdcard/sd_hal.o
 .debug_pubnames
                0x00000985       0x50 obj/default/terasic_sdcard/sd_lib.o
 .debug_pubnames
                0x000009d5      0x116 obj/default/terasic_sdcard/sd_protocol.o
 .debug_pubnames
                0x00000aeb       0x1f c:/altera/10.0/nios2eds/bin/gnu/h-i686-mingw32/bin/../lib/gcc/nios2-elf/4.1.2\libgcc.a(_mul_sf.o)
 .debug_pubnames
                0x00000b0a       0x1f c:/altera/10.0/nios2eds/bin/gnu/h-i686-mingw32/bin/../lib/gcc/nios2-elf/4.1.2\libgcc.a(_div_sf.o)
 .debug_pubnames
                0x00000b29       0x24 c:/altera/10.0/nios2eds/bin/gnu/h-i686-mingw32/bin/../lib/gcc/nios2-elf/4.1.2\libgcc.a(_sf_to_df.o)
 .debug_pubnames
                0x00000b4d       0x22 c:/altera/10.0/nios2eds/bin/gnu/h-i686-mingw32/bin/../lib/gcc/nios2-elf/4.1.2\libgcc.a(_thenan_sf.o)
 .debug_pubnames
                0x00000b6f       0x24 c:/altera/10.0/nios2eds/bin/gnu/h-i686-mingw32/bin/../lib/gcc/nios2-elf/4.1.2\libgcc.a(_usi_to_sf.o)
 .debug_pubnames
                0x00000b93       0x1f c:/altera/10.0/nios2eds/bin/gnu/h-i686-mingw32/bin/../lib/gcc/nios2-elf/4.1.2\libgcc.a(_div_df.o)
 .debug_pubnames
                0x00000bb2       0x20 c:/altera/10.0/nios2eds/bin/gnu/h-i686-mingw32/bin/../lib/gcc/nios2-elf/4.1.2\libgcc.a(_make_df.o)
 .debug_pubnames
                0x00000bd2       0x23 c:/altera/10.0/nios2eds/bin/gnu/h-i686-mingw32/bin/../lib/gcc/nios2-elf/4.1.2\libgcc.a(_df_to_sf.o)
 .debug_pubnames
                0x00000bf5       0x22 c:/altera/10.0/nios2eds/bin/gnu/h-i686-mingw32/bin/../lib/gcc/nios2-elf/4.1.2\libgcc.a(_thenan_df.o)
 .debug_pubnames
                0x00000c17       0x48 c:/altera/10.0/nios2eds/bin/gnu/h-i686-mingw32/bin/../lib/gcc/nios2-elf/4.1.2\libgcc.a(lib2-divmod.o)
 .debug_pubnames
                0x00000c5f       0x1f c:/altera/10.0/nios2eds/bin/gnu/h-i686-mingw32/bin/../lib/gcc/nios2-elf/4.1.2\libgcc.a(_muldi3.o)
 .debug_pubnames
                0x00000c7e       0x1f c:/altera/10.0/nios2eds/bin/gnu/h-i686-mingw32/bin/../lib/gcc/nios2-elf/4.1.2\libgcc.a(_clzsi2.o)
 .debug_pubnames
                0x00000c9d       0x1f c:/altera/10.0/nios2eds/bin/gnu/h-i686-mingw32/bin/../lib/gcc/nios2-elf/4.1.2\libgcc.a(_pack_sf.o)
 .debug_pubnames
                0x00000cbc       0x21 c:/altera/10.0/nios2eds/bin/gnu/h-i686-mingw32/bin/../lib/gcc/nios2-elf/4.1.2\libgcc.a(_unpack_sf.o)
 .debug_pubnames
                0x00000cdd       0x20 c:/altera/10.0/nios2eds/bin/gnu/h-i686-mingw32/bin/../lib/gcc/nios2-elf/4.1.2\libgcc.a(_make_sf.o)
 .debug_pubnames
                0x00000cfd       0x1f c:/altera/10.0/nios2eds/bin/gnu/h-i686-mingw32/bin/../lib/gcc/nios2-elf/4.1.2\libgcc.a(_pack_df.o)
 .debug_pubnames
                0x00000d1c       0x21 c:/altera/10.0/nios2eds/bin/gnu/h-i686-mingw32/bin/../lib/gcc/nios2-elf/4.1.2\libgcc.a(_unpack_df.o)
 .debug_pubnames
                0x00000d3d       0x20 c:/altera/10.0/nios2eds/bin/gnu/h-i686-mingw32/bin/../lib/gcc/nios2-elf/4.1.2\libgcc.a(_clz.o)
 .debug_pubnames
                0x00000d5d       0x2b c:/altera/10.0/nios2eds/bin/gnu/h-i686-mingw32/bin/../lib/gcc/nios2-elf/4.1.2/../../../../nios2-elf/lib\libc.a(lib_a-fclose.o)
 .debug_pubnames
                0x00000d88       0x2b c:/altera/10.0/nios2eds/bin/gnu/h-i686-mingw32/bin/../lib/gcc/nios2-elf/4.1.2/../../../../nios2-elf/lib\libc.a(lib_a-fflush.o)
 .debug_pubnames
                0x00000db3       0xdb c:/altera/10.0/nios2eds/bin/gnu/h-i686-mingw32/bin/../lib/gcc/nios2-elf/4.1.2/../../../../nios2-elf/lib\libc.a(lib_a-findfp.o)
 .debug_pubnames
                0x00000e8e       0x29 c:/altera/10.0/nios2eds/bin/gnu/h-i686-mingw32/bin/../lib/gcc/nios2-elf/4.1.2/../../../../nios2-elf/lib\libc.a(lib_a-fopen.o)
 .debug_pubnames
                0x00000eb7       0x31 c:/altera/10.0/nios2eds/bin/gnu/h-i686-mingw32/bin/../lib/gcc/nios2-elf/4.1.2/../../../../nios2-elf/lib\libc.a(lib_a-freer.o)
 .debug_pubnames
                0x00000ee8       0x29 c:/altera/10.0/nios2eds/bin/gnu/h-i686-mingw32/bin/../lib/gcc/nios2-elf/4.1.2/../../../../nios2-elf/lib\libc.a(lib_a-fseek.o)
 .debug_pubnames
                0x00000f11       0x1f c:/altera/10.0/nios2eds/bin/gnu/h-i686-mingw32/bin/../lib/gcc/nios2-elf/4.1.2/../../../../nios2-elf/lib\libc.a(lib_a-fstatr.o)
 .debug_pubnames
                0x00000f30       0x2e c:/altera/10.0/nios2eds/bin/gnu/h-i686-mingw32/bin/../lib/gcc/nios2-elf/4.1.2/../../../../nios2-elf/lib\libc.a(lib_a-fwalk.o)
 .debug_pubnames
                0x00000f5e       0x2b c:/altera/10.0/nios2eds/bin/gnu/h-i686-mingw32/bin/../lib/gcc/nios2-elf/4.1.2/../../../../nios2-elf/lib\libc.a(lib_a-fwrite.o)
 .debug_pubnames
                0x00000f89       0x39 c:/altera/10.0/nios2eds/bin/gnu/h-i686-mingw32/bin/../lib/gcc/nios2-elf/4.1.2/../../../../nios2-elf/lib\libc.a(lib_a-impure.o)
 .debug_pubnames
                0x00000fc2       0x1c c:/altera/10.0/nios2eds/bin/gnu/h-i686-mingw32/bin/../lib/gcc/nios2-elf/4.1.2/../../../../nios2-elf/lib\libc.a(lib_a-int_errno.o)
 .debug_pubnames
                0x00000fde       0x23 c:/altera/10.0/nios2eds/bin/gnu/h-i686-mingw32/bin/../lib/gcc/nios2-elf/4.1.2/../../../../nios2-elf/lib\libc.a(lib_a-makebuf.o)
 .debug_pubnames
                0x00001001       0x26 c:/altera/10.0/nios2eds/bin/gnu/h-i686-mingw32/bin/../lib/gcc/nios2-elf/4.1.2/../../../../nios2-elf/lib\libc.a(lib_a-malloc.o)
 .debug_pubnames
                0x00001027       0xce c:/altera/10.0/nios2eds/bin/gnu/h-i686-mingw32/bin/../lib/gcc/nios2-elf/4.1.2/../../../../nios2-elf/lib\libc.a(lib_a-mallocr.o)
 .debug_pubnames
                0x000010f5       0x1d c:/altera/10.0/nios2eds/bin/gnu/h-i686-mingw32/bin/../lib/gcc/nios2-elf/4.1.2/../../../../nios2-elf/lib\libc.a(lib_a-memcpy.o)
 .debug_pubnames
                0x00001112       0x1d c:/altera/10.0/nios2eds/bin/gnu/h-i686-mingw32/bin/../lib/gcc/nios2-elf/4.1.2/../../../../nios2-elf/lib\libc.a(lib_a-memset.o)
 .debug_pubnames
                0x0000112f       0x1e c:/altera/10.0/nios2eds/bin/gnu/h-i686-mingw32/bin/../lib/gcc/nios2-elf/4.1.2/../../../../nios2-elf/lib\libc.a(lib_a-openr.o)
 .debug_pubnames
                0x0000114d       0x2b c:/altera/10.0/nios2eds/bin/gnu/h-i686-mingw32/bin/../lib/gcc/nios2-elf/4.1.2/../../../../nios2-elf/lib\libc.a(lib_a-printf.o)
 .debug_pubnames
                0x00001178       0x2d c:/altera/10.0/nios2eds/bin/gnu/h-i686-mingw32/bin/../lib/gcc/nios2-elf/4.1.2/../../../../nios2-elf/lib\libc.a(lib_a-putchar.o)
 .debug_pubnames
                0x000011a5       0x27 c:/altera/10.0/nios2eds/bin/gnu/h-i686-mingw32/bin/../lib/gcc/nios2-elf/4.1.2/../../../../nios2-elf/lib\libc.a(lib_a-puts.o)
 .debug_pubnames
                0x000011cc       0x22 c:/altera/10.0/nios2eds/bin/gnu/h-i686-mingw32/bin/../lib/gcc/nios2-elf/4.1.2/../../../../nios2-elf/lib\libc.a(lib_a-refill.o)
 .debug_pubnames
                0x000011ee       0x1e c:/altera/10.0/nios2eds/bin/gnu/h-i686-mingw32/bin/../lib/gcc/nios2-elf/4.1.2/../../../../nios2-elf/lib\libc.a(lib_a-sbrkr.o)
 .debug_pubnames
                0x0000120c       0x2d c:/altera/10.0/nios2eds/bin/gnu/h-i686-mingw32/bin/../lib/gcc/nios2-elf/4.1.2/../../../../nios2-elf/lib\libc.a(lib_a-sprintf.o)
 .debug_pubnames
                0x00001239       0x44 c:/altera/10.0/nios2eds/bin/gnu/h-i686-mingw32/bin/../lib/gcc/nios2-elf/4.1.2/../../../../nios2-elf/lib\libc.a(lib_a-stdio.o)
 .debug_pubnames
                0x0000127d       0x21 c:/altera/10.0/nios2eds/bin/gnu/h-i686-mingw32/bin/../lib/gcc/nios2-elf/4.1.2/../../../../nios2-elf/lib\libc.a(lib_a-strcasecmp.o)
 .debug_pubnames
                0x0000129e       0x1d c:/altera/10.0/nios2eds/bin/gnu/h-i686-mingw32/bin/../lib/gcc/nios2-elf/4.1.2/../../../../nios2-elf/lib\libc.a(lib_a-strcmp.o)
 .debug_pubnames
                0x000012bb       0x1d c:/altera/10.0/nios2eds/bin/gnu/h-i686-mingw32/bin/../lib/gcc/nios2-elf/4.1.2/../../../../nios2-elf/lib\libc.a(lib_a-strcpy.o)
 .debug_pubnames
                0x000012d8       0x1d c:/altera/10.0/nios2eds/bin/gnu/h-i686-mingw32/bin/../lib/gcc/nios2-elf/4.1.2/../../../../nios2-elf/lib\libc.a(lib_a-strlen.o)
 .debug_pubnames
                0x000012f5       0x45 c:/altera/10.0/nios2eds/bin/gnu/h-i686-mingw32/bin/../lib/gcc/nios2-elf/4.1.2/../../../../nios2-elf/lib\libc.a(lib_a-vfprintf.o)
 .debug_pubnames
                0x0000133a       0x31 c:/altera/10.0/nios2eds/bin/gnu/h-i686-mingw32/bin/../lib/gcc/nios2-elf/4.1.2/../../../../nios2-elf/lib\libc.a(lib_a-vsnprintf.o)
 .debug_pubnames
                0x0000136b       0x1f c:/altera/10.0/nios2eds/bin/gnu/h-i686-mingw32/bin/../lib/gcc/nios2-elf/4.1.2/../../../../nios2-elf/lib\libc.a(lib_a-writer.o)
 .debug_pubnames
                0x0000138a       0x22 c:/altera/10.0/nios2eds/bin/gnu/h-i686-mingw32/bin/../lib/gcc/nios2-elf/4.1.2/../../../../nios2-elf/lib\libc.a(lib_a-wsetup.o)
 .debug_pubnames
                0x000013ac       0x1f c:/altera/10.0/nios2eds/bin/gnu/h-i686-mingw32/bin/../lib/gcc/nios2-elf/4.1.2/../../../../nios2-elf/lib\libc.a(lib_a-closer.o)
 .debug_pubnames
                0x000013cb       0x2e c:/altera/10.0/nios2eds/bin/gnu/h-i686-mingw32/bin/../lib/gcc/nios2-elf/4.1.2/../../../../nios2-elf/lib\libc.a(lib_a-ctype_.o)
 .debug_pubnames
                0x000013f9       0x1e c:/altera/10.0/nios2eds/bin/gnu/h-i686-mingw32/bin/../lib/gcc/nios2-elf/4.1.2/../../../../nios2-elf/lib\libc.a(lib_a-dtoa.o)
 .debug_pubnames
                0x00001417       0x1f c:/altera/10.0/nios2eds/bin/gnu/h-i686-mingw32/bin/../lib/gcc/nios2-elf/4.1.2/../../../../nios2-elf/lib\libc.a(lib_a-flags.o)
 .debug_pubnames
                0x00001436       0x23 c:/altera/10.0/nios2eds/bin/gnu/h-i686-mingw32/bin/../lib/gcc/nios2-elf/4.1.2/../../../../nios2-elf/lib\libc.a(lib_a-fvwrite.o)
 .debug_pubnames
                0x00001459       0x20 c:/altera/10.0/nios2eds/bin/gnu/h-i686-mingw32/bin/../lib/gcc/nios2-elf/4.1.2/../../../../nios2-elf/lib\libc.a(lib_a-isattyr.o)
 .debug_pubnames
                0x00001479       0xc3 c:/altera/10.0/nios2eds/bin/gnu/h-i686-mingw32/bin/../lib/gcc/nios2-elf/4.1.2/../../../../nios2-elf/lib\libc.a(lib_a-locale.o)
 .debug_pubnames
                0x0000153c       0x1f c:/altera/10.0/nios2eds/bin/gnu/h-i686-mingw32/bin/../lib/gcc/nios2-elf/4.1.2/../../../../nios2-elf/lib\libc.a(lib_a-lseekr.o)
 .debug_pubnames
                0x0000155b       0x1d c:/altera/10.0/nios2eds/bin/gnu/h-i686-mingw32/bin/../lib/gcc/nios2-elf/4.1.2/../../../../nios2-elf/lib\libc.a(lib_a-memchr.o)
 .debug_pubnames
                0x00001578       0x1e c:/altera/10.0/nios2eds/bin/gnu/h-i686-mingw32/bin/../lib/gcc/nios2-elf/4.1.2/../../../../nios2-elf/lib\libc.a(lib_a-memmove.o)
 .debug_pubnames
                0x00001596      0x13a c:/altera/10.0/nios2eds/bin/gnu/h-i686-mingw32/bin/../lib/gcc/nios2-elf/4.1.2/../../../../nios2-elf/lib\libc.a(lib_a-mprec.o)
 .debug_pubnames
                0x000016d0       0x27 c:/altera/10.0/nios2eds/bin/gnu/h-i686-mingw32/bin/../lib/gcc/nios2-elf/4.1.2/../../../../nios2-elf/lib\libc.a(lib_a-putc.o)
 .debug_pubnames
                0x000016f7       0x1e c:/altera/10.0/nios2eds/bin/gnu/h-i686-mingw32/bin/../lib/gcc/nios2-elf/4.1.2/../../../../nios2-elf/lib\libc.a(lib_a-readr.o)
 .debug_pubnames
                0x00001715       0x21 c:/altera/10.0/nios2eds/bin/gnu/h-i686-mingw32/bin/../lib/gcc/nios2-elf/4.1.2/../../../../nios2-elf/lib\libc.a(lib_a-reallocr.o)
 .debug_pubnames
                0x00001736       0x1f c:/altera/10.0/nios2eds/bin/gnu/h-i686-mingw32/bin/../lib/gcc/nios2-elf/4.1.2/../../../../nios2-elf/lib\libc.a(lib_a-s_isinfd.o)
 .debug_pubnames
                0x00001755       0x1f c:/altera/10.0/nios2eds/bin/gnu/h-i686-mingw32/bin/../lib/gcc/nios2-elf/4.1.2/../../../../nios2-elf/lib\libc.a(lib_a-s_isnand.o)
 .debug_pubnames
                0x00001774       0x2c c:/altera/10.0/nios2eds/bin/gnu/h-i686-mingw32/bin/../lib/gcc/nios2-elf/4.1.2/../../../../nios2-elf/lib\libc.a(lib_a-wbuf.o)
 .debug_pubnames
                0x000017a0       0x20 c:/altera/10.0/nios2eds/bin/gnu/h-i686-mingw32/bin/../lib/gcc/nios2-elf/4.1.2/../../../../nios2-elf/lib\libc.a(lib_a-callocr.o)
 .debug_pubnames
                0x000017c0       0x2c c:/altera/10.0/nios2eds/bin/gnu/h-i686-mingw32/bin/../lib/gcc/nios2-elf/4.1.2\libgcc.a(_addsub_df.o)
 .debug_pubnames
                0x000017ec       0x1f c:/altera/10.0/nios2eds/bin/gnu/h-i686-mingw32/bin/../lib/gcc/nios2-elf/4.1.2\libgcc.a(_mul_df.o)
 .debug_pubnames
                0x0000180b       0x1e c:/altera/10.0/nios2eds/bin/gnu/h-i686-mingw32/bin/../lib/gcc/nios2-elf/4.1.2\libgcc.a(_eq_df.o)
 .debug_pubnames
                0x00001829       0x1e c:/altera/10.0/nios2eds/bin/gnu/h-i686-mingw32/bin/../lib/gcc/nios2-elf/4.1.2\libgcc.a(_ne_df.o)
 .debug_pubnames
                0x00001847       0x1e c:/altera/10.0/nios2eds/bin/gnu/h-i686-mingw32/bin/../lib/gcc/nios2-elf/4.1.2\libgcc.a(_gt_df.o)
 .debug_pubnames
                0x00001865       0x1e c:/altera/10.0/nios2eds/bin/gnu/h-i686-mingw32/bin/../lib/gcc/nios2-elf/4.1.2\libgcc.a(_ge_df.o)
 .debug_pubnames
                0x00001883       0x1e c:/altera/10.0/nios2eds/bin/gnu/h-i686-mingw32/bin/../lib/gcc/nios2-elf/4.1.2\libgcc.a(_lt_df.o)
 .debug_pubnames
                0x000018a1       0x22 c:/altera/10.0/nios2eds/bin/gnu/h-i686-mingw32/bin/../lib/gcc/nios2-elf/4.1.2\libgcc.a(_si_to_df.o)
 .debug_pubnames
                0x000018c3       0x20 c:/altera/10.0/nios2eds/bin/gnu/h-i686-mingw32/bin/../lib/gcc/nios2-elf/4.1.2\libgcc.a(_df_to_si.o)
 .debug_pubnames
                0x000018e3       0x24 c:/altera/10.0/nios2eds/bin/gnu/h-i686-mingw32/bin/../lib/gcc/nios2-elf/4.1.2\libgcc.a(_usi_to_df.o)
 .debug_pubnames
                0x00001907       0x26 c:/altera/10.0/nios2eds/bin/gnu/h-i686-mingw32/bin/../lib/gcc/nios2-elf/4.1.2\libgcc.a(_fpcmp_parts_df.o)
 .debug_pubnames
                0x0000192d       0x1c ../DE2_115_SD_Card_Audio_Player_bsp/\libhal_bsp.a(alt_close.o)
 .debug_pubnames
                0x00001949       0x63 ../DE2_115_SD_Card_Audio_Player_bsp/\libhal_bsp.a(alt_dev.o)
 .debug_pubnames
                0x000019ac       0x20 ../DE2_115_SD_Card_Audio_Player_bsp/\libhal_bsp.a(alt_errno.o)
 .debug_pubnames
                0x000019cc       0x1c ../DE2_115_SD_Card_Audio_Player_bsp/\libhal_bsp.a(alt_fstat.o)
 .debug_pubnames
                0x000019e8       0x27 ../DE2_115_SD_Card_Audio_Player_bsp/\libhal_bsp.a(alt_irq_register.o)
 .debug_pubnames
                0x00001a0f       0x3b ../DE2_115_SD_Card_Audio_Player_bsp/\libhal_bsp.a(alt_irq_vars.o)
 .debug_pubnames
                0x00001a4a       0x1d ../DE2_115_SD_Card_Audio_Player_bsp/\libhal_bsp.a(alt_isatty.o)
 .debug_pubnames
                0x00001a67       0x1f ../DE2_115_SD_Card_Audio_Player_bsp/\libhal_bsp.a(alt_load.o)
 .debug_pubnames
                0x00001a86       0x1c ../DE2_115_SD_Card_Audio_Player_bsp/\libhal_bsp.a(alt_lseek.o)
 .debug_pubnames
                0x00001aa2       0x46 ../DE2_115_SD_Card_Audio_Player_bsp/\libhal_bsp.a(alt_main.o)
 .debug_pubnames
                0x00001ae8       0x38 ../DE2_115_SD_Card_Audio_Player_bsp/\libhal_bsp.a(alt_malloc_lock.o)
 .debug_pubnames
                0x00001b20       0x1b ../DE2_115_SD_Card_Audio_Player_bsp/\libhal_bsp.a(alt_open.o)
 .debug_pubnames
                0x00001b3b       0x1b ../DE2_115_SD_Card_Audio_Player_bsp/\libhal_bsp.a(alt_read.o)
 .debug_pubnames
                0x00001b56       0x25 ../DE2_115_SD_Card_Audio_Player_bsp/\libhal_bsp.a(alt_release_fd.o)
 .debug_pubnames
                0x00001b7b       0x1b ../DE2_115_SD_Card_Audio_Player_bsp/\libhal_bsp.a(alt_sbrk.o)
 .debug_pubnames
                0x00001b96       0x68 ../DE2_115_SD_Card_Audio_Player_bsp/\libhal_bsp.a(alt_tick.o)
 .debug_pubnames
                0x00001bfe       0x1d ../DE2_115_SD_Card_Audio_Player_bsp/\libhal_bsp.a(alt_usleep.o)
 .debug_pubnames
                0x00001c1b       0x1c ../DE2_115_SD_Card_Audio_Player_bsp/\libhal_bsp.a(alt_write.o)
 .debug_pubnames
                0x00001c37       0x34 ../DE2_115_SD_Card_Audio_Player_bsp/\libhal_bsp.a(alt_sys_init.o)
 .debug_pubnames
                0x00001c6b       0xac ../DE2_115_SD_Card_Audio_Player_bsp/\libhal_bsp.a(altera_avalon_cfi_flash.o)
 .debug_pubnames
                0x00001d17      0x27a ../DE2_115_SD_Card_Audio_Player_bsp/\libhal_bsp.a(altera_avalon_cfi_flash_table.o)
 .debug_pubnames
                0x00001f91       0xa5 ../DE2_115_SD_Card_Audio_Player_bsp/\libhal_bsp.a(altera_avalon_jtag_uart_fd.o)
 .debug_pubnames
                0x00002036       0x55 ../DE2_115_SD_Card_Audio_Player_bsp/\libhal_bsp.a(altera_avalon_jtag_uart_init.o)
 .debug_pubnames
                0x0000208b       0x34 ../DE2_115_SD_Card_Audio_Player_bsp/\libhal_bsp.a(altera_avalon_jtag_uart_ioctl.o)
 .debug_pubnames
                0x000020bf       0x33 ../DE2_115_SD_Card_Audio_Player_bsp/\libhal_bsp.a(altera_avalon_jtag_uart_read.o)
 .debug_pubnames
                0x000020f2       0x34 ../DE2_115_SD_Card_Audio_Player_bsp/\libhal_bsp.a(altera_avalon_jtag_uart_write.o)
 .debug_pubnames
                0x00002126       0x55 ../DE2_115_SD_Card_Audio_Player_bsp/\libhal_bsp.a(altera_avalon_lcd_16207.o)
 .debug_pubnames
                0x0000217b       0x37 ../DE2_115_SD_Card_Audio_Player_bsp/\libhal_bsp.a(altera_avalon_lcd_16207_fd.o)
 .debug_pubnames
                0x000021b2       0x2f ../DE2_115_SD_Card_Audio_Player_bsp/\libhal_bsp.a(altera_avalon_timer_sc.o)
 .debug_pubnames
                0x000021e1       0x71 ../DE2_115_SD_Card_Audio_Player_bsp/\libhal_bsp.a(altera_avalon_uart_fd.o)
 .debug_pubnames
                0x00002252       0x4b ../DE2_115_SD_Card_Audio_Player_bsp/\libhal_bsp.a(altera_avalon_uart_init.o)
 .debug_pubnames
                0x0000229d       0x2e ../DE2_115_SD_Card_Audio_Player_bsp/\libhal_bsp.a(altera_avalon_uart_read.o)
 .debug_pubnames
                0x000022cb       0x2f ../DE2_115_SD_Card_Audio_Player_bsp/\libhal_bsp.a(altera_avalon_uart_write.o)
 .debug_pubnames
                0x000022fa       0x26 ../DE2_115_SD_Card_Audio_Player_bsp/\libhal_bsp.a(alt_alarm_start.o)
 .debug_pubnames
                0x00002320       0x25 ../DE2_115_SD_Card_Audio_Player_bsp/\libhal_bsp.a(alt_busy_sleep.o)
 .debug_pubnames
                0x00002345       0x27 ../DE2_115_SD_Card_Audio_Player_bsp/\libhal_bsp.a(alt_dcache_flush.o)
 .debug_pubnames
                0x0000236c       0x2b ../DE2_115_SD_Card_Audio_Player_bsp/\libhal_bsp.a(alt_dcache_flush_all.o)
 .debug_pubnames
                0x00002397       0x2b ../DE2_115_SD_Card_Audio_Player_bsp/\libhal_bsp.a(alt_dev_llist_insert.o)
 .debug_pubnames
                0x000023c2       0x20 ../DE2_115_SD_Card_Audio_Player_bsp/\libhal_bsp.a(alt_do_ctors.o)
 .debug_pubnames
                0x000023e2       0x20 ../DE2_115_SD_Card_Audio_Player_bsp/\libhal_bsp.a(alt_do_dtors.o)
 .debug_pubnames
                0x00002402       0x23 ../DE2_115_SD_Card_Audio_Player_bsp/\libhal_bsp.a(alt_find_dev.o)
 .debug_pubnames
                0x00002425       0x24 ../DE2_115_SD_Card_Audio_Player_bsp/\libhal_bsp.a(alt_find_file.o)
 .debug_pubnames
                0x00002449       0x58 ../DE2_115_SD_Card_Audio_Player_bsp/\libhal_bsp.a(alt_flash_dev.o)
 .debug_pubnames
                0x000024a1       0x21 ../DE2_115_SD_Card_Audio_Player_bsp/\libhal_bsp.a(alt_get_fd.o)
 .debug_pubnames
                0x000024c2       0x2b ../DE2_115_SD_Card_Audio_Player_bsp/\libhal_bsp.a(alt_icache_flush_all.o)
 .debug_pubnames
                0x000024ed       0x6e ../DE2_115_SD_Card_Audio_Player_bsp/\libhal_bsp.a(alt_iic.o)
 .debug_pubnames
                0x0000255b       0x2b ../DE2_115_SD_Card_Audio_Player_bsp/\libhal_bsp.a(alt_iic_isr_register.o)
 .debug_pubnames
                0x00002586       0x26 ../DE2_115_SD_Card_Audio_Player_bsp/\libhal_bsp.a(alt_io_redirect.o)
 .debug_pubnames
                0x000025ac       0x32 ../DE2_115_SD_Card_Audio_Player_bsp/\libhal_bsp.a(alt_irq_handler.o)
 .debug_pubnames
                0x000025de       0x31 ../DE2_115_SD_Card_Audio_Player_bsp/\libhal_bsp.a(altera_nios2_qsys_irq.o)
 .debug_pubnames
                0x0000260f       0x3e ../DE2_115_SD_Card_Audio_Player_bsp/\libhal_bsp.a(altera_avalon_cfi_flash_amd.o)
 .debug_pubnames
                0x0000264d       0x42 ../DE2_115_SD_Card_Audio_Player_bsp/\libhal_bsp.a(altera_avalon_cfi_flash_intel.o)
 .debug_pubnames
                0x0000268f       0x27 ../DE2_115_SD_Card_Audio_Player_bsp/\libhal_bsp.a(alt_icache_flush.o)
 .debug_pubnames
                0x000026b6       0x2a c:/altera/10.0/nios2eds/bin/gnu/h-i686-mingw32/bin/../lib/gcc/nios2-elf/4.1.2/../../../../nios2-elf/lib\libc.a(lib_a-atexit.o)
 .debug_pubnames
                0x000026e0       0x1b c:/altera/10.0/nios2eds/bin/gnu/h-i686-mingw32/bin/../lib/gcc/nios2-elf/4.1.2/../../../../nios2-elf/lib\libc.a(lib_a-exit.o)
 .debug_pubnames
                0x000026fb       0x1d c:/altera/10.0/nios2eds/bin/gnu/h-i686-mingw32/bin/../lib/gcc/nios2-elf/4.1.2/../../../../nios2-elf/lib\libc.a(lib_a-memcmp.o)
 .debug_pubnames
                0x00002718       0x2a c:/altera/10.0/nios2eds/bin/gnu/h-i686-mingw32/bin/../lib/gcc/nios2-elf/4.1.2/../../../../nios2-elf/lib\libc.a(lib_a-__atexit.o)
 .debug_pubnames
                0x00002742       0x27 c:/altera/10.0/nios2eds/bin/gnu/h-i686-mingw32/bin/../lib/gcc/nios2-elf/4.1.2/../../../../nios2-elf/lib\libc.a(lib_a-__call_atexit.o)
 .debug_pubnames
                0x00002769       0x1c ../DE2_115_SD_Card_Audio_Player_bsp/\libhal_bsp.a(alt_exit.o)

.debug_info     0x00000000    0x3a913
 *(.debug_info .gnu.linkonce.wi.*)
 .debug_info    0x00000000       0xb5 ../DE2_115_SD_Card_Audio_Player_bsp//obj/HAL/src/crt0.o
 .debug_info    0x000000b5     0x10f1 obj/default/main.o
 .debug_info    0x000011a6     0x12e8 obj/default/terasic_fat/FatFileSystem.o
 .debug_info    0x0000248e      0xf91 obj/default/terasic_fat/FatInternal.o
 .debug_info    0x0000341f      0xa1f obj/default/terasic_lib/AUDIO.o
 .debug_info    0x00003e3e      0x558 obj/default/terasic_lib/I2C.o
 .debug_info    0x00004396      0xd84 obj/default/terasic_lib/LCD.o
 .debug_info    0x0000511a      0x2f9 obj/default/terasic_lib/LED.o
 .debug_info    0x00005413      0x3a2 obj/default/terasic_lib/SEG7.o
 .debug_info    0x000057b5      0x74c obj/default/terasic_lib/WaveLib.o
 .debug_info    0x00005f01      0x3f7 obj/default/terasic_lib/debug.o
 .debug_info    0x000062f8      0x2d2 obj/default/terasic_sdcard/crc16.o
 .debug_info    0x000065ca      0x2fb obj/default/terasic_sdcard/crc7.o
 .debug_info    0x000068c5      0x598 obj/default/terasic_sdcard/sd_hal.o
 .debug_info    0x00006e5d      0x4ee obj/default/terasic_sdcard/sd_lib.o
 .debug_info    0x0000734b      0xe54 obj/default/terasic_sdcard/sd_protocol.o
 .debug_info    0x0000819f      0x3d4 c:/altera/10.0/nios2eds/bin/gnu/h-i686-mingw32/bin/../lib/gcc/nios2-elf/4.1.2\libgcc.a(_mul_sf.o)
 .debug_info    0x00008573      0x391 c:/altera/10.0/nios2eds/bin/gnu/h-i686-mingw32/bin/../lib/gcc/nios2-elf/4.1.2\libgcc.a(_div_sf.o)
 .debug_info    0x00008904      0x245 c:/altera/10.0/nios2eds/bin/gnu/h-i686-mingw32/bin/../lib/gcc/nios2-elf/4.1.2\libgcc.a(_sf_to_df.o)
 .debug_info    0x00008b49      0x164 c:/altera/10.0/nios2eds/bin/gnu/h-i686-mingw32/bin/../lib/gcc/nios2-elf/4.1.2\libgcc.a(_thenan_sf.o)
 .debug_info    0x00008cad      0x213 c:/altera/10.0/nios2eds/bin/gnu/h-i686-mingw32/bin/../lib/gcc/nios2-elf/4.1.2\libgcc.a(_usi_to_sf.o)
 .debug_info    0x00008ec0      0x39b c:/altera/10.0/nios2eds/bin/gnu/h-i686-mingw32/bin/../lib/gcc/nios2-elf/4.1.2\libgcc.a(_div_df.o)
 .debug_info    0x0000925b      0x1d6 c:/altera/10.0/nios2eds/bin/gnu/h-i686-mingw32/bin/../lib/gcc/nios2-elf/4.1.2\libgcc.a(_make_df.o)
 .debug_info    0x00009431      0x261 c:/altera/10.0/nios2eds/bin/gnu/h-i686-mingw32/bin/../lib/gcc/nios2-elf/4.1.2\libgcc.a(_df_to_sf.o)
 .debug_info    0x00009692      0x164 c:/altera/10.0/nios2eds/bin/gnu/h-i686-mingw32/bin/../lib/gcc/nios2-elf/4.1.2\libgcc.a(_thenan_df.o)
 .debug_info    0x000097f6      0x21c c:/altera/10.0/nios2eds/bin/gnu/h-i686-mingw32/bin/../lib/gcc/nios2-elf/4.1.2\libgcc.a(lib2-divmod.o)
 .debug_info    0x00009a12      0x215 c:/altera/10.0/nios2eds/bin/gnu/h-i686-mingw32/bin/../lib/gcc/nios2-elf/4.1.2\libgcc.a(_muldi3.o)
 .debug_info    0x00009c27      0x130 c:/altera/10.0/nios2eds/bin/gnu/h-i686-mingw32/bin/../lib/gcc/nios2-elf/4.1.2\libgcc.a(_clzsi2.o)
 .debug_info    0x00009d57      0x2f2 c:/altera/10.0/nios2eds/bin/gnu/h-i686-mingw32/bin/../lib/gcc/nios2-elf/4.1.2\libgcc.a(_pack_sf.o)
 .debug_info    0x0000a049      0x25a c:/altera/10.0/nios2eds/bin/gnu/h-i686-mingw32/bin/../lib/gcc/nios2-elf/4.1.2\libgcc.a(_unpack_sf.o)
 .debug_info    0x0000a2a3      0x1d7 c:/altera/10.0/nios2eds/bin/gnu/h-i686-mingw32/bin/../lib/gcc/nios2-elf/4.1.2\libgcc.a(_make_sf.o)
 .debug_info    0x0000a47a      0x2fc c:/altera/10.0/nios2eds/bin/gnu/h-i686-mingw32/bin/../lib/gcc/nios2-elf/4.1.2\libgcc.a(_pack_df.o)
 .debug_info    0x0000a776      0x268 c:/altera/10.0/nios2eds/bin/gnu/h-i686-mingw32/bin/../lib/gcc/nios2-elf/4.1.2\libgcc.a(_unpack_df.o)
 .debug_info    0x0000a9de       0xc9 c:/altera/10.0/nios2eds/bin/gnu/h-i686-mingw32/bin/../lib/gcc/nios2-elf/4.1.2\libgcc.a(_clz.o)
 .debug_info    0x0000aaa7      0x994 c:/altera/10.0/nios2eds/bin/gnu/h-i686-mingw32/bin/../lib/gcc/nios2-elf/4.1.2/../../../../nios2-elf/lib\libc.a(lib_a-fclose.o)
 .debug_info    0x0000b43b      0x9fe c:/altera/10.0/nios2eds/bin/gnu/h-i686-mingw32/bin/../lib/gcc/nios2-elf/4.1.2/../../../../nios2-elf/lib\libc.a(lib_a-fflush.o)
 .debug_info    0x0000be39      0xb72 c:/altera/10.0/nios2eds/bin/gnu/h-i686-mingw32/bin/../lib/gcc/nios2-elf/4.1.2/../../../../nios2-elf/lib\libc.a(lib_a-findfp.o)
 .debug_info    0x0000c9ab      0x9e0 c:/altera/10.0/nios2eds/bin/gnu/h-i686-mingw32/bin/../lib/gcc/nios2-elf/4.1.2/../../../../nios2-elf/lib\libc.a(lib_a-fopen.o)
 .debug_info    0x0000d38b      0xbc9 c:/altera/10.0/nios2eds/bin/gnu/h-i686-mingw32/bin/../lib/gcc/nios2-elf/4.1.2/../../../../nios2-elf/lib\libc.a(lib_a-freer.o)
 .debug_info    0x0000df54      0xbdc c:/altera/10.0/nios2eds/bin/gnu/h-i686-mingw32/bin/../lib/gcc/nios2-elf/4.1.2/../../../../nios2-elf/lib\libc.a(lib_a-fseek.o)
 .debug_info    0x0000eb30      0xafc c:/altera/10.0/nios2eds/bin/gnu/h-i686-mingw32/bin/../lib/gcc/nios2-elf/4.1.2/../../../../nios2-elf/lib\libc.a(lib_a-fstatr.o)
 .debug_info    0x0000f62c      0xaed c:/altera/10.0/nios2eds/bin/gnu/h-i686-mingw32/bin/../lib/gcc/nios2-elf/4.1.2/../../../../nios2-elf/lib\libc.a(lib_a-fwalk.o)
 .debug_info    0x00010119      0xa83 c:/altera/10.0/nios2eds/bin/gnu/h-i686-mingw32/bin/../lib/gcc/nios2-elf/4.1.2/../../../../nios2-elf/lib\libc.a(lib_a-fwrite.o)
 .debug_info    0x00010b9c      0x93d c:/altera/10.0/nios2eds/bin/gnu/h-i686-mingw32/bin/../lib/gcc/nios2-elf/4.1.2/../../../../nios2-elf/lib\libc.a(lib_a-impure.o)
 .debug_info    0x000114d9       0x8c c:/altera/10.0/nios2eds/bin/gnu/h-i686-mingw32/bin/../lib/gcc/nios2-elf/4.1.2/../../../../nios2-elf/lib\libc.a(lib_a-int_errno.o)
 .debug_info    0x00011565      0xb1a c:/altera/10.0/nios2eds/bin/gnu/h-i686-mingw32/bin/../lib/gcc/nios2-elf/4.1.2/../../../../nios2-elf/lib\libc.a(lib_a-makebuf.o)
 .debug_info    0x0001207f      0x96e c:/altera/10.0/nios2eds/bin/gnu/h-i686-mingw32/bin/../lib/gcc/nios2-elf/4.1.2/../../../../nios2-elf/lib\libc.a(lib_a-malloc.o)
 .debug_info    0x000129ed      0xcd0 c:/altera/10.0/nios2eds/bin/gnu/h-i686-mingw32/bin/../lib/gcc/nios2-elf/4.1.2/../../../../nios2-elf/lib\libc.a(lib_a-mallocr.o)
 .debug_info    0x000136bd      0x106 c:/altera/10.0/nios2eds/bin/gnu/h-i686-mingw32/bin/../lib/gcc/nios2-elf/4.1.2/../../../../nios2-elf/lib\libc.a(lib_a-memcpy.o)
 .debug_info    0x000137c3      0x113 c:/altera/10.0/nios2eds/bin/gnu/h-i686-mingw32/bin/../lib/gcc/nios2-elf/4.1.2/../../../../nios2-elf/lib\libc.a(lib_a-memset.o)
 .debug_info    0x000138d6      0x977 c:/altera/10.0/nios2eds/bin/gnu/h-i686-mingw32/bin/../lib/gcc/nios2-elf/4.1.2/../../../../nios2-elf/lib\libc.a(lib_a-openr.o)
 .debug_info    0x0001424d      0x9d1 c:/altera/10.0/nios2eds/bin/gnu/h-i686-mingw32/bin/../lib/gcc/nios2-elf/4.1.2/../../../../nios2-elf/lib\libc.a(lib_a-printf.o)
 .debug_info    0x00014c1e      0x972 c:/altera/10.0/nios2eds/bin/gnu/h-i686-mingw32/bin/../lib/gcc/nios2-elf/4.1.2/../../../../nios2-elf/lib\libc.a(lib_a-putchar.o)
 .debug_info    0x00015590      0xa25 c:/altera/10.0/nios2eds/bin/gnu/h-i686-mingw32/bin/../lib/gcc/nios2-elf/4.1.2/../../../../nios2-elf/lib\libc.a(lib_a-puts.o)
 .debug_info    0x00015fb5      0x98b c:/altera/10.0/nios2eds/bin/gnu/h-i686-mingw32/bin/../lib/gcc/nios2-elf/4.1.2/../../../../nios2-elf/lib\libc.a(lib_a-refill.o)
 .debug_info    0x00016940      0x962 c:/altera/10.0/nios2eds/bin/gnu/h-i686-mingw32/bin/../lib/gcc/nios2-elf/4.1.2/../../../../nios2-elf/lib\libc.a(lib_a-sbrkr.o)
 .debug_info    0x000172a2      0xa16 c:/altera/10.0/nios2eds/bin/gnu/h-i686-mingw32/bin/../lib/gcc/nios2-elf/4.1.2/../../../../nios2-elf/lib\libc.a(lib_a-sprintf.o)
 .debug_info    0x00017cb8      0xaac c:/altera/10.0/nios2eds/bin/gnu/h-i686-mingw32/bin/../lib/gcc/nios2-elf/4.1.2/../../../../nios2-elf/lib\libc.a(lib_a-stdio.o)
 .debug_info    0x00018764      0x13a c:/altera/10.0/nios2eds/bin/gnu/h-i686-mingw32/bin/../lib/gcc/nios2-elf/4.1.2/../../../../nios2-elf/lib\libc.a(lib_a-strcasecmp.o)
 .debug_info    0x0001889e       0xdd c:/altera/10.0/nios2eds/bin/gnu/h-i686-mingw32/bin/../lib/gcc/nios2-elf/4.1.2/../../../../nios2-elf/lib\libc.a(lib_a-strcmp.o)
 .debug_info    0x0001897b      0x110 c:/altera/10.0/nios2eds/bin/gnu/h-i686-mingw32/bin/../lib/gcc/nios2-elf/4.1.2/../../../../nios2-elf/lib\libc.a(lib_a-strcpy.o)
 .debug_info    0x00018a8b       0xdb c:/altera/10.0/nios2eds/bin/gnu/h-i686-mingw32/bin/../lib/gcc/nios2-elf/4.1.2/../../../../nios2-elf/lib\libc.a(lib_a-strlen.o)
 .debug_info    0x00018b66     0x10d2 c:/altera/10.0/nios2eds/bin/gnu/h-i686-mingw32/bin/../lib/gcc/nios2-elf/4.1.2/../../../../nios2-elf/lib\libc.a(lib_a-vfprintf.o)
 .debug_info    0x00019c38      0xa1b c:/altera/10.0/nios2eds/bin/gnu/h-i686-mingw32/bin/../lib/gcc/nios2-elf/4.1.2/../../../../nios2-elf/lib\libc.a(lib_a-vsnprintf.o)
 .debug_info    0x0001a653      0x993 c:/altera/10.0/nios2eds/bin/gnu/h-i686-mingw32/bin/../lib/gcc/nios2-elf/4.1.2/../../../../nios2-elf/lib\libc.a(lib_a-writer.o)
 .debug_info    0x0001afe6      0x95d c:/altera/10.0/nios2eds/bin/gnu/h-i686-mingw32/bin/../lib/gcc/nios2-elf/4.1.2/../../../../nios2-elf/lib\libc.a(lib_a-wsetup.o)
 .debug_info    0x0001b943      0x958 c:/altera/10.0/nios2eds/bin/gnu/h-i686-mingw32/bin/../lib/gcc/nios2-elf/4.1.2/../../../../nios2-elf/lib\libc.a(lib_a-closer.o)
 .debug_info    0x0001c29b       0xa0 c:/altera/10.0/nios2eds/bin/gnu/h-i686-mingw32/bin/../lib/gcc/nios2-elf/4.1.2/../../../../nios2-elf/lib\libc.a(lib_a-ctype_.o)
 .debug_info    0x0001c33b      0xd6f c:/altera/10.0/nios2eds/bin/gnu/h-i686-mingw32/bin/../lib/gcc/nios2-elf/4.1.2/../../../../nios2-elf/lib\libc.a(lib_a-dtoa.o)
 .debug_info    0x0001d0aa      0x977 c:/altera/10.0/nios2eds/bin/gnu/h-i686-mingw32/bin/../lib/gcc/nios2-elf/4.1.2/../../../../nios2-elf/lib\libc.a(lib_a-flags.o)
 .debug_info    0x0001da21      0xa88 c:/altera/10.0/nios2eds/bin/gnu/h-i686-mingw32/bin/../lib/gcc/nios2-elf/4.1.2/../../../../nios2-elf/lib\libc.a(lib_a-fvwrite.o)
 .debug_info    0x0001e4a9      0x958 c:/altera/10.0/nios2eds/bin/gnu/h-i686-mingw32/bin/../lib/gcc/nios2-elf/4.1.2/../../../../nios2-elf/lib\libc.a(lib_a-isattyr.o)
 .debug_info    0x0001ee01      0xb97 c:/altera/10.0/nios2eds/bin/gnu/h-i686-mingw32/bin/../lib/gcc/nios2-elf/4.1.2/../../../../nios2-elf/lib\libc.a(lib_a-locale.o)
 .debug_info    0x0001f998      0x981 c:/altera/10.0/nios2eds/bin/gnu/h-i686-mingw32/bin/../lib/gcc/nios2-elf/4.1.2/../../../../nios2-elf/lib\libc.a(lib_a-lseekr.o)
 .debug_info    0x00020319      0x138 c:/altera/10.0/nios2eds/bin/gnu/h-i686-mingw32/bin/../lib/gcc/nios2-elf/4.1.2/../../../../nios2-elf/lib\libc.a(lib_a-memchr.o)
 .debug_info    0x00020451      0x13e c:/altera/10.0/nios2eds/bin/gnu/h-i686-mingw32/bin/../lib/gcc/nios2-elf/4.1.2/../../../../nios2-elf/lib\libc.a(lib_a-memmove.o)
 .debug_info    0x0002058f     0x1437 c:/altera/10.0/nios2eds/bin/gnu/h-i686-mingw32/bin/../lib/gcc/nios2-elf/4.1.2/../../../../nios2-elf/lib\libc.a(lib_a-mprec.o)
 .debug_info    0x000219c6      0x9c1 c:/altera/10.0/nios2eds/bin/gnu/h-i686-mingw32/bin/../lib/gcc/nios2-elf/4.1.2/../../../../nios2-elf/lib\libc.a(lib_a-putc.o)
 .debug_info    0x00022387      0x98c c:/altera/10.0/nios2eds/bin/gnu/h-i686-mingw32/bin/../lib/gcc/nios2-elf/4.1.2/../../../../nios2-elf/lib\libc.a(lib_a-readr.o)
 .debug_info    0x00022d13      0xbdb c:/altera/10.0/nios2eds/bin/gnu/h-i686-mingw32/bin/../lib/gcc/nios2-elf/4.1.2/../../../../nios2-elf/lib\libc.a(lib_a-reallocr.o)
 .debug_info    0x000238ee       0xd7 c:/altera/10.0/nios2eds/bin/gnu/h-i686-mingw32/bin/../lib/gcc/nios2-elf/4.1.2/../../../../nios2-elf/lib\libc.a(lib_a-s_isinfd.o)
 .debug_info    0x000239c5       0xd5 c:/altera/10.0/nios2eds/bin/gnu/h-i686-mingw32/bin/../lib/gcc/nios2-elf/4.1.2/../../../../nios2-elf/lib\libc.a(lib_a-s_isnand.o)
 .debug_info    0x00023a9a      0x9ae c:/altera/10.0/nios2eds/bin/gnu/h-i686-mingw32/bin/../lib/gcc/nios2-elf/4.1.2/../../../../nios2-elf/lib\libc.a(lib_a-wbuf.o)
 .debug_info    0x00024448      0xa1b c:/altera/10.0/nios2eds/bin/gnu/h-i686-mingw32/bin/../lib/gcc/nios2-elf/4.1.2/../../../../nios2-elf/lib\libc.a(lib_a-callocr.o)
 .debug_info    0x00024e63      0x493 c:/altera/10.0/nios2eds/bin/gnu/h-i686-mingw32/bin/../lib/gcc/nios2-elf/4.1.2\libgcc.a(_addsub_df.o)
 .debug_info    0x000252f6      0x488 c:/altera/10.0/nios2eds/bin/gnu/h-i686-mingw32/bin/../lib/gcc/nios2-elf/4.1.2\libgcc.a(_mul_df.o)
 .debug_info    0x0002577e      0x29d c:/altera/10.0/nios2eds/bin/gnu/h-i686-mingw32/bin/../lib/gcc/nios2-elf/4.1.2\libgcc.a(_eq_df.o)
 .debug_info    0x00025a1b      0x29d c:/altera/10.0/nios2eds/bin/gnu/h-i686-mingw32/bin/../lib/gcc/nios2-elf/4.1.2\libgcc.a(_ne_df.o)
 .debug_info    0x00025cb8      0x29d c:/altera/10.0/nios2eds/bin/gnu/h-i686-mingw32/bin/../lib/gcc/nios2-elf/4.1.2\libgcc.a(_gt_df.o)
 .debug_info    0x00025f55      0x29d c:/altera/10.0/nios2eds/bin/gnu/h-i686-mingw32/bin/../lib/gcc/nios2-elf/4.1.2\libgcc.a(_ge_df.o)
 .debug_info    0x000261f2      0x29d c:/altera/10.0/nios2eds/bin/gnu/h-i686-mingw32/bin/../lib/gcc/nios2-elf/4.1.2\libgcc.a(_lt_df.o)
 .debug_info    0x0002648f      0x218 c:/altera/10.0/nios2eds/bin/gnu/h-i686-mingw32/bin/../lib/gcc/nios2-elf/4.1.2\libgcc.a(_si_to_df.o)
 .debug_info    0x000266a7      0x2cd c:/altera/10.0/nios2eds/bin/gnu/h-i686-mingw32/bin/../lib/gcc/nios2-elf/4.1.2\libgcc.a(_df_to_si.o)
 .debug_info    0x00026974      0x213 c:/altera/10.0/nios2eds/bin/gnu/h-i686-mingw32/bin/../lib/gcc/nios2-elf/4.1.2\libgcc.a(_usi_to_df.o)
 .debug_info    0x00026b87      0x21b c:/altera/10.0/nios2eds/bin/gnu/h-i686-mingw32/bin/../lib/gcc/nios2-elf/4.1.2\libgcc.a(_fpcmp_parts_df.o)
 .debug_info    0x00026da2      0x4bc ../DE2_115_SD_Card_Audio_Player_bsp/\libhal_bsp.a(alt_close.o)
 .debug_info    0x0002725e      0x6dc ../DE2_115_SD_Card_Audio_Player_bsp/\libhal_bsp.a(alt_dev.o)
 .debug_info    0x0002793a      0x1bd ../DE2_115_SD_Card_Audio_Player_bsp/\libhal_bsp.a(alt_errno.o)
 .debug_info    0x00027af7      0x6bb ../DE2_115_SD_Card_Audio_Player_bsp/\libhal_bsp.a(alt_fstat.o)
 .debug_info    0x000281b2      0x49b ../DE2_115_SD_Card_Audio_Player_bsp/\libhal_bsp.a(alt_irq_register.o)
 .debug_info    0x0002864d      0x1c0 ../DE2_115_SD_Card_Audio_Player_bsp/\libhal_bsp.a(alt_irq_vars.o)
 .debug_info    0x0002880d      0x6c2 ../DE2_115_SD_Card_Audio_Player_bsp/\libhal_bsp.a(alt_isatty.o)
 .debug_info    0x00028ecf      0x2e2 ../DE2_115_SD_Card_Audio_Player_bsp/\libhal_bsp.a(alt_load.o)
 .debug_info    0x000291b1      0x4e1 ../DE2_115_SD_Card_Audio_Player_bsp/\libhal_bsp.a(alt_lseek.o)
 .debug_info    0x00029692      0x2ca ../DE2_115_SD_Card_Audio_Player_bsp/\libhal_bsp.a(alt_main.o)
 .debug_info    0x0002995c      0xc06 ../DE2_115_SD_Card_Audio_Player_bsp/\libhal_bsp.a(alt_malloc_lock.o)
 .debug_info    0x0002a562      0x578 ../DE2_115_SD_Card_Audio_Player_bsp/\libhal_bsp.a(alt_open.o)
 .debug_info    0x0002aada      0x6e5 ../DE2_115_SD_Card_Audio_Player_bsp/\libhal_bsp.a(alt_read.o)
 .debug_info    0x0002b1bf      0x449 ../DE2_115_SD_Card_Audio_Player_bsp/\libhal_bsp.a(alt_release_fd.o)
 .debug_info    0x0002b608      0x331 ../DE2_115_SD_Card_Audio_Player_bsp/\libhal_bsp.a(alt_sbrk.o)
 .debug_info    0x0002b939      0x46b ../DE2_115_SD_Card_Audio_Player_bsp/\libhal_bsp.a(alt_tick.o)
 .debug_info    0x0002bda4      0x19e ../DE2_115_SD_Card_Audio_Player_bsp/\libhal_bsp.a(alt_usleep.o)
 .debug_info    0x0002bf42      0x6ee ../DE2_115_SD_Card_Audio_Player_bsp/\libhal_bsp.a(alt_write.o)
 .debug_info    0x0002c630      0xff6 ../DE2_115_SD_Card_Audio_Player_bsp/\libhal_bsp.a(alt_sys_init.o)
 .debug_info    0x0002d626      0xb90 ../DE2_115_SD_Card_Audio_Player_bsp/\libhal_bsp.a(altera_avalon_cfi_flash.o)
 .debug_info    0x0002e1b6      0xe4a ../DE2_115_SD_Card_Audio_Player_bsp/\libhal_bsp.a(altera_avalon_cfi_flash_table.o)
 .debug_info    0x0002f000      0x819 ../DE2_115_SD_Card_Audio_Player_bsp/\libhal_bsp.a(altera_avalon_jtag_uart_fd.o)
 .debug_info    0x0002f819      0x67c ../DE2_115_SD_Card_Audio_Player_bsp/\libhal_bsp.a(altera_avalon_jtag_uart_init.o)
 .debug_info    0x0002fe95      0x489 ../DE2_115_SD_Card_Audio_Player_bsp/\libhal_bsp.a(altera_avalon_jtag_uart_ioctl.o)
 .debug_info    0x0003031e      0x5a4 ../DE2_115_SD_Card_Audio_Player_bsp/\libhal_bsp.a(altera_avalon_jtag_uart_read.o)
 .debug_info    0x000308c2      0x5a0 ../DE2_115_SD_Card_Audio_Player_bsp/\libhal_bsp.a(altera_avalon_jtag_uart_write.o)
 .debug_info    0x00030e62      0x953 ../DE2_115_SD_Card_Audio_Player_bsp/\libhal_bsp.a(altera_avalon_lcd_16207.o)
 .debug_info    0x000317b5      0x753 ../DE2_115_SD_Card_Audio_Player_bsp/\libhal_bsp.a(altera_avalon_lcd_16207_fd.o)
 .debug_info    0x00031f08      0x390 ../DE2_115_SD_Card_Audio_Player_bsp/\libhal_bsp.a(altera_avalon_timer_sc.o)
 .debug_info    0x00032298      0x67a ../DE2_115_SD_Card_Audio_Player_bsp/\libhal_bsp.a(altera_avalon_uart_fd.o)
 .debug_info    0x00032912      0x53a ../DE2_115_SD_Card_Audio_Player_bsp/\libhal_bsp.a(altera_avalon_uart_init.o)
 .debug_info    0x00032e4c      0x525 ../DE2_115_SD_Card_Audio_Player_bsp/\libhal_bsp.a(altera_avalon_uart_read.o)
 .debug_info    0x00033371      0x514 ../DE2_115_SD_Card_Audio_Player_bsp/\libhal_bsp.a(altera_avalon_uart_write.o)
 .debug_info    0x00033885      0x4b5 ../DE2_115_SD_Card_Audio_Player_bsp/\libhal_bsp.a(alt_alarm_start.o)
 .debug_info    0x00033d3a      0x202 ../DE2_115_SD_Card_Audio_Player_bsp/\libhal_bsp.a(alt_busy_sleep.o)
 .debug_info    0x00033f3c      0x1fb ../DE2_115_SD_Card_Audio_Player_bsp/\libhal_bsp.a(alt_dcache_flush.o)
 .debug_info    0x00034137      0x1c6 ../DE2_115_SD_Card_Audio_Player_bsp/\libhal_bsp.a(alt_dcache_flush_all.o)
 .debug_info    0x000342fd      0x31b ../DE2_115_SD_Card_Audio_Player_bsp/\libhal_bsp.a(alt_dev_llist_insert.o)
 .debug_info    0x00034618      0x171 ../DE2_115_SD_Card_Audio_Player_bsp/\libhal_bsp.a(alt_do_ctors.o)
 .debug_info    0x00034789      0x170 ../DE2_115_SD_Card_Audio_Player_bsp/\libhal_bsp.a(alt_do_dtors.o)
 .debug_info    0x000348f9      0x46f ../DE2_115_SD_Card_Audio_Player_bsp/\libhal_bsp.a(alt_find_dev.o)
 .debug_info    0x00034d68      0x476 ../DE2_115_SD_Card_Audio_Player_bsp/\libhal_bsp.a(alt_find_file.o)
 .debug_info    0x000351de      0x5ee ../DE2_115_SD_Card_Audio_Player_bsp/\libhal_bsp.a(alt_flash_dev.o)
 .debug_info    0x000357cc      0x4d1 ../DE2_115_SD_Card_Audio_Player_bsp/\libhal_bsp.a(alt_get_fd.o)
 .debug_info    0x00035c9d      0x1b3 ../DE2_115_SD_Card_Audio_Player_bsp/\libhal_bsp.a(alt_icache_flush_all.o)
 .debug_info    0x00035e50      0x4ed ../DE2_115_SD_Card_Audio_Player_bsp/\libhal_bsp.a(alt_iic.o)
 .debug_info    0x0003633d      0x378 ../DE2_115_SD_Card_Audio_Player_bsp/\libhal_bsp.a(alt_iic_isr_register.o)
 .debug_info    0x000366b5      0x6f0 ../DE2_115_SD_Card_Audio_Player_bsp/\libhal_bsp.a(alt_io_redirect.o)
 .debug_info    0x00036da5       0xbe ../DE2_115_SD_Card_Audio_Player_bsp/\libhal_bsp.a(alt_irq_entry.o)
 .debug_info    0x00036e63      0x2d8 ../DE2_115_SD_Card_Audio_Player_bsp/\libhal_bsp.a(alt_irq_handler.o)
 .debug_info    0x0003713b      0x1ba ../DE2_115_SD_Card_Audio_Player_bsp/\libhal_bsp.a(altera_nios2_qsys_irq.o)
 .debug_info    0x000372f5      0x91a ../DE2_115_SD_Card_Audio_Player_bsp/\libhal_bsp.a(altera_avalon_cfi_flash_amd.o)
 .debug_info    0x00037c0f      0x910 ../DE2_115_SD_Card_Audio_Player_bsp/\libhal_bsp.a(altera_avalon_cfi_flash_intel.o)
 .debug_info    0x0003851f       0xc4 ../DE2_115_SD_Card_Audio_Player_bsp/\libhal_bsp.a(alt_exception_entry.o)
 .debug_info    0x000385e3      0x1fb ../DE2_115_SD_Card_Audio_Player_bsp/\libhal_bsp.a(alt_icache_flush.o)
 .debug_info    0x000387de      0x181 c:/altera/10.0/nios2eds/bin/gnu/h-i686-mingw32/bin/../lib/gcc/nios2-elf/4.1.2/../../../../nios2-elf/lib\libc.a(lib_a-atexit.o)
 .debug_info    0x0003895f      0x93f c:/altera/10.0/nios2eds/bin/gnu/h-i686-mingw32/bin/../lib/gcc/nios2-elf/4.1.2/../../../../nios2-elf/lib\libc.a(lib_a-exit.o)
 .debug_info    0x0003929e      0x115 c:/altera/10.0/nios2eds/bin/gnu/h-i686-mingw32/bin/../lib/gcc/nios2-elf/4.1.2/../../../../nios2-elf/lib\libc.a(lib_a-memcmp.o)
 .debug_info    0x000393b3      0x99c c:/altera/10.0/nios2eds/bin/gnu/h-i686-mingw32/bin/../lib/gcc/nios2-elf/4.1.2/../../../../nios2-elf/lib\libc.a(lib_a-__atexit.o)
 .debug_info    0x00039d4f      0x9e2 c:/altera/10.0/nios2eds/bin/gnu/h-i686-mingw32/bin/../lib/gcc/nios2-elf/4.1.2/../../../../nios2-elf/lib\libc.a(lib_a-__call_atexit.o)
 .debug_info    0x0003a731      0x1e2 ../DE2_115_SD_Card_Audio_Player_bsp/\libhal_bsp.a(alt_exit.o)

.debug_abbrev   0x00000000     0xbd06
 *(.debug_abbrev)
 .debug_abbrev  0x00000000       0x10 ../DE2_115_SD_Card_Audio_Player_bsp//obj/HAL/src/crt0.o
 .debug_abbrev  0x00000010      0x241 obj/default/main.o
 .debug_abbrev  0x00000251      0x1f1 obj/default/terasic_fat/FatFileSystem.o
 .debug_abbrev  0x00000442      0x1c8 obj/default/terasic_fat/FatInternal.o
 .debug_abbrev  0x0000060a      0x15e obj/default/terasic_lib/AUDIO.o
 .debug_abbrev  0x00000768       0xe2 obj/default/terasic_lib/I2C.o
 .debug_abbrev  0x0000084a      0x1c1 obj/default/terasic_lib/LCD.o
 .debug_abbrev  0x00000a0b       0xc0 obj/default/terasic_lib/LED.o
 .debug_abbrev  0x00000acb       0xdb obj/default/terasic_lib/SEG7.o
 .debug_abbrev  0x00000ba6       0xe8 obj/default/terasic_lib/WaveLib.o
 .debug_abbrev  0x00000c8e       0xfa obj/default/terasic_lib/debug.o
 .debug_abbrev  0x00000d88       0xc6 obj/default/terasic_sdcard/crc16.o
 .debug_abbrev  0x00000e4e       0xc6 obj/default/terasic_sdcard/crc7.o
 .debug_abbrev  0x00000f14      0x124 obj/default/terasic_sdcard/sd_hal.o
 .debug_abbrev  0x00001038      0x148 obj/default/terasic_sdcard/sd_lib.o
 .debug_abbrev  0x00001180      0x190 obj/default/terasic_sdcard/sd_protocol.o
 .debug_abbrev  0x00001310      0x206 c:/altera/10.0/nios2eds/bin/gnu/h-i686-mingw32/bin/../lib/gcc/nios2-elf/4.1.2\libgcc.a(_mul_sf.o)
 .debug_abbrev  0x00001516      0x1e5 c:/altera/10.0/nios2eds/bin/gnu/h-i686-mingw32/bin/../lib/gcc/nios2-elf/4.1.2\libgcc.a(_div_sf.o)
 .debug_abbrev  0x000016fb      0x128 c:/altera/10.0/nios2eds/bin/gnu/h-i686-mingw32/bin/../lib/gcc/nios2-elf/4.1.2\libgcc.a(_sf_to_df.o)
 .debug_abbrev  0x00001823       0xba c:/altera/10.0/nios2eds/bin/gnu/h-i686-mingw32/bin/../lib/gcc/nios2-elf/4.1.2\libgcc.a(_thenan_sf.o)
 .debug_abbrev  0x000018dd      0x155 c:/altera/10.0/nios2eds/bin/gnu/h-i686-mingw32/bin/../lib/gcc/nios2-elf/4.1.2\libgcc.a(_usi_to_sf.o)
 .debug_abbrev  0x00001a32      0x1e3 c:/altera/10.0/nios2eds/bin/gnu/h-i686-mingw32/bin/../lib/gcc/nios2-elf/4.1.2\libgcc.a(_div_df.o)
 .debug_abbrev  0x00001c15      0x10f c:/altera/10.0/nios2eds/bin/gnu/h-i686-mingw32/bin/../lib/gcc/nios2-elf/4.1.2\libgcc.a(_make_df.o)
 .debug_abbrev  0x00001d24      0x137 c:/altera/10.0/nios2eds/bin/gnu/h-i686-mingw32/bin/../lib/gcc/nios2-elf/4.1.2\libgcc.a(_df_to_sf.o)
 .debug_abbrev  0x00001e5b       0xba c:/altera/10.0/nios2eds/bin/gnu/h-i686-mingw32/bin/../lib/gcc/nios2-elf/4.1.2\libgcc.a(_thenan_df.o)
 .debug_abbrev  0x00001f15       0xe0 c:/altera/10.0/nios2eds/bin/gnu/h-i686-mingw32/bin/../lib/gcc/nios2-elf/4.1.2\libgcc.a(lib2-divmod.o)
 .debug_abbrev  0x00001ff5       0xee c:/altera/10.0/nios2eds/bin/gnu/h-i686-mingw32/bin/../lib/gcc/nios2-elf/4.1.2\libgcc.a(_muldi3.o)
 .debug_abbrev  0x000020e3       0xb9 c:/altera/10.0/nios2eds/bin/gnu/h-i686-mingw32/bin/../lib/gcc/nios2-elf/4.1.2\libgcc.a(_clzsi2.o)
 .debug_abbrev  0x0000219c      0x1aa c:/altera/10.0/nios2eds/bin/gnu/h-i686-mingw32/bin/../lib/gcc/nios2-elf/4.1.2\libgcc.a(_pack_sf.o)
 .debug_abbrev  0x00002346      0x158 c:/altera/10.0/nios2eds/bin/gnu/h-i686-mingw32/bin/../lib/gcc/nios2-elf/4.1.2\libgcc.a(_unpack_sf.o)
 .debug_abbrev  0x0000249e      0x100 c:/altera/10.0/nios2eds/bin/gnu/h-i686-mingw32/bin/../lib/gcc/nios2-elf/4.1.2\libgcc.a(_make_sf.o)
 .debug_abbrev  0x0000259e      0x1b1 c:/altera/10.0/nios2eds/bin/gnu/h-i686-mingw32/bin/../lib/gcc/nios2-elf/4.1.2\libgcc.a(_pack_df.o)
 .debug_abbrev  0x0000274f      0x149 c:/altera/10.0/nios2eds/bin/gnu/h-i686-mingw32/bin/../lib/gcc/nios2-elf/4.1.2\libgcc.a(_unpack_df.o)
 .debug_abbrev  0x00002898       0x61 c:/altera/10.0/nios2eds/bin/gnu/h-i686-mingw32/bin/../lib/gcc/nios2-elf/4.1.2\libgcc.a(_clz.o)
 .debug_abbrev  0x000028f9      0x1a7 c:/altera/10.0/nios2eds/bin/gnu/h-i686-mingw32/bin/../lib/gcc/nios2-elf/4.1.2/../../../../nios2-elf/lib\libc.a(lib_a-fclose.o)
 .debug_abbrev  0x00002aa0      0x1c6 c:/altera/10.0/nios2eds/bin/gnu/h-i686-mingw32/bin/../lib/gcc/nios2-elf/4.1.2/../../../../nios2-elf/lib\libc.a(lib_a-fflush.o)
 .debug_abbrev  0x00002c66      0x24c c:/altera/10.0/nios2eds/bin/gnu/h-i686-mingw32/bin/../lib/gcc/nios2-elf/4.1.2/../../../../nios2-elf/lib\libc.a(lib_a-findfp.o)
 .debug_abbrev  0x00002eb2      0x1b6 c:/altera/10.0/nios2eds/bin/gnu/h-i686-mingw32/bin/../lib/gcc/nios2-elf/4.1.2/../../../../nios2-elf/lib\libc.a(lib_a-fopen.o)
 .debug_abbrev  0x00003068      0x1d9 c:/altera/10.0/nios2eds/bin/gnu/h-i686-mingw32/bin/../lib/gcc/nios2-elf/4.1.2/../../../../nios2-elf/lib\libc.a(lib_a-freer.o)
 .debug_abbrev  0x00003241      0x208 c:/altera/10.0/nios2eds/bin/gnu/h-i686-mingw32/bin/../lib/gcc/nios2-elf/4.1.2/../../../../nios2-elf/lib\libc.a(lib_a-fseek.o)
 .debug_abbrev  0x00003449      0x18e c:/altera/10.0/nios2eds/bin/gnu/h-i686-mingw32/bin/../lib/gcc/nios2-elf/4.1.2/../../../../nios2-elf/lib\libc.a(lib_a-fstatr.o)
 .debug_abbrev  0x000035d7      0x1e3 c:/altera/10.0/nios2eds/bin/gnu/h-i686-mingw32/bin/../lib/gcc/nios2-elf/4.1.2/../../../../nios2-elf/lib\libc.a(lib_a-fwalk.o)
 .debug_abbrev  0x000037ba      0x1b1 c:/altera/10.0/nios2eds/bin/gnu/h-i686-mingw32/bin/../lib/gcc/nios2-elf/4.1.2/../../../../nios2-elf/lib\libc.a(lib_a-fwrite.o)
 .debug_abbrev  0x0000396b      0x157 c:/altera/10.0/nios2eds/bin/gnu/h-i686-mingw32/bin/../lib/gcc/nios2-elf/4.1.2/../../../../nios2-elf/lib\libc.a(lib_a-impure.o)
 .debug_abbrev  0x00003ac2       0x3b c:/altera/10.0/nios2eds/bin/gnu/h-i686-mingw32/bin/../lib/gcc/nios2-elf/4.1.2/../../../../nios2-elf/lib\libc.a(lib_a-int_errno.o)
 .debug_abbrev  0x00003afd      0x197 c:/altera/10.0/nios2eds/bin/gnu/h-i686-mingw32/bin/../lib/gcc/nios2-elf/4.1.2/../../../../nios2-elf/lib\libc.a(lib_a-makebuf.o)
 .debug_abbrev  0x00003c94      0x187 c:/altera/10.0/nios2eds/bin/gnu/h-i686-mingw32/bin/../lib/gcc/nios2-elf/4.1.2/../../../../nios2-elf/lib\libc.a(lib_a-malloc.o)
 .debug_abbrev  0x00003e1b      0x216 c:/altera/10.0/nios2eds/bin/gnu/h-i686-mingw32/bin/../lib/gcc/nios2-elf/4.1.2/../../../../nios2-elf/lib\libc.a(lib_a-mallocr.o)
 .debug_abbrev  0x00004031       0xb5 c:/altera/10.0/nios2eds/bin/gnu/h-i686-mingw32/bin/../lib/gcc/nios2-elf/4.1.2/../../../../nios2-elf/lib\libc.a(lib_a-memcpy.o)
 .debug_abbrev  0x000040e6       0xb8 c:/altera/10.0/nios2eds/bin/gnu/h-i686-mingw32/bin/../lib/gcc/nios2-elf/4.1.2/../../../../nios2-elf/lib\libc.a(lib_a-memset.o)
 .debug_abbrev  0x0000419e      0x18e c:/altera/10.0/nios2eds/bin/gnu/h-i686-mingw32/bin/../lib/gcc/nios2-elf/4.1.2/../../../../nios2-elf/lib\libc.a(lib_a-openr.o)
 .debug_abbrev  0x0000432c      0x191 c:/altera/10.0/nios2eds/bin/gnu/h-i686-mingw32/bin/../lib/gcc/nios2-elf/4.1.2/../../../../nios2-elf/lib\libc.a(lib_a-printf.o)
 .debug_abbrev  0x000044bd      0x170 c:/altera/10.0/nios2eds/bin/gnu/h-i686-mingw32/bin/../lib/gcc/nios2-elf/4.1.2/../../../../nios2-elf/lib\libc.a(lib_a-putchar.o)
 .debug_abbrev  0x0000462d      0x1ac c:/altera/10.0/nios2eds/bin/gnu/h-i686-mingw32/bin/../lib/gcc/nios2-elf/4.1.2/../../../../nios2-elf/lib\libc.a(lib_a-puts.o)
 .debug_abbrev  0x000047d9      0x187 c:/altera/10.0/nios2eds/bin/gnu/h-i686-mingw32/bin/../lib/gcc/nios2-elf/4.1.2/../../../../nios2-elf/lib\libc.a(lib_a-refill.o)
 .debug_abbrev  0x00004960      0x18c c:/altera/10.0/nios2eds/bin/gnu/h-i686-mingw32/bin/../lib/gcc/nios2-elf/4.1.2/../../../../nios2-elf/lib\libc.a(lib_a-sbrkr.o)
 .debug_abbrev  0x00004aec      0x191 c:/altera/10.0/nios2eds/bin/gnu/h-i686-mingw32/bin/../lib/gcc/nios2-elf/4.1.2/../../../../nios2-elf/lib\libc.a(lib_a-sprintf.o)
 .debug_abbrev  0x00004c7d      0x1c9 c:/altera/10.0/nios2eds/bin/gnu/h-i686-mingw32/bin/../lib/gcc/nios2-elf/4.1.2/../../../../nios2-elf/lib\libc.a(lib_a-stdio.o)
 .debug_abbrev  0x00004e46       0x96 c:/altera/10.0/nios2eds/bin/gnu/h-i686-mingw32/bin/../lib/gcc/nios2-elf/4.1.2/../../../../nios2-elf/lib\libc.a(lib_a-strcasecmp.o)
 .debug_abbrev  0x00004edc       0x80 c:/altera/10.0/nios2eds/bin/gnu/h-i686-mingw32/bin/../lib/gcc/nios2-elf/4.1.2/../../../../nios2-elf/lib\libc.a(lib_a-strcmp.o)
 .debug_abbrev  0x00004f5c       0x8f c:/altera/10.0/nios2eds/bin/gnu/h-i686-mingw32/bin/../lib/gcc/nios2-elf/4.1.2/../../../../nios2-elf/lib\libc.a(lib_a-strcpy.o)
 .debug_abbrev  0x00004feb       0x8b c:/altera/10.0/nios2eds/bin/gnu/h-i686-mingw32/bin/../lib/gcc/nios2-elf/4.1.2/../../../../nios2-elf/lib\libc.a(lib_a-strlen.o)
 .debug_abbrev  0x00005076      0x30a c:/altera/10.0/nios2eds/bin/gnu/h-i686-mingw32/bin/../lib/gcc/nios2-elf/4.1.2/../../../../nios2-elf/lib\libc.a(lib_a-vfprintf.o)
 .debug_abbrev  0x00005380      0x1ac c:/altera/10.0/nios2eds/bin/gnu/h-i686-mingw32/bin/../lib/gcc/nios2-elf/4.1.2/../../../../nios2-elf/lib\libc.a(lib_a-vsnprintf.o)
 .debug_abbrev  0x0000552c      0x184 c:/altera/10.0/nios2eds/bin/gnu/h-i686-mingw32/bin/../lib/gcc/nios2-elf/4.1.2/../../../../nios2-elf/lib\libc.a(lib_a-writer.o)
 .debug_abbrev  0x000056b0      0x170 c:/altera/10.0/nios2eds/bin/gnu/h-i686-mingw32/bin/../lib/gcc/nios2-elf/4.1.2/../../../../nios2-elf/lib\libc.a(lib_a-wsetup.o)
 .debug_abbrev  0x00005820      0x17f c:/altera/10.0/nios2eds/bin/gnu/h-i686-mingw32/bin/../lib/gcc/nios2-elf/4.1.2/../../../../nios2-elf/lib\libc.a(lib_a-closer.o)
 .debug_abbrev  0x0000599f       0x61 c:/altera/10.0/nios2eds/bin/gnu/h-i686-mingw32/bin/../lib/gcc/nios2-elf/4.1.2/../../../../nios2-elf/lib\libc.a(lib_a-ctype_.o)
 .debug_abbrev  0x00005a00      0x232 c:/altera/10.0/nios2eds/bin/gnu/h-i686-mingw32/bin/../lib/gcc/nios2-elf/4.1.2/../../../../nios2-elf/lib\libc.a(lib_a-dtoa.o)
 .debug_abbrev  0x00005c32      0x17d c:/altera/10.0/nios2eds/bin/gnu/h-i686-mingw32/bin/../lib/gcc/nios2-elf/4.1.2/../../../../nios2-elf/lib\libc.a(lib_a-flags.o)
 .debug_abbrev  0x00005daf      0x1a3 c:/altera/10.0/nios2eds/bin/gnu/h-i686-mingw32/bin/../lib/gcc/nios2-elf/4.1.2/../../../../nios2-elf/lib\libc.a(lib_a-fvwrite.o)
 .debug_abbrev  0x00005f52      0x17f c:/altera/10.0/nios2eds/bin/gnu/h-i686-mingw32/bin/../lib/gcc/nios2-elf/4.1.2/../../../../nios2-elf/lib\libc.a(lib_a-isattyr.o)
 .debug_abbrev  0x000060d1      0x1ed c:/altera/10.0/nios2eds/bin/gnu/h-i686-mingw32/bin/../lib/gcc/nios2-elf/4.1.2/../../../../nios2-elf/lib\libc.a(lib_a-locale.o)
 .debug_abbrev  0x000062be      0x18e c:/altera/10.0/nios2eds/bin/gnu/h-i686-mingw32/bin/../lib/gcc/nios2-elf/4.1.2/../../../../nios2-elf/lib\libc.a(lib_a-lseekr.o)
 .debug_abbrev  0x0000644c       0xb5 c:/altera/10.0/nios2eds/bin/gnu/h-i686-mingw32/bin/../lib/gcc/nios2-elf/4.1.2/../../../../nios2-elf/lib\libc.a(lib_a-memchr.o)
 .debug_abbrev  0x00006501       0xb5 c:/altera/10.0/nios2eds/bin/gnu/h-i686-mingw32/bin/../lib/gcc/nios2-elf/4.1.2/../../../../nios2-elf/lib\libc.a(lib_a-memmove.o)
 .debug_abbrev  0x000065b6      0x297 c:/altera/10.0/nios2eds/bin/gnu/h-i686-mingw32/bin/../lib/gcc/nios2-elf/4.1.2/../../../../nios2-elf/lib\libc.a(lib_a-mprec.o)
 .debug_abbrev  0x0000684d      0x17f c:/altera/10.0/nios2eds/bin/gnu/h-i686-mingw32/bin/../lib/gcc/nios2-elf/4.1.2/../../../../nios2-elf/lib\libc.a(lib_a-putc.o)
 .debug_abbrev  0x000069cc      0x17f c:/altera/10.0/nios2eds/bin/gnu/h-i686-mingw32/bin/../lib/gcc/nios2-elf/4.1.2/../../../../nios2-elf/lib\libc.a(lib_a-readr.o)
 .debug_abbrev  0x00006b4b      0x1c3 c:/altera/10.0/nios2eds/bin/gnu/h-i686-mingw32/bin/../lib/gcc/nios2-elf/4.1.2/../../../../nios2-elf/lib\libc.a(lib_a-reallocr.o)
 .debug_abbrev  0x00006d0e       0x79 c:/altera/10.0/nios2eds/bin/gnu/h-i686-mingw32/bin/../lib/gcc/nios2-elf/4.1.2/../../../../nios2-elf/lib\libc.a(lib_a-s_isinfd.o)
 .debug_abbrev  0x00006d87       0x79 c:/altera/10.0/nios2eds/bin/gnu/h-i686-mingw32/bin/../lib/gcc/nios2-elf/4.1.2/../../../../nios2-elf/lib\libc.a(lib_a-s_isnand.o)
 .debug_abbrev  0x00006e00      0x198 c:/altera/10.0/nios2eds/bin/gnu/h-i686-mingw32/bin/../lib/gcc/nios2-elf/4.1.2/../../../../nios2-elf/lib\libc.a(lib_a-wbuf.o)
 .debug_abbrev  0x00006f98      0x1b8 c:/altera/10.0/nios2eds/bin/gnu/h-i686-mingw32/bin/../lib/gcc/nios2-elf/4.1.2/../../../../nios2-elf/lib\libc.a(lib_a-callocr.o)
 .debug_abbrev  0x00007150      0x1d2 c:/altera/10.0/nios2eds/bin/gnu/h-i686-mingw32/bin/../lib/gcc/nios2-elf/4.1.2\libgcc.a(_addsub_df.o)
 .debug_abbrev  0x00007322      0x204 c:/altera/10.0/nios2eds/bin/gnu/h-i686-mingw32/bin/../lib/gcc/nios2-elf/4.1.2\libgcc.a(_mul_df.o)
 .debug_abbrev  0x00007526      0x151 c:/altera/10.0/nios2eds/bin/gnu/h-i686-mingw32/bin/../lib/gcc/nios2-elf/4.1.2\libgcc.a(_eq_df.o)
 .debug_abbrev  0x00007677      0x151 c:/altera/10.0/nios2eds/bin/gnu/h-i686-mingw32/bin/../lib/gcc/nios2-elf/4.1.2\libgcc.a(_ne_df.o)
 .debug_abbrev  0x000077c8      0x151 c:/altera/10.0/nios2eds/bin/gnu/h-i686-mingw32/bin/../lib/gcc/nios2-elf/4.1.2\libgcc.a(_gt_df.o)
 .debug_abbrev  0x00007919      0x151 c:/altera/10.0/nios2eds/bin/gnu/h-i686-mingw32/bin/../lib/gcc/nios2-elf/4.1.2\libgcc.a(_ge_df.o)
 .debug_abbrev  0x00007a6a      0x151 c:/altera/10.0/nios2eds/bin/gnu/h-i686-mingw32/bin/../lib/gcc/nios2-elf/4.1.2\libgcc.a(_lt_df.o)
 .debug_abbrev  0x00007bbb      0x13f c:/altera/10.0/nios2eds/bin/gnu/h-i686-mingw32/bin/../lib/gcc/nios2-elf/4.1.2\libgcc.a(_si_to_df.o)
 .debug_abbrev  0x00007cfa      0x176 c:/altera/10.0/nios2eds/bin/gnu/h-i686-mingw32/bin/../lib/gcc/nios2-elf/4.1.2\libgcc.a(_df_to_si.o)
 .debug_abbrev  0x00007e70      0x155 c:/altera/10.0/nios2eds/bin/gnu/h-i686-mingw32/bin/../lib/gcc/nios2-elf/4.1.2\libgcc.a(_usi_to_df.o)
 .debug_abbrev  0x00007fc5      0x132 c:/altera/10.0/nios2eds/bin/gnu/h-i686-mingw32/bin/../lib/gcc/nios2-elf/4.1.2\libgcc.a(_fpcmp_parts_df.o)
 .debug_abbrev  0x000080f7       0xfb ../DE2_115_SD_Card_Audio_Player_bsp/\libhal_bsp.a(alt_close.o)
 .debug_abbrev  0x000081f2       0xdf ../DE2_115_SD_Card_Audio_Player_bsp/\libhal_bsp.a(alt_dev.o)
 .debug_abbrev  0x000082d1       0x5e ../DE2_115_SD_Card_Audio_Player_bsp/\libhal_bsp.a(alt_errno.o)
 .debug_abbrev  0x0000832f      0x102 ../DE2_115_SD_Card_Audio_Player_bsp/\libhal_bsp.a(alt_fstat.o)
 .debug_abbrev  0x00008431      0x192 ../DE2_115_SD_Card_Audio_Player_bsp/\libhal_bsp.a(alt_irq_register.o)
 .debug_abbrev  0x000085c3       0x44 ../DE2_115_SD_Card_Audio_Player_bsp/\libhal_bsp.a(alt_irq_vars.o)
 .debug_abbrev  0x00008607      0x102 ../DE2_115_SD_Card_Audio_Player_bsp/\libhal_bsp.a(alt_isatty.o)
 .debug_abbrev  0x00008709       0x88 ../DE2_115_SD_Card_Audio_Player_bsp/\libhal_bsp.a(alt_load.o)
 .debug_abbrev  0x00008791       0xfb ../DE2_115_SD_Card_Audio_Player_bsp/\libhal_bsp.a(alt_lseek.o)
 .debug_abbrev  0x0000888c       0xc9 ../DE2_115_SD_Card_Audio_Player_bsp/\libhal_bsp.a(alt_main.o)
 .debug_abbrev  0x00008955      0x181 ../DE2_115_SD_Card_Audio_Player_bsp/\libhal_bsp.a(alt_malloc_lock.o)
 .debug_abbrev  0x00008ad6      0x112 ../DE2_115_SD_Card_Audio_Player_bsp/\libhal_bsp.a(alt_open.o)
 .debug_abbrev  0x00008be8      0x102 ../DE2_115_SD_Card_Audio_Player_bsp/\libhal_bsp.a(alt_read.o)
 .debug_abbrev  0x00008cea       0xc1 ../DE2_115_SD_Card_Audio_Player_bsp/\libhal_bsp.a(alt_release_fd.o)
 .debug_abbrev  0x00008dab      0x116 ../DE2_115_SD_Card_Audio_Player_bsp/\libhal_bsp.a(alt_sbrk.o)
 .debug_abbrev  0x00008ec1      0x151 ../DE2_115_SD_Card_Audio_Player_bsp/\libhal_bsp.a(alt_tick.o)
 .debug_abbrev  0x00009012       0x50 ../DE2_115_SD_Card_Audio_Player_bsp/\libhal_bsp.a(alt_usleep.o)
 .debug_abbrev  0x00009062      0x107 ../DE2_115_SD_Card_Audio_Player_bsp/\libhal_bsp.a(alt_write.o)
 .debug_abbrev  0x00009169      0x179 ../DE2_115_SD_Card_Audio_Player_bsp/\libhal_bsp.a(alt_sys_init.o)
 .debug_abbrev  0x000092e2      0x1c6 ../DE2_115_SD_Card_Audio_Player_bsp/\libhal_bsp.a(altera_avalon_cfi_flash.o)
 .debug_abbrev  0x000094a8      0x17b ../DE2_115_SD_Card_Audio_Player_bsp/\libhal_bsp.a(altera_avalon_cfi_flash_table.o)
 .debug_abbrev  0x00009623       0xf7 ../DE2_115_SD_Card_Audio_Player_bsp/\libhal_bsp.a(altera_avalon_jtag_uart_fd.o)
 .debug_abbrev  0x0000971a      0x178 ../DE2_115_SD_Card_Audio_Player_bsp/\libhal_bsp.a(altera_avalon_jtag_uart_init.o)
 .debug_abbrev  0x00009892       0xf0 ../DE2_115_SD_Card_Audio_Player_bsp/\libhal_bsp.a(altera_avalon_jtag_uart_ioctl.o)
 .debug_abbrev  0x00009982      0x19d ../DE2_115_SD_Card_Audio_Player_bsp/\libhal_bsp.a(altera_avalon_jtag_uart_read.o)
 .debug_abbrev  0x00009b1f      0x18e ../DE2_115_SD_Card_Audio_Player_bsp/\libhal_bsp.a(altera_avalon_jtag_uart_write.o)
 .debug_abbrev  0x00009cad      0x1c4 ../DE2_115_SD_Card_Audio_Player_bsp/\libhal_bsp.a(altera_avalon_lcd_16207.o)
 .debug_abbrev  0x00009e71      0x104 ../DE2_115_SD_Card_Audio_Player_bsp/\libhal_bsp.a(altera_avalon_lcd_16207_fd.o)
 .debug_abbrev  0x00009f75      0x111 ../DE2_115_SD_Card_Audio_Player_bsp/\libhal_bsp.a(altera_avalon_timer_sc.o)
 .debug_abbrev  0x0000a086       0xee ../DE2_115_SD_Card_Audio_Player_bsp/\libhal_bsp.a(altera_avalon_uart_fd.o)
 .debug_abbrev  0x0000a174      0x144 ../DE2_115_SD_Card_Audio_Player_bsp/\libhal_bsp.a(altera_avalon_uart_init.o)
 .debug_abbrev  0x0000a2b8      0x180 ../DE2_115_SD_Card_Audio_Player_bsp/\libhal_bsp.a(altera_avalon_uart_read.o)
 .debug_abbrev  0x0000a438      0x187 ../DE2_115_SD_Card_Audio_Player_bsp/\libhal_bsp.a(altera_avalon_uart_write.o)
 .debug_abbrev  0x0000a5bf      0x17e ../DE2_115_SD_Card_Audio_Player_bsp/\libhal_bsp.a(alt_alarm_start.o)
 .debug_abbrev  0x0000a73d       0x6c ../DE2_115_SD_Card_Audio_Player_bsp/\libhal_bsp.a(alt_busy_sleep.o)
 .debug_abbrev  0x0000a7a9       0x7a ../DE2_115_SD_Card_Audio_Player_bsp/\libhal_bsp.a(alt_dcache_flush.o)
 .debug_abbrev  0x0000a823       0x57 ../DE2_115_SD_Card_Audio_Player_bsp/\libhal_bsp.a(alt_dcache_flush_all.o)
 .debug_abbrev  0x0000a87a       0xfb ../DE2_115_SD_Card_Audio_Player_bsp/\libhal_bsp.a(alt_dev_llist_insert.o)
 .debug_abbrev  0x0000a975       0x76 ../DE2_115_SD_Card_Audio_Player_bsp/\libhal_bsp.a(alt_do_ctors.o)
 .debug_abbrev  0x0000a9eb       0x76 ../DE2_115_SD_Card_Audio_Player_bsp/\libhal_bsp.a(alt_do_dtors.o)
 .debug_abbrev  0x0000aa61       0xcf ../DE2_115_SD_Card_Audio_Player_bsp/\libhal_bsp.a(alt_find_dev.o)
 .debug_abbrev  0x0000ab30       0xcf ../DE2_115_SD_Card_Audio_Player_bsp/\libhal_bsp.a(alt_find_file.o)
 .debug_abbrev  0x0000abff      0x121 ../DE2_115_SD_Card_Audio_Player_bsp/\libhal_bsp.a(alt_flash_dev.o)
 .debug_abbrev  0x0000ad20      0x106 ../DE2_115_SD_Card_Audio_Player_bsp/\libhal_bsp.a(alt_get_fd.o)
 .debug_abbrev  0x0000ae26       0x3f ../DE2_115_SD_Card_Audio_Player_bsp/\libhal_bsp.a(alt_icache_flush_all.o)
 .debug_abbrev  0x0000ae65      0x13d ../DE2_115_SD_Card_Audio_Player_bsp/\libhal_bsp.a(alt_iic.o)
 .debug_abbrev  0x0000afa2      0x14f ../DE2_115_SD_Card_Audio_Player_bsp/\libhal_bsp.a(alt_iic_isr_register.o)
 .debug_abbrev  0x0000b0f1       0xf7 ../DE2_115_SD_Card_Audio_Player_bsp/\libhal_bsp.a(alt_io_redirect.o)
 .debug_abbrev  0x0000b1e8       0x10 ../DE2_115_SD_Card_Audio_Player_bsp/\libhal_bsp.a(alt_irq_entry.o)
 .debug_abbrev  0x0000b1f8      0x104 ../DE2_115_SD_Card_Audio_Player_bsp/\libhal_bsp.a(alt_irq_handler.o)
 .debug_abbrev  0x0000b2fc       0x3f ../DE2_115_SD_Card_Audio_Player_bsp/\libhal_bsp.a(altera_nios2_qsys_irq.o)
 .debug_abbrev  0x0000b33b      0x151 ../DE2_115_SD_Card_Audio_Player_bsp/\libhal_bsp.a(altera_avalon_cfi_flash_amd.o)
 .debug_abbrev  0x0000b48c      0x151 ../DE2_115_SD_Card_Audio_Player_bsp/\libhal_bsp.a(altera_avalon_cfi_flash_intel.o)
 .debug_abbrev  0x0000b5dd       0x10 ../DE2_115_SD_Card_Audio_Player_bsp/\libhal_bsp.a(alt_exception_entry.o)
 .debug_abbrev  0x0000b5ed       0x7a ../DE2_115_SD_Card_Audio_Player_bsp/\libhal_bsp.a(alt_icache_flush.o)
 .debug_abbrev  0x0000b667       0xb7 c:/altera/10.0/nios2eds/bin/gnu/h-i686-mingw32/bin/../lib/gcc/nios2-elf/4.1.2/../../../../nios2-elf/lib\libc.a(lib_a-atexit.o)
 .debug_abbrev  0x0000b71e      0x16e c:/altera/10.0/nios2eds/bin/gnu/h-i686-mingw32/bin/../lib/gcc/nios2-elf/4.1.2/../../../../nios2-elf/lib\libc.a(lib_a-exit.o)
 .debug_abbrev  0x0000b88c       0x7c c:/altera/10.0/nios2eds/bin/gnu/h-i686-mingw32/bin/../lib/gcc/nios2-elf/4.1.2/../../../../nios2-elf/lib\libc.a(lib_a-memcmp.o)
 .debug_abbrev  0x0000b908      0x1ae c:/altera/10.0/nios2eds/bin/gnu/h-i686-mingw32/bin/../lib/gcc/nios2-elf/4.1.2/../../../../nios2-elf/lib\libc.a(lib_a-__atexit.o)
 .debug_abbrev  0x0000bab6      0x1de c:/altera/10.0/nios2eds/bin/gnu/h-i686-mingw32/bin/../lib/gcc/nios2-elf/4.1.2/../../../../nios2-elf/lib\libc.a(lib_a-__call_atexit.o)
 .debug_abbrev  0x0000bc94       0x72 ../DE2_115_SD_Card_Audio_Player_bsp/\libhal_bsp.a(alt_exit.o)

.debug_line     0x00000000    0x20731
 *(.debug_line)
 .debug_line    0x00000000       0x6f ../DE2_115_SD_Card_Audio_Player_bsp//obj/HAL/src/crt0.o
 .debug_line    0x0000006f     0x1067 obj/default/main.o
 .debug_line    0x000010d6      0xd0e obj/default/terasic_fat/FatFileSystem.o
 .debug_line    0x00001de4      0xc4e obj/default/terasic_fat/FatInternal.o
 .debug_line    0x00002a32      0x95a obj/default/terasic_lib/AUDIO.o
 .debug_line    0x0000338c      0x6cf obj/default/terasic_lib/I2C.o
 .debug_line    0x00003a5b      0x3a5 obj/default/terasic_lib/LCD.o
 .debug_line    0x00003e00      0x385 obj/default/terasic_lib/LED.o
 .debug_line    0x00004185      0x41e obj/default/terasic_lib/SEG7.o
 .debug_line    0x000045a3      0x509 obj/default/terasic_lib/WaveLib.o
 .debug_line    0x00004aac      0x39f obj/default/terasic_lib/debug.o
 .debug_line    0x00004e4b      0x331 obj/default/terasic_sdcard/crc16.o
 .debug_line    0x0000517c      0x340 obj/default/terasic_sdcard/crc7.o
 .debug_line    0x000054bc      0x6dc obj/default/terasic_sdcard/sd_hal.o
 .debug_line    0x00005b98      0x56d obj/default/terasic_sdcard/sd_lib.o
 .debug_line    0x00006105      0xe90 obj/default/terasic_sdcard/sd_protocol.o
 .debug_line    0x00006f95      0x2c1 c:/altera/10.0/nios2eds/bin/gnu/h-i686-mingw32/bin/../lib/gcc/nios2-elf/4.1.2\libgcc.a(_mul_sf.o)
 .debug_line    0x00007256      0x26a c:/altera/10.0/nios2eds/bin/gnu/h-i686-mingw32/bin/../lib/gcc/nios2-elf/4.1.2\libgcc.a(_div_sf.o)
 .debug_line    0x000074c0       0xd1 c:/altera/10.0/nios2eds/bin/gnu/h-i686-mingw32/bin/../lib/gcc/nios2-elf/4.1.2\libgcc.a(_sf_to_df.o)
 .debug_line    0x00007591       0x94 c:/altera/10.0/nios2eds/bin/gnu/h-i686-mingw32/bin/../lib/gcc/nios2-elf/4.1.2\libgcc.a(_thenan_sf.o)
 .debug_line    0x00007625      0x183 c:/altera/10.0/nios2eds/bin/gnu/h-i686-mingw32/bin/../lib/gcc/nios2-elf/4.1.2\libgcc.a(_usi_to_sf.o)
 .debug_line    0x000077a8      0x301 c:/altera/10.0/nios2eds/bin/gnu/h-i686-mingw32/bin/../lib/gcc/nios2-elf/4.1.2\libgcc.a(_div_df.o)
 .debug_line    0x00007aa9       0xe9 c:/altera/10.0/nios2eds/bin/gnu/h-i686-mingw32/bin/../lib/gcc/nios2-elf/4.1.2\libgcc.a(_make_df.o)
 .debug_line    0x00007b92      0x121 c:/altera/10.0/nios2eds/bin/gnu/h-i686-mingw32/bin/../lib/gcc/nios2-elf/4.1.2\libgcc.a(_df_to_sf.o)
 .debug_line    0x00007cb3       0x94 c:/altera/10.0/nios2eds/bin/gnu/h-i686-mingw32/bin/../lib/gcc/nios2-elf/4.1.2\libgcc.a(_thenan_df.o)
 .debug_line    0x00007d47      0x24f c:/altera/10.0/nios2eds/bin/gnu/h-i686-mingw32/bin/../lib/gcc/nios2-elf/4.1.2\libgcc.a(lib2-divmod.o)
 .debug_line    0x00007f96      0x11f c:/altera/10.0/nios2eds/bin/gnu/h-i686-mingw32/bin/../lib/gcc/nios2-elf/4.1.2\libgcc.a(_muldi3.o)
 .debug_line    0x000080b5      0x105 c:/altera/10.0/nios2eds/bin/gnu/h-i686-mingw32/bin/../lib/gcc/nios2-elf/4.1.2\libgcc.a(_clzsi2.o)
 .debug_line    0x000081ba      0x1ca c:/altera/10.0/nios2eds/bin/gnu/h-i686-mingw32/bin/../lib/gcc/nios2-elf/4.1.2\libgcc.a(_pack_sf.o)
 .debug_line    0x00008384      0x197 c:/altera/10.0/nios2eds/bin/gnu/h-i686-mingw32/bin/../lib/gcc/nios2-elf/4.1.2\libgcc.a(_unpack_sf.o)
 .debug_line    0x0000851b       0xe1 c:/altera/10.0/nios2eds/bin/gnu/h-i686-mingw32/bin/../lib/gcc/nios2-elf/4.1.2\libgcc.a(_make_sf.o)
 .debug_line    0x000085fc      0x222 c:/altera/10.0/nios2eds/bin/gnu/h-i686-mingw32/bin/../lib/gcc/nios2-elf/4.1.2\libgcc.a(_pack_df.o)
 .debug_line    0x0000881e      0x1e4 c:/altera/10.0/nios2eds/bin/gnu/h-i686-mingw32/bin/../lib/gcc/nios2-elf/4.1.2\libgcc.a(_unpack_df.o)
 .debug_line    0x00008a02       0xaa c:/altera/10.0/nios2eds/bin/gnu/h-i686-mingw32/bin/../lib/gcc/nios2-elf/4.1.2\libgcc.a(_clz.o)
 .debug_line    0x00008aac      0x2c4 c:/altera/10.0/nios2eds/bin/gnu/h-i686-mingw32/bin/../lib/gcc/nios2-elf/4.1.2/../../../../nios2-elf/lib\libc.a(lib_a-fclose.o)
 .debug_line    0x00008d70      0x3e9 c:/altera/10.0/nios2eds/bin/gnu/h-i686-mingw32/bin/../lib/gcc/nios2-elf/4.1.2/../../../../nios2-elf/lib\libc.a(lib_a-fflush.o)
 .debug_line    0x00009159      0x5dd c:/altera/10.0/nios2eds/bin/gnu/h-i686-mingw32/bin/../lib/gcc/nios2-elf/4.1.2/../../../../nios2-elf/lib\libc.a(lib_a-findfp.o)
 .debug_line    0x00009736      0x31e c:/altera/10.0/nios2eds/bin/gnu/h-i686-mingw32/bin/../lib/gcc/nios2-elf/4.1.2/../../../../nios2-elf/lib\libc.a(lib_a-fopen.o)
 .debug_line    0x00009a54      0x5c7 c:/altera/10.0/nios2eds/bin/gnu/h-i686-mingw32/bin/../lib/gcc/nios2-elf/4.1.2/../../../../nios2-elf/lib\libc.a(lib_a-freer.o)
 .debug_line    0x0000a01b      0x587 c:/altera/10.0/nios2eds/bin/gnu/h-i686-mingw32/bin/../lib/gcc/nios2-elf/4.1.2/../../../../nios2-elf/lib\libc.a(lib_a-fseek.o)
 .debug_line    0x0000a5a2      0x240 c:/altera/10.0/nios2eds/bin/gnu/h-i686-mingw32/bin/../lib/gcc/nios2-elf/4.1.2/../../../../nios2-elf/lib\libc.a(lib_a-fstatr.o)
 .debug_line    0x0000a7e2      0x326 c:/altera/10.0/nios2eds/bin/gnu/h-i686-mingw32/bin/../lib/gcc/nios2-elf/4.1.2/../../../../nios2-elf/lib\libc.a(lib_a-fwalk.o)
 .debug_line    0x0000ab08      0x2b5 c:/altera/10.0/nios2eds/bin/gnu/h-i686-mingw32/bin/../lib/gcc/nios2-elf/4.1.2/../../../../nios2-elf/lib\libc.a(lib_a-fwrite.o)
 .debug_line    0x0000adbd      0x1f7 c:/altera/10.0/nios2eds/bin/gnu/h-i686-mingw32/bin/../lib/gcc/nios2-elf/4.1.2/../../../../nios2-elf/lib\libc.a(lib_a-impure.o)
 .debug_line    0x0000afb4      0x1bb c:/altera/10.0/nios2eds/bin/gnu/h-i686-mingw32/bin/../lib/gcc/nios2-elf/4.1.2/../../../../nios2-elf/lib\libc.a(lib_a-int_errno.o)
 .debug_line    0x0000b16f      0x39f c:/altera/10.0/nios2eds/bin/gnu/h-i686-mingw32/bin/../lib/gcc/nios2-elf/4.1.2/../../../../nios2-elf/lib\libc.a(lib_a-makebuf.o)
 .debug_line    0x0000b50e      0x227 c:/altera/10.0/nios2eds/bin/gnu/h-i686-mingw32/bin/../lib/gcc/nios2-elf/4.1.2/../../../../nios2-elf/lib\libc.a(lib_a-malloc.o)
 .debug_line    0x0000b735      0x7e6 c:/altera/10.0/nios2eds/bin/gnu/h-i686-mingw32/bin/../lib/gcc/nios2-elf/4.1.2/../../../../nios2-elf/lib\libc.a(lib_a-mallocr.o)
 .debug_line    0x0000bf1b      0x19a c:/altera/10.0/nios2eds/bin/gnu/h-i686-mingw32/bin/../lib/gcc/nios2-elf/4.1.2/../../../../nios2-elf/lib\libc.a(lib_a-memcpy.o)
 .debug_line    0x0000c0b5      0x2cb c:/altera/10.0/nios2eds/bin/gnu/h-i686-mingw32/bin/../lib/gcc/nios2-elf/4.1.2/../../../../nios2-elf/lib\libc.a(lib_a-memset.o)
 .debug_line    0x0000c380      0x257 c:/altera/10.0/nios2eds/bin/gnu/h-i686-mingw32/bin/../lib/gcc/nios2-elf/4.1.2/../../../../nios2-elf/lib\libc.a(lib_a-openr.o)
 .debug_line    0x0000c5d7      0x277 c:/altera/10.0/nios2eds/bin/gnu/h-i686-mingw32/bin/../lib/gcc/nios2-elf/4.1.2/../../../../nios2-elf/lib\libc.a(lib_a-printf.o)
 .debug_line    0x0000c84e      0x240 c:/altera/10.0/nios2eds/bin/gnu/h-i686-mingw32/bin/../lib/gcc/nios2-elf/4.1.2/../../../../nios2-elf/lib\libc.a(lib_a-putchar.o)
 .debug_line    0x0000ca8e      0x2d3 c:/altera/10.0/nios2eds/bin/gnu/h-i686-mingw32/bin/../lib/gcc/nios2-elf/4.1.2/../../../../nios2-elf/lib\libc.a(lib_a-puts.o)
 .debug_line    0x0000cd61      0x3a0 c:/altera/10.0/nios2eds/bin/gnu/h-i686-mingw32/bin/../lib/gcc/nios2-elf/4.1.2/../../../../nios2-elf/lib\libc.a(lib_a-refill.o)
 .debug_line    0x0000d101      0x263 c:/altera/10.0/nios2eds/bin/gnu/h-i686-mingw32/bin/../lib/gcc/nios2-elf/4.1.2/../../../../nios2-elf/lib\libc.a(lib_a-sbrkr.o)
 .debug_line    0x0000d364      0x2fe c:/altera/10.0/nios2eds/bin/gnu/h-i686-mingw32/bin/../lib/gcc/nios2-elf/4.1.2/../../../../nios2-elf/lib\libc.a(lib_a-sprintf.o)
 .debug_line    0x0000d662      0x368 c:/altera/10.0/nios2eds/bin/gnu/h-i686-mingw32/bin/../lib/gcc/nios2-elf/4.1.2/../../../../nios2-elf/lib\libc.a(lib_a-stdio.o)
 .debug_line    0x0000d9ca      0x1eb c:/altera/10.0/nios2eds/bin/gnu/h-i686-mingw32/bin/../lib/gcc/nios2-elf/4.1.2/../../../../nios2-elf/lib\libc.a(lib_a-strcasecmp.o)
 .debug_line    0x0000dbb5      0x29f c:/altera/10.0/nios2eds/bin/gnu/h-i686-mingw32/bin/../lib/gcc/nios2-elf/4.1.2/../../../../nios2-elf/lib\libc.a(lib_a-strcmp.o)
 .debug_line    0x0000de54      0x251 c:/altera/10.0/nios2eds/bin/gnu/h-i686-mingw32/bin/../lib/gcc/nios2-elf/4.1.2/../../../../nios2-elf/lib\libc.a(lib_a-strcpy.o)
 .debug_line    0x0000e0a5      0x237 c:/altera/10.0/nios2eds/bin/gnu/h-i686-mingw32/bin/../lib/gcc/nios2-elf/4.1.2/../../../../nios2-elf/lib\libc.a(lib_a-strlen.o)
 .debug_line    0x0000e2dc      0xfe9 c:/altera/10.0/nios2eds/bin/gnu/h-i686-mingw32/bin/../lib/gcc/nios2-elf/4.1.2/../../../../nios2-elf/lib\libc.a(lib_a-vfprintf.o)
 .debug_line    0x0000f2c5      0x2f1 c:/altera/10.0/nios2eds/bin/gnu/h-i686-mingw32/bin/../lib/gcc/nios2-elf/4.1.2/../../../../nios2-elf/lib\libc.a(lib_a-vsnprintf.o)
 .debug_line    0x0000f5b6      0x264 c:/altera/10.0/nios2eds/bin/gnu/h-i686-mingw32/bin/../lib/gcc/nios2-elf/4.1.2/../../../../nios2-elf/lib\libc.a(lib_a-writer.o)
 .debug_line    0x0000f81a      0x2cc c:/altera/10.0/nios2eds/bin/gnu/h-i686-mingw32/bin/../lib/gcc/nios2-elf/4.1.2/../../../../nios2-elf/lib\libc.a(lib_a-wsetup.o)
 .debug_line    0x0000fae6      0x264 c:/altera/10.0/nios2eds/bin/gnu/h-i686-mingw32/bin/../lib/gcc/nios2-elf/4.1.2/../../../../nios2-elf/lib\libc.a(lib_a-closer.o)
 .debug_line    0x0000fd4a       0x7e c:/altera/10.0/nios2eds/bin/gnu/h-i686-mingw32/bin/../lib/gcc/nios2-elf/4.1.2/../../../../nios2-elf/lib\libc.a(lib_a-ctype_.o)
 .debug_line    0x0000fdc8     0x12a2 c:/altera/10.0/nios2eds/bin/gnu/h-i686-mingw32/bin/../lib/gcc/nios2-elf/4.1.2/../../../../nios2-elf/lib\libc.a(lib_a-dtoa.o)
 .debug_line    0x0001106a      0x272 c:/altera/10.0/nios2eds/bin/gnu/h-i686-mingw32/bin/../lib/gcc/nios2-elf/4.1.2/../../../../nios2-elf/lib\libc.a(lib_a-flags.o)
 .debug_line    0x000112dc      0x61d c:/altera/10.0/nios2eds/bin/gnu/h-i686-mingw32/bin/../lib/gcc/nios2-elf/4.1.2/../../../../nios2-elf/lib\libc.a(lib_a-fvwrite.o)
 .debug_line    0x000118f9      0x265 c:/altera/10.0/nios2eds/bin/gnu/h-i686-mingw32/bin/../lib/gcc/nios2-elf/4.1.2/../../../../nios2-elf/lib\libc.a(lib_a-isattyr.o)
 .debug_line    0x00011b5e      0x2a4 c:/altera/10.0/nios2eds/bin/gnu/h-i686-mingw32/bin/../lib/gcc/nios2-elf/4.1.2/../../../../nios2-elf/lib\libc.a(lib_a-locale.o)
 .debug_line    0x00011e02      0x264 c:/altera/10.0/nios2eds/bin/gnu/h-i686-mingw32/bin/../lib/gcc/nios2-elf/4.1.2/../../../../nios2-elf/lib\libc.a(lib_a-lseekr.o)
 .debug_line    0x00012066      0x2d5 c:/altera/10.0/nios2eds/bin/gnu/h-i686-mingw32/bin/../lib/gcc/nios2-elf/4.1.2/../../../../nios2-elf/lib\libc.a(lib_a-memchr.o)
 .debug_line    0x0001233b      0x2d4 c:/altera/10.0/nios2eds/bin/gnu/h-i686-mingw32/bin/../lib/gcc/nios2-elf/4.1.2/../../../../nios2-elf/lib\libc.a(lib_a-memmove.o)
 .debug_line    0x0001260f     0x1239 c:/altera/10.0/nios2eds/bin/gnu/h-i686-mingw32/bin/../lib/gcc/nios2-elf/4.1.2/../../../../nios2-elf/lib\libc.a(lib_a-mprec.o)
 .debug_line    0x00013848      0x2a0 c:/altera/10.0/nios2eds/bin/gnu/h-i686-mingw32/bin/../lib/gcc/nios2-elf/4.1.2/../../../../nios2-elf/lib\libc.a(lib_a-putc.o)
 .debug_line    0x00013ae8      0x263 c:/altera/10.0/nios2eds/bin/gnu/h-i686-mingw32/bin/../lib/gcc/nios2-elf/4.1.2/../../../../nios2-elf/lib\libc.a(lib_a-readr.o)
 .debug_line    0x00013d4b      0x554 c:/altera/10.0/nios2eds/bin/gnu/h-i686-mingw32/bin/../lib/gcc/nios2-elf/4.1.2/../../../../nios2-elf/lib\libc.a(lib_a-reallocr.o)
 .debug_line    0x0001429f      0x1fe c:/altera/10.0/nios2eds/bin/gnu/h-i686-mingw32/bin/../lib/gcc/nios2-elf/4.1.2/../../../../nios2-elf/lib\libc.a(lib_a-s_isinfd.o)
 .debug_line    0x0001449d      0x1f6 c:/altera/10.0/nios2eds/bin/gnu/h-i686-mingw32/bin/../lib/gcc/nios2-elf/4.1.2/../../../../nios2-elf/lib\libc.a(lib_a-s_isnand.o)
 .debug_line    0x00014693      0x32c c:/altera/10.0/nios2eds/bin/gnu/h-i686-mingw32/bin/../lib/gcc/nios2-elf/4.1.2/../../../../nios2-elf/lib\libc.a(lib_a-wbuf.o)
 .debug_line    0x000149bf      0x238 c:/altera/10.0/nios2eds/bin/gnu/h-i686-mingw32/bin/../lib/gcc/nios2-elf/4.1.2/../../../../nios2-elf/lib\libc.a(lib_a-callocr.o)
 .debug_line    0x00014bf7      0x430 c:/altera/10.0/nios2eds/bin/gnu/h-i686-mingw32/bin/../lib/gcc/nios2-elf/4.1.2\libgcc.a(_addsub_df.o)
 .debug_line    0x00015027      0x3e5 c:/altera/10.0/nios2eds/bin/gnu/h-i686-mingw32/bin/../lib/gcc/nios2-elf/4.1.2\libgcc.a(_mul_df.o)
 .debug_line    0x0001540c      0x129 c:/altera/10.0/nios2eds/bin/gnu/h-i686-mingw32/bin/../lib/gcc/nios2-elf/4.1.2\libgcc.a(_eq_df.o)
 .debug_line    0x00015535      0x129 c:/altera/10.0/nios2eds/bin/gnu/h-i686-mingw32/bin/../lib/gcc/nios2-elf/4.1.2\libgcc.a(_ne_df.o)
 .debug_line    0x0001565e      0x129 c:/altera/10.0/nios2eds/bin/gnu/h-i686-mingw32/bin/../lib/gcc/nios2-elf/4.1.2\libgcc.a(_gt_df.o)
 .debug_line    0x00015787      0x129 c:/altera/10.0/nios2eds/bin/gnu/h-i686-mingw32/bin/../lib/gcc/nios2-elf/4.1.2\libgcc.a(_ge_df.o)
 .debug_line    0x000158b0      0x129 c:/altera/10.0/nios2eds/bin/gnu/h-i686-mingw32/bin/../lib/gcc/nios2-elf/4.1.2\libgcc.a(_lt_df.o)
 .debug_line    0x000159d9      0x175 c:/altera/10.0/nios2eds/bin/gnu/h-i686-mingw32/bin/../lib/gcc/nios2-elf/4.1.2\libgcc.a(_si_to_df.o)
 .debug_line    0x00015b4e      0x149 c:/altera/10.0/nios2eds/bin/gnu/h-i686-mingw32/bin/../lib/gcc/nios2-elf/4.1.2\libgcc.a(_df_to_si.o)
 .debug_line    0x00015c97      0x189 c:/altera/10.0/nios2eds/bin/gnu/h-i686-mingw32/bin/../lib/gcc/nios2-elf/4.1.2\libgcc.a(_usi_to_df.o)
 .debug_line    0x00015e20      0x187 c:/altera/10.0/nios2eds/bin/gnu/h-i686-mingw32/bin/../lib/gcc/nios2-elf/4.1.2\libgcc.a(_fpcmp_parts_df.o)
 .debug_line    0x00015fa7      0x292 ../DE2_115_SD_Card_Audio_Player_bsp/\libhal_bsp.a(alt_close.o)
 .debug_line    0x00016239      0x26b ../DE2_115_SD_Card_Audio_Player_bsp/\libhal_bsp.a(alt_dev.o)
 .debug_line    0x000164a4      0x1a3 ../DE2_115_SD_Card_Audio_Player_bsp/\libhal_bsp.a(alt_errno.o)
 .debug_line    0x00016647      0x2bb ../DE2_115_SD_Card_Audio_Player_bsp/\libhal_bsp.a(alt_fstat.o)
 .debug_line    0x00016902      0x30c ../DE2_115_SD_Card_Audio_Player_bsp/\libhal_bsp.a(alt_irq_register.o)
 .debug_line    0x00016c0e       0x6f ../DE2_115_SD_Card_Audio_Player_bsp/\libhal_bsp.a(alt_irq_vars.o)
 .debug_line    0x00016c7d      0x2bc ../DE2_115_SD_Card_Audio_Player_bsp/\libhal_bsp.a(alt_isatty.o)
 .debug_line    0x00016f39      0x208 ../DE2_115_SD_Card_Audio_Player_bsp/\libhal_bsp.a(alt_load.o)
 .debug_line    0x00017141      0x29a ../DE2_115_SD_Card_Audio_Player_bsp/\libhal_bsp.a(alt_lseek.o)
 .debug_line    0x000173db      0x2e6 ../DE2_115_SD_Card_Audio_Player_bsp/\libhal_bsp.a(alt_main.o)
 .debug_line    0x000176c1      0x227 ../DE2_115_SD_Card_Audio_Player_bsp/\libhal_bsp.a(alt_malloc_lock.o)
 .debug_line    0x000178e8      0x2f8 ../DE2_115_SD_Card_Audio_Player_bsp/\libhal_bsp.a(alt_open.o)
 .debug_line    0x00017be0      0x2d9 ../DE2_115_SD_Card_Audio_Player_bsp/\libhal_bsp.a(alt_read.o)
 .debug_line    0x00017eb9       0xea ../DE2_115_SD_Card_Audio_Player_bsp/\libhal_bsp.a(alt_release_fd.o)
 .debug_line    0x00017fa3      0x262 ../DE2_115_SD_Card_Audio_Player_bsp/\libhal_bsp.a(alt_sbrk.o)
 .debug_line    0x00018205      0x2c7 ../DE2_115_SD_Card_Audio_Player_bsp/\libhal_bsp.a(alt_tick.o)
 .debug_line    0x000184cc      0x21a ../DE2_115_SD_Card_Audio_Player_bsp/\libhal_bsp.a(alt_usleep.o)
 .debug_line    0x000186e6      0x2da ../DE2_115_SD_Card_Audio_Player_bsp/\libhal_bsp.a(alt_write.o)
 .debug_line    0x000189c0      0x39a ../DE2_115_SD_Card_Audio_Player_bsp/\libhal_bsp.a(alt_sys_init.o)
 .debug_line    0x00018d5a      0x564 ../DE2_115_SD_Card_Audio_Player_bsp/\libhal_bsp.a(altera_avalon_cfi_flash.o)
 .debug_line    0x000192be      0x902 ../DE2_115_SD_Card_Audio_Player_bsp/\libhal_bsp.a(altera_avalon_cfi_flash_table.o)
 .debug_line    0x00019bc0      0x227 ../DE2_115_SD_Card_Audio_Player_bsp/\libhal_bsp.a(altera_avalon_jtag_uart_fd.o)
 .debug_line    0x00019de7      0x4e2 ../DE2_115_SD_Card_Audio_Player_bsp/\libhal_bsp.a(altera_avalon_jtag_uart_init.o)
 .debug_line    0x0001a2c9      0x307 ../DE2_115_SD_Card_Audio_Player_bsp/\libhal_bsp.a(altera_avalon_jtag_uart_ioctl.o)
 .debug_line    0x0001a5d0      0x412 ../DE2_115_SD_Card_Audio_Player_bsp/\libhal_bsp.a(altera_avalon_jtag_uart_read.o)
 .debug_line    0x0001a9e2      0x420 ../DE2_115_SD_Card_Audio_Player_bsp/\libhal_bsp.a(altera_avalon_jtag_uart_write.o)
 .debug_line    0x0001ae02      0x8d9 ../DE2_115_SD_Card_Audio_Player_bsp/\libhal_bsp.a(altera_avalon_lcd_16207.o)
 .debug_line    0x0001b6db      0x1c7 ../DE2_115_SD_Card_Audio_Player_bsp/\libhal_bsp.a(altera_avalon_lcd_16207_fd.o)
 .debug_line    0x0001b8a2      0x2b4 ../DE2_115_SD_Card_Audio_Player_bsp/\libhal_bsp.a(altera_avalon_timer_sc.o)
 .debug_line    0x0001bb56      0x1e2 ../DE2_115_SD_Card_Audio_Player_bsp/\libhal_bsp.a(altera_avalon_uart_fd.o)
 .debug_line    0x0001bd38      0x4b7 ../DE2_115_SD_Card_Audio_Player_bsp/\libhal_bsp.a(altera_avalon_uart_init.o)
 .debug_line    0x0001c1ef      0x433 ../DE2_115_SD_Card_Audio_Player_bsp/\libhal_bsp.a(altera_avalon_uart_read.o)
 .debug_line    0x0001c622      0x413 ../DE2_115_SD_Card_Audio_Player_bsp/\libhal_bsp.a(altera_avalon_uart_write.o)
 .debug_line    0x0001ca35      0x2d1 ../DE2_115_SD_Card_Audio_Player_bsp/\libhal_bsp.a(alt_alarm_start.o)
 .debug_line    0x0001cd06      0x1ea ../DE2_115_SD_Card_Audio_Player_bsp/\libhal_bsp.a(alt_busy_sleep.o)
 .debug_line    0x0001cef0      0x1da ../DE2_115_SD_Card_Audio_Player_bsp/\libhal_bsp.a(alt_dcache_flush.o)
 .debug_line    0x0001d0ca      0x1c6 ../DE2_115_SD_Card_Audio_Player_bsp/\libhal_bsp.a(alt_dcache_flush_all.o)
 .debug_line    0x0001d290      0x253 ../DE2_115_SD_Card_Audio_Player_bsp/\libhal_bsp.a(alt_dev_llist_insert.o)
 .debug_line    0x0001d4e3       0x80 ../DE2_115_SD_Card_Audio_Player_bsp/\libhal_bsp.a(alt_do_ctors.o)
 .debug_line    0x0001d563       0x80 ../DE2_115_SD_Card_Audio_Player_bsp/\libhal_bsp.a(alt_do_dtors.o)
 .debug_line    0x0001d5e3      0x25a ../DE2_115_SD_Card_Audio_Player_bsp/\libhal_bsp.a(alt_find_dev.o)
 .debug_line    0x0001d83d      0x26b ../DE2_115_SD_Card_Audio_Player_bsp/\libhal_bsp.a(alt_find_file.o)
 .debug_line    0x0001daa8      0x261 ../DE2_115_SD_Card_Audio_Player_bsp/\libhal_bsp.a(alt_flash_dev.o)
 .debug_line    0x0001dd09      0x2a8 ../DE2_115_SD_Card_Audio_Player_bsp/\libhal_bsp.a(alt_get_fd.o)
 .debug_line    0x0001dfb1      0x1b6 ../DE2_115_SD_Card_Audio_Player_bsp/\libhal_bsp.a(alt_icache_flush_all.o)
 .debug_line    0x0001e167      0x2d7 ../DE2_115_SD_Card_Audio_Player_bsp/\libhal_bsp.a(alt_iic.o)
 .debug_line    0x0001e43e      0x242 ../DE2_115_SD_Card_Audio_Player_bsp/\libhal_bsp.a(alt_iic_isr_register.o)
 .debug_line    0x0001e680      0x2c9 ../DE2_115_SD_Card_Audio_Player_bsp/\libhal_bsp.a(alt_io_redirect.o)
 .debug_line    0x0001e949       0x68 ../DE2_115_SD_Card_Audio_Player_bsp/\libhal_bsp.a(alt_irq_entry.o)
 .debug_line    0x0001e9b1      0x239 ../DE2_115_SD_Card_Audio_Player_bsp/\libhal_bsp.a(alt_irq_handler.o)
 .debug_line    0x0001ebea      0x1c7 ../DE2_115_SD_Card_Audio_Player_bsp/\libhal_bsp.a(altera_nios2_qsys_irq.o)
 .debug_line    0x0001edb1      0x42e ../DE2_115_SD_Card_Audio_Player_bsp/\libhal_bsp.a(altera_avalon_cfi_flash_amd.o)
 .debug_line    0x0001f1df      0x440 ../DE2_115_SD_Card_Audio_Player_bsp/\libhal_bsp.a(altera_avalon_cfi_flash_intel.o)
 .debug_line    0x0001f61f       0xa8 ../DE2_115_SD_Card_Audio_Player_bsp/\libhal_bsp.a(alt_exception_entry.o)
 .debug_line    0x0001f6c7      0x1f2 ../DE2_115_SD_Card_Audio_Player_bsp/\libhal_bsp.a(alt_icache_flush.o)
 .debug_line    0x0001f8b9      0x1dc c:/altera/10.0/nios2eds/bin/gnu/h-i686-mingw32/bin/../lib/gcc/nios2-elf/4.1.2/../../../../nios2-elf/lib\libc.a(lib_a-atexit.o)
 .debug_line    0x0001fa95      0x214 c:/altera/10.0/nios2eds/bin/gnu/h-i686-mingw32/bin/../lib/gcc/nios2-elf/4.1.2/../../../../nios2-elf/lib\libc.a(lib_a-exit.o)
 .debug_line    0x0001fca9      0x269 c:/altera/10.0/nios2eds/bin/gnu/h-i686-mingw32/bin/../lib/gcc/nios2-elf/4.1.2/../../../../nios2-elf/lib\libc.a(lib_a-memcmp.o)
 .debug_line    0x0001ff12      0x2ef c:/altera/10.0/nios2eds/bin/gnu/h-i686-mingw32/bin/../lib/gcc/nios2-elf/4.1.2/../../../../nios2-elf/lib\libc.a(lib_a-__atexit.o)
 .debug_line    0x00020201      0x331 c:/altera/10.0/nios2eds/bin/gnu/h-i686-mingw32/bin/../lib/gcc/nios2-elf/4.1.2/../../../../nios2-elf/lib\libc.a(lib_a-__call_atexit.o)
 .debug_line    0x00020532      0x1ff ../DE2_115_SD_Card_Audio_Player_bsp/\libhal_bsp.a(alt_exit.o)

.debug_frame    0x00000000     0x33a4
 *(.debug_frame)
 .debug_frame   0x00000000      0x230 obj/default/main.o
 .debug_frame   0x00000230      0x1c4 obj/default/terasic_fat/FatFileSystem.o
 .debug_frame   0x000003f4      0x234 obj/default/terasic_fat/FatInternal.o
 .debug_frame   0x00000628      0x25c obj/default/terasic_lib/AUDIO.o
 .debug_frame   0x00000884       0xd4 obj/default/terasic_lib/I2C.o
 .debug_frame   0x00000958       0x80 obj/default/terasic_lib/LCD.o
 .debug_frame   0x000009d8       0x80 obj/default/terasic_lib/LED.o
 .debug_frame   0x00000a58       0x9c obj/default/terasic_lib/SEG7.o
 .debug_frame   0x00000af4       0xd4 obj/default/terasic_lib/WaveLib.o
 .debug_frame   0x00000bc8       0x84 obj/default/terasic_lib/debug.o
 .debug_frame   0x00000c4c       0x2c obj/default/terasic_sdcard/crc16.o
 .debug_frame   0x00000c78       0x48 obj/default/terasic_sdcard/crc7.o
 .debug_frame   0x00000cc0       0xd4 obj/default/terasic_sdcard/sd_hal.o
 .debug_frame   0x00000d94       0x64 obj/default/terasic_sdcard/sd_lib.o
 .debug_frame   0x00000df8      0x224 obj/default/terasic_sdcard/sd_protocol.o
 .debug_frame   0x0000101c       0x2c c:/altera/10.0/nios2eds/bin/gnu/h-i686-mingw32/bin/../lib/gcc/nios2-elf/4.1.2\libgcc.a(_mul_sf.o)
 .debug_frame   0x00001048       0x2c c:/altera/10.0/nios2eds/bin/gnu/h-i686-mingw32/bin/../lib/gcc/nios2-elf/4.1.2\libgcc.a(_div_sf.o)
 .debug_frame   0x00001074       0x28 c:/altera/10.0/nios2eds/bin/gnu/h-i686-mingw32/bin/../lib/gcc/nios2-elf/4.1.2\libgcc.a(_sf_to_df.o)
 .debug_frame   0x0000109c       0x2c c:/altera/10.0/nios2eds/bin/gnu/h-i686-mingw32/bin/../lib/gcc/nios2-elf/4.1.2\libgcc.a(_usi_to_sf.o)
 .debug_frame   0x000010c8       0x30 c:/altera/10.0/nios2eds/bin/gnu/h-i686-mingw32/bin/../lib/gcc/nios2-elf/4.1.2\libgcc.a(_div_df.o)
 .debug_frame   0x000010f8       0x28 c:/altera/10.0/nios2eds/bin/gnu/h-i686-mingw32/bin/../lib/gcc/nios2-elf/4.1.2\libgcc.a(_make_df.o)
 .debug_frame   0x00001120       0x28 c:/altera/10.0/nios2eds/bin/gnu/h-i686-mingw32/bin/../lib/gcc/nios2-elf/4.1.2\libgcc.a(_df_to_sf.o)
 .debug_frame   0x00001148       0x70 c:/altera/10.0/nios2eds/bin/gnu/h-i686-mingw32/bin/../lib/gcc/nios2-elf/4.1.2\libgcc.a(lib2-divmod.o)
 .debug_frame   0x000011b8       0x2c c:/altera/10.0/nios2eds/bin/gnu/h-i686-mingw32/bin/../lib/gcc/nios2-elf/4.1.2\libgcc.a(_muldi3.o)
 .debug_frame   0x000011e4       0x20 c:/altera/10.0/nios2eds/bin/gnu/h-i686-mingw32/bin/../lib/gcc/nios2-elf/4.1.2\libgcc.a(_clzsi2.o)
 .debug_frame   0x00001204       0x20 c:/altera/10.0/nios2eds/bin/gnu/h-i686-mingw32/bin/../lib/gcc/nios2-elf/4.1.2\libgcc.a(_pack_sf.o)
 .debug_frame   0x00001224       0x20 c:/altera/10.0/nios2eds/bin/gnu/h-i686-mingw32/bin/../lib/gcc/nios2-elf/4.1.2\libgcc.a(_unpack_sf.o)
 .debug_frame   0x00001244       0x28 c:/altera/10.0/nios2eds/bin/gnu/h-i686-mingw32/bin/../lib/gcc/nios2-elf/4.1.2\libgcc.a(_make_sf.o)
 .debug_frame   0x0000126c       0x2c c:/altera/10.0/nios2eds/bin/gnu/h-i686-mingw32/bin/../lib/gcc/nios2-elf/4.1.2\libgcc.a(_pack_df.o)
 .debug_frame   0x00001298       0x20 c:/altera/10.0/nios2eds/bin/gnu/h-i686-mingw32/bin/../lib/gcc/nios2-elf/4.1.2\libgcc.a(_unpack_df.o)
 .debug_frame   0x000012b8       0x3c c:/altera/10.0/nios2eds/bin/gnu/h-i686-mingw32/bin/../lib/gcc/nios2-elf/4.1.2/../../../../nios2-elf/lib\libc.a(lib_a-fclose.o)
 .debug_frame   0x000012f4       0x40 c:/altera/10.0/nios2eds/bin/gnu/h-i686-mingw32/bin/../lib/gcc/nios2-elf/4.1.2/../../../../nios2-elf/lib\libc.a(lib_a-fflush.o)
 .debug_frame   0x00001334      0x118 c:/altera/10.0/nios2eds/bin/gnu/h-i686-mingw32/bin/../lib/gcc/nios2-elf/4.1.2/../../../../nios2-elf/lib\libc.a(lib_a-findfp.o)
 .debug_frame   0x0000144c       0x40 c:/altera/10.0/nios2eds/bin/gnu/h-i686-mingw32/bin/../lib/gcc/nios2-elf/4.1.2/../../../../nios2-elf/lib\libc.a(lib_a-fopen.o)
 .debug_frame   0x0000148c       0x4c c:/altera/10.0/nios2eds/bin/gnu/h-i686-mingw32/bin/../lib/gcc/nios2-elf/4.1.2/../../../../nios2-elf/lib\libc.a(lib_a-freer.o)
 .debug_frame   0x000014d8       0x48 c:/altera/10.0/nios2eds/bin/gnu/h-i686-mingw32/bin/../lib/gcc/nios2-elf/4.1.2/../../../../nios2-elf/lib\libc.a(lib_a-fseek.o)
 .debug_frame   0x00001520       0x2c c:/altera/10.0/nios2eds/bin/gnu/h-i686-mingw32/bin/../lib/gcc/nios2-elf/4.1.2/../../../../nios2-elf/lib\libc.a(lib_a-fstatr.o)
 .debug_frame   0x0000154c       0x60 c:/altera/10.0/nios2eds/bin/gnu/h-i686-mingw32/bin/../lib/gcc/nios2-elf/4.1.2/../../../../nios2-elf/lib\libc.a(lib_a-fwalk.o)
 .debug_frame   0x000015ac       0x48 c:/altera/10.0/nios2eds/bin/gnu/h-i686-mingw32/bin/../lib/gcc/nios2-elf/4.1.2/../../../../nios2-elf/lib\libc.a(lib_a-fwrite.o)
 .debug_frame   0x000015f4       0x2c c:/altera/10.0/nios2eds/bin/gnu/h-i686-mingw32/bin/../lib/gcc/nios2-elf/4.1.2/../../../../nios2-elf/lib\libc.a(lib_a-makebuf.o)
 .debug_frame   0x00001620       0x30 c:/altera/10.0/nios2eds/bin/gnu/h-i686-mingw32/bin/../lib/gcc/nios2-elf/4.1.2/../../../../nios2-elf/lib\libc.a(lib_a-malloc.o)
 .debug_frame   0x00001650       0x38 c:/altera/10.0/nios2eds/bin/gnu/h-i686-mingw32/bin/../lib/gcc/nios2-elf/4.1.2/../../../../nios2-elf/lib\libc.a(lib_a-mallocr.o)
 .debug_frame   0x00001688       0x20 c:/altera/10.0/nios2eds/bin/gnu/h-i686-mingw32/bin/../lib/gcc/nios2-elf/4.1.2/../../../../nios2-elf/lib\libc.a(lib_a-memcpy.o)
 .debug_frame   0x000016a8       0x20 c:/altera/10.0/nios2eds/bin/gnu/h-i686-mingw32/bin/../lib/gcc/nios2-elf/4.1.2/../../../../nios2-elf/lib\libc.a(lib_a-memset.o)
 .debug_frame   0x000016c8       0x2c c:/altera/10.0/nios2eds/bin/gnu/h-i686-mingw32/bin/../lib/gcc/nios2-elf/4.1.2/../../../../nios2-elf/lib\libc.a(lib_a-openr.o)
 .debug_frame   0x000016f4       0x40 c:/altera/10.0/nios2eds/bin/gnu/h-i686-mingw32/bin/../lib/gcc/nios2-elf/4.1.2/../../../../nios2-elf/lib\libc.a(lib_a-printf.o)
 .debug_frame   0x00001734       0x30 c:/altera/10.0/nios2eds/bin/gnu/h-i686-mingw32/bin/../lib/gcc/nios2-elf/4.1.2/../../../../nios2-elf/lib\libc.a(lib_a-putchar.o)
 .debug_frame   0x00001764       0x3c c:/altera/10.0/nios2eds/bin/gnu/h-i686-mingw32/bin/../lib/gcc/nios2-elf/4.1.2/../../../../nios2-elf/lib\libc.a(lib_a-puts.o)
 .debug_frame   0x000017a0       0x3c c:/altera/10.0/nios2eds/bin/gnu/h-i686-mingw32/bin/../lib/gcc/nios2-elf/4.1.2/../../../../nios2-elf/lib\libc.a(lib_a-refill.o)
 .debug_frame   0x000017dc       0x2c c:/altera/10.0/nios2eds/bin/gnu/h-i686-mingw32/bin/../lib/gcc/nios2-elf/4.1.2/../../../../nios2-elf/lib\libc.a(lib_a-sbrkr.o)
 .debug_frame   0x00001808       0x40 c:/altera/10.0/nios2eds/bin/gnu/h-i686-mingw32/bin/../lib/gcc/nios2-elf/4.1.2/../../../../nios2-elf/lib\libc.a(lib_a-sprintf.o)
 .debug_frame   0x00001848       0x78 c:/altera/10.0/nios2eds/bin/gnu/h-i686-mingw32/bin/../lib/gcc/nios2-elf/4.1.2/../../../../nios2-elf/lib\libc.a(lib_a-stdio.o)
 .debug_frame   0x000018c0       0x20 c:/altera/10.0/nios2eds/bin/gnu/h-i686-mingw32/bin/../lib/gcc/nios2-elf/4.1.2/../../../../nios2-elf/lib\libc.a(lib_a-strcasecmp.o)
 .debug_frame   0x000018e0       0x20 c:/altera/10.0/nios2eds/bin/gnu/h-i686-mingw32/bin/../lib/gcc/nios2-elf/4.1.2/../../../../nios2-elf/lib\libc.a(lib_a-strcmp.o)
 .debug_frame   0x00001900       0x20 c:/altera/10.0/nios2eds/bin/gnu/h-i686-mingw32/bin/../lib/gcc/nios2-elf/4.1.2/../../../../nios2-elf/lib\libc.a(lib_a-strcpy.o)
 .debug_frame   0x00001920       0x20 c:/altera/10.0/nios2eds/bin/gnu/h-i686-mingw32/bin/../lib/gcc/nios2-elf/4.1.2/../../../../nios2-elf/lib\libc.a(lib_a-strlen.o)
 .debug_frame   0x00001940       0x64 c:/altera/10.0/nios2eds/bin/gnu/h-i686-mingw32/bin/../lib/gcc/nios2-elf/4.1.2/../../../../nios2-elf/lib\libc.a(lib_a-vfprintf.o)
 .debug_frame   0x000019a4       0x44 c:/altera/10.0/nios2eds/bin/gnu/h-i686-mingw32/bin/../lib/gcc/nios2-elf/4.1.2/../../../../nios2-elf/lib\libc.a(lib_a-vsnprintf.o)
 .debug_frame   0x000019e8       0x2c c:/altera/10.0/nios2eds/bin/gnu/h-i686-mingw32/bin/../lib/gcc/nios2-elf/4.1.2/../../../../nios2-elf/lib\libc.a(lib_a-writer.o)
 .debug_frame   0x00001a14       0x2c c:/altera/10.0/nios2eds/bin/gnu/h-i686-mingw32/bin/../lib/gcc/nios2-elf/4.1.2/../../../../nios2-elf/lib\libc.a(lib_a-wsetup.o)
 .debug_frame   0x00001a40       0x2c c:/altera/10.0/nios2eds/bin/gnu/h-i686-mingw32/bin/../lib/gcc/nios2-elf/4.1.2/../../../../nios2-elf/lib\libc.a(lib_a-closer.o)
 .debug_frame   0x00001a6c       0x64 c:/altera/10.0/nios2eds/bin/gnu/h-i686-mingw32/bin/../lib/gcc/nios2-elf/4.1.2/../../../../nios2-elf/lib\libc.a(lib_a-dtoa.o)
 .debug_frame   0x00001ad0       0x20 c:/altera/10.0/nios2eds/bin/gnu/h-i686-mingw32/bin/../lib/gcc/nios2-elf/4.1.2/../../../../nios2-elf/lib\libc.a(lib_a-flags.o)
 .debug_frame   0x00001af0       0x38 c:/altera/10.0/nios2eds/bin/gnu/h-i686-mingw32/bin/../lib/gcc/nios2-elf/4.1.2/../../../../nios2-elf/lib\libc.a(lib_a-fvwrite.o)
 .debug_frame   0x00001b28       0x2c c:/altera/10.0/nios2eds/bin/gnu/h-i686-mingw32/bin/../lib/gcc/nios2-elf/4.1.2/../../../../nios2-elf/lib\libc.a(lib_a-isattyr.o)
 .debug_frame   0x00001b54       0x70 c:/altera/10.0/nios2eds/bin/gnu/h-i686-mingw32/bin/../lib/gcc/nios2-elf/4.1.2/../../../../nios2-elf/lib\libc.a(lib_a-locale.o)
 .debug_frame   0x00001bc4       0x2c c:/altera/10.0/nios2eds/bin/gnu/h-i686-mingw32/bin/../lib/gcc/nios2-elf/4.1.2/../../../../nios2-elf/lib\libc.a(lib_a-lseekr.o)
 .debug_frame   0x00001bf0       0x20 c:/altera/10.0/nios2eds/bin/gnu/h-i686-mingw32/bin/../lib/gcc/nios2-elf/4.1.2/../../../../nios2-elf/lib\libc.a(lib_a-memchr.o)
 .debug_frame   0x00001c10       0x20 c:/altera/10.0/nios2eds/bin/gnu/h-i686-mingw32/bin/../lib/gcc/nios2-elf/4.1.2/../../../../nios2-elf/lib\libc.a(lib_a-memmove.o)
 .debug_frame   0x00001c30      0x21c c:/altera/10.0/nios2eds/bin/gnu/h-i686-mingw32/bin/../lib/gcc/nios2-elf/4.1.2/../../../../nios2-elf/lib\libc.a(lib_a-mprec.o)
 .debug_frame   0x00001e4c       0x4c c:/altera/10.0/nios2eds/bin/gnu/h-i686-mingw32/bin/../lib/gcc/nios2-elf/4.1.2/../../../../nios2-elf/lib\libc.a(lib_a-putc.o)
 .debug_frame   0x00001e98       0x2c c:/altera/10.0/nios2eds/bin/gnu/h-i686-mingw32/bin/../lib/gcc/nios2-elf/4.1.2/../../../../nios2-elf/lib\libc.a(lib_a-readr.o)
 .debug_frame   0x00001ec4       0x38 c:/altera/10.0/nios2eds/bin/gnu/h-i686-mingw32/bin/../lib/gcc/nios2-elf/4.1.2/../../../../nios2-elf/lib\libc.a(lib_a-reallocr.o)
 .debug_frame   0x00001efc       0x20 c:/altera/10.0/nios2eds/bin/gnu/h-i686-mingw32/bin/../lib/gcc/nios2-elf/4.1.2/../../../../nios2-elf/lib\libc.a(lib_a-s_isinfd.o)
 .debug_frame   0x00001f1c       0x20 c:/altera/10.0/nios2eds/bin/gnu/h-i686-mingw32/bin/../lib/gcc/nios2-elf/4.1.2/../../../../nios2-elf/lib\libc.a(lib_a-s_isnand.o)
 .debug_frame   0x00001f3c       0x3c c:/altera/10.0/nios2eds/bin/gnu/h-i686-mingw32/bin/../lib/gcc/nios2-elf/4.1.2/../../../../nios2-elf/lib\libc.a(lib_a-wbuf.o)
 .debug_frame   0x00001f78       0x28 c:/altera/10.0/nios2eds/bin/gnu/h-i686-mingw32/bin/../lib/gcc/nios2-elf/4.1.2/../../../../nios2-elf/lib\libc.a(lib_a-callocr.o)
 .debug_frame   0x00001fa0       0x70 c:/altera/10.0/nios2eds/bin/gnu/h-i686-mingw32/bin/../lib/gcc/nios2-elf/4.1.2\libgcc.a(_addsub_df.o)
 .debug_frame   0x00002010       0x3c c:/altera/10.0/nios2eds/bin/gnu/h-i686-mingw32/bin/../lib/gcc/nios2-elf/4.1.2\libgcc.a(_mul_df.o)
 .debug_frame   0x0000204c       0x2c c:/altera/10.0/nios2eds/bin/gnu/h-i686-mingw32/bin/../lib/gcc/nios2-elf/4.1.2\libgcc.a(_eq_df.o)
 .debug_frame   0x00002078       0x2c c:/altera/10.0/nios2eds/bin/gnu/h-i686-mingw32/bin/../lib/gcc/nios2-elf/4.1.2\libgcc.a(_ne_df.o)
 .debug_frame   0x000020a4       0x2c c:/altera/10.0/nios2eds/bin/gnu/h-i686-mingw32/bin/../lib/gcc/nios2-elf/4.1.2\libgcc.a(_gt_df.o)
 .debug_frame   0x000020d0       0x2c c:/altera/10.0/nios2eds/bin/gnu/h-i686-mingw32/bin/../lib/gcc/nios2-elf/4.1.2\libgcc.a(_ge_df.o)
 .debug_frame   0x000020fc       0x2c c:/altera/10.0/nios2eds/bin/gnu/h-i686-mingw32/bin/../lib/gcc/nios2-elf/4.1.2\libgcc.a(_lt_df.o)
 .debug_frame   0x00002128       0x30 c:/altera/10.0/nios2eds/bin/gnu/h-i686-mingw32/bin/../lib/gcc/nios2-elf/4.1.2\libgcc.a(_si_to_df.o)
 .debug_frame   0x00002158       0x28 c:/altera/10.0/nios2eds/bin/gnu/h-i686-mingw32/bin/../lib/gcc/nios2-elf/4.1.2\libgcc.a(_df_to_si.o)
 .debug_frame   0x00002180       0x38 c:/altera/10.0/nios2eds/bin/gnu/h-i686-mingw32/bin/../lib/gcc/nios2-elf/4.1.2\libgcc.a(_usi_to_df.o)
 .debug_frame   0x000021b8       0x20 c:/altera/10.0/nios2eds/bin/gnu/h-i686-mingw32/bin/../lib/gcc/nios2-elf/4.1.2\libgcc.a(_fpcmp_parts_df.o)
 .debug_frame   0x000021d8       0x48 ../DE2_115_SD_Card_Audio_Player_bsp/\libhal_bsp.a(alt_close.o)
 .debug_frame   0x00002220       0x2c ../DE2_115_SD_Card_Audio_Player_bsp/\libhal_bsp.a(alt_dev.o)
 .debug_frame   0x0000224c       0x48 ../DE2_115_SD_Card_Audio_Player_bsp/\libhal_bsp.a(alt_fstat.o)
 .debug_frame   0x00002294       0x2c ../DE2_115_SD_Card_Audio_Player_bsp/\libhal_bsp.a(alt_irq_register.o)
 .debug_frame   0x000022c0       0x48 ../DE2_115_SD_Card_Audio_Player_bsp/\libhal_bsp.a(alt_isatty.o)
 .debug_frame   0x00002308       0x48 ../DE2_115_SD_Card_Audio_Player_bsp/\libhal_bsp.a(alt_load.o)
 .debug_frame   0x00002350       0x48 ../DE2_115_SD_Card_Audio_Player_bsp/\libhal_bsp.a(alt_lseek.o)
 .debug_frame   0x00002398       0x2c ../DE2_115_SD_Card_Audio_Player_bsp/\libhal_bsp.a(alt_main.o)
 .debug_frame   0x000023c4       0x48 ../DE2_115_SD_Card_Audio_Player_bsp/\libhal_bsp.a(alt_malloc_lock.o)
 .debug_frame   0x0000240c       0x64 ../DE2_115_SD_Card_Audio_Player_bsp/\libhal_bsp.a(alt_open.o)
 .debug_frame   0x00002470       0x48 ../DE2_115_SD_Card_Audio_Player_bsp/\libhal_bsp.a(alt_read.o)
 .debug_frame   0x000024b8       0x2c ../DE2_115_SD_Card_Audio_Player_bsp/\libhal_bsp.a(alt_release_fd.o)
 .debug_frame   0x000024e4       0x2c ../DE2_115_SD_Card_Audio_Player_bsp/\libhal_bsp.a(alt_sbrk.o)
 .debug_frame   0x00002510       0x48 ../DE2_115_SD_Card_Audio_Player_bsp/\libhal_bsp.a(alt_tick.o)
 .debug_frame   0x00002558       0x2c ../DE2_115_SD_Card_Audio_Player_bsp/\libhal_bsp.a(alt_usleep.o)
 .debug_frame   0x00002584       0x48 ../DE2_115_SD_Card_Audio_Player_bsp/\libhal_bsp.a(alt_write.o)
 .debug_frame   0x000025cc       0x64 ../DE2_115_SD_Card_Audio_Player_bsp/\libhal_bsp.a(alt_sys_init.o)
 .debug_frame   0x00002630       0xd4 ../DE2_115_SD_Card_Audio_Player_bsp/\libhal_bsp.a(altera_avalon_cfi_flash.o)
 .debug_frame   0x00002704      0x210 ../DE2_115_SD_Card_Audio_Player_bsp/\libhal_bsp.a(altera_avalon_cfi_flash_table.o)
 .debug_frame   0x00002914       0x80 ../DE2_115_SD_Card_Audio_Player_bsp/\libhal_bsp.a(altera_avalon_jtag_uart_fd.o)
 .debug_frame   0x00002994       0x80 ../DE2_115_SD_Card_Audio_Player_bsp/\libhal_bsp.a(altera_avalon_jtag_uart_init.o)
 .debug_frame   0x00002a14       0x2c ../DE2_115_SD_Card_Audio_Player_bsp/\libhal_bsp.a(altera_avalon_jtag_uart_ioctl.o)
 .debug_frame   0x00002a40       0x2c ../DE2_115_SD_Card_Audio_Player_bsp/\libhal_bsp.a(altera_avalon_jtag_uart_read.o)
 .debug_frame   0x00002a6c       0x2c ../DE2_115_SD_Card_Audio_Player_bsp/\libhal_bsp.a(altera_avalon_jtag_uart_write.o)
 .debug_frame   0x00002a98      0x118 ../DE2_115_SD_Card_Audio_Player_bsp/\libhal_bsp.a(altera_avalon_lcd_16207.o)
 .debug_frame   0x00002bb0       0x2c ../DE2_115_SD_Card_Audio_Player_bsp/\libhal_bsp.a(altera_avalon_lcd_16207_fd.o)
 .debug_frame   0x00002bdc       0x48 ../DE2_115_SD_Card_Audio_Player_bsp/\libhal_bsp.a(altera_avalon_timer_sc.o)
 .debug_frame   0x00002c24       0x64 ../DE2_115_SD_Card_Audio_Player_bsp/\libhal_bsp.a(altera_avalon_uart_fd.o)
 .debug_frame   0x00002c88       0x9c ../DE2_115_SD_Card_Audio_Player_bsp/\libhal_bsp.a(altera_avalon_uart_init.o)
 .debug_frame   0x00002d24       0x48 ../DE2_115_SD_Card_Audio_Player_bsp/\libhal_bsp.a(altera_avalon_uart_read.o)
 .debug_frame   0x00002d6c       0x48 ../DE2_115_SD_Card_Audio_Player_bsp/\libhal_bsp.a(altera_avalon_uart_write.o)
 .debug_frame   0x00002db4       0x2c ../DE2_115_SD_Card_Audio_Player_bsp/\libhal_bsp.a(alt_alarm_start.o)
 .debug_frame   0x00002de0       0x2c ../DE2_115_SD_Card_Audio_Player_bsp/\libhal_bsp.a(alt_busy_sleep.o)
 .debug_frame   0x00002e0c       0x2c ../DE2_115_SD_Card_Audio_Player_bsp/\libhal_bsp.a(alt_dcache_flush.o)
 .debug_frame   0x00002e38       0x2c ../DE2_115_SD_Card_Audio_Player_bsp/\libhal_bsp.a(alt_dcache_flush_all.o)
 .debug_frame   0x00002e64       0x48 ../DE2_115_SD_Card_Audio_Player_bsp/\libhal_bsp.a(alt_dev_llist_insert.o)
 .debug_frame   0x00002eac       0x2c ../DE2_115_SD_Card_Audio_Player_bsp/\libhal_bsp.a(alt_do_ctors.o)
 .debug_frame   0x00002ed8       0x2c ../DE2_115_SD_Card_Audio_Player_bsp/\libhal_bsp.a(alt_do_dtors.o)
 .debug_frame   0x00002f04       0x2c ../DE2_115_SD_Card_Audio_Player_bsp/\libhal_bsp.a(alt_find_dev.o)
 .debug_frame   0x00002f30       0x2c ../DE2_115_SD_Card_Audio_Player_bsp/\libhal_bsp.a(alt_find_file.o)
 .debug_frame   0x00002f5c       0x48 ../DE2_115_SD_Card_Audio_Player_bsp/\libhal_bsp.a(alt_flash_dev.o)
 .debug_frame   0x00002fa4       0x2c ../DE2_115_SD_Card_Audio_Player_bsp/\libhal_bsp.a(alt_get_fd.o)
 .debug_frame   0x00002fd0       0x2c ../DE2_115_SD_Card_Audio_Player_bsp/\libhal_bsp.a(alt_icache_flush_all.o)
 .debug_frame   0x00002ffc       0x80 ../DE2_115_SD_Card_Audio_Player_bsp/\libhal_bsp.a(alt_iic.o)
 .debug_frame   0x0000307c       0x2c ../DE2_115_SD_Card_Audio_Player_bsp/\libhal_bsp.a(alt_iic_isr_register.o)
 .debug_frame   0x000030a8       0x48 ../DE2_115_SD_Card_Audio_Player_bsp/\libhal_bsp.a(alt_io_redirect.o)
 .debug_frame   0x000030f0       0x2c ../DE2_115_SD_Card_Audio_Player_bsp/\libhal_bsp.a(alt_irq_handler.o)
 .debug_frame   0x0000311c       0x2c ../DE2_115_SD_Card_Audio_Player_bsp/\libhal_bsp.a(altera_nios2_qsys_irq.o)
 .debug_frame   0x00003148       0x80 ../DE2_115_SD_Card_Audio_Player_bsp/\libhal_bsp.a(altera_avalon_cfi_flash_amd.o)
 .debug_frame   0x000031c8       0x80 ../DE2_115_SD_Card_Audio_Player_bsp/\libhal_bsp.a(altera_avalon_cfi_flash_intel.o)
 .debug_frame   0x00003248       0x2c ../DE2_115_SD_Card_Audio_Player_bsp/\libhal_bsp.a(alt_icache_flush.o)
 .debug_frame   0x00003274       0x20 c:/altera/10.0/nios2eds/bin/gnu/h-i686-mingw32/bin/../lib/gcc/nios2-elf/4.1.2/../../../../nios2-elf/lib\libc.a(lib_a-atexit.o)
 .debug_frame   0x00003294       0x28 c:/altera/10.0/nios2eds/bin/gnu/h-i686-mingw32/bin/../lib/gcc/nios2-elf/4.1.2/../../../../nios2-elf/lib\libc.a(lib_a-exit.o)
 .debug_frame   0x000032bc       0x20 c:/altera/10.0/nios2eds/bin/gnu/h-i686-mingw32/bin/../lib/gcc/nios2-elf/4.1.2/../../../../nios2-elf/lib\libc.a(lib_a-memcmp.o)
 .debug_frame   0x000032dc       0x34 c:/altera/10.0/nios2eds/bin/gnu/h-i686-mingw32/bin/../lib/gcc/nios2-elf/4.1.2/../../../../nios2-elf/lib\libc.a(lib_a-__atexit.o)
 .debug_frame   0x00003310       0x4c c:/altera/10.0/nios2eds/bin/gnu/h-i686-mingw32/bin/../lib/gcc/nios2-elf/4.1.2/../../../../nios2-elf/lib\libc.a(lib_a-__call_atexit.o)
 .debug_frame   0x0000335c       0x48 ../DE2_115_SD_Card_Audio_Player_bsp/\libhal_bsp.a(alt_exit.o)

.debug_str      0x00000000     0x2d80
 *(.debug_str)
 .debug_str     0x00000000       0x77 obj/default/main.o
 .debug_str     0x00000077       0xe7 obj/default/terasic_fat/FatFileSystem.o
 .debug_str     0x0000015e       0xc4 obj/default/terasic_fat/FatInternal.o
 .debug_str     0x00000222       0x44 obj/default/terasic_lib/AUDIO.o
 .debug_str     0x00000266       0x45 obj/default/terasic_lib/I2C.o
 .debug_str     0x000002ab       0x20 obj/default/terasic_lib/LCD.o
 .debug_str     0x000002cb       0x12 obj/default/terasic_lib/LED.o
 .debug_str     0x000002dd       0x26 obj/default/terasic_lib/SEG7.o
 .debug_str     0x00000303       0x36 obj/default/terasic_lib/WaveLib.o
 .debug_str     0x00000339       0x19 obj/default/terasic_lib/debug.o
 .debug_str     0x00000352       0x12 obj/default/terasic_sdcard/crc16.o
 .debug_str     0x00000364       0x12 obj/default/terasic_sdcard/crc7.o
 .debug_str     0x00000376       0x1b obj/default/terasic_sdcard/sd_hal.o
 .debug_str     0x00000391       0x28 obj/default/terasic_sdcard/sd_lib.o
 .debug_str     0x000003b9       0x75 obj/default/terasic_sdcard/sd_protocol.o
 .debug_str     0x0000042e      0x1b0 c:/altera/10.0/nios2eds/bin/gnu/h-i686-mingw32/bin/../lib/gcc/nios2-elf/4.1.2\libgcc.a(_mul_sf.o)
                                0x20e (size before relaxing)
 .debug_str     0x000005de       0x35 c:/altera/10.0/nios2eds/bin/gnu/h-i686-mingw32/bin/../lib/gcc/nios2-elf/4.1.2\libgcc.a(_div_sf.o)
                                0x219 (size before relaxing)
 .debug_str     0x00000613       0x15 c:/altera/10.0/nios2eds/bin/gnu/h-i686-mingw32/bin/../lib/gcc/nios2-elf/4.1.2\libgcc.a(_sf_to_df.o)
                                0x1e0 (size before relaxing)
 .debug_str     0x00000000      0x191 c:/altera/10.0/nios2eds/bin/gnu/h-i686-mingw32/bin/../lib/gcc/nios2-elf/4.1.2\libgcc.a(_thenan_sf.o)
 .debug_str     0x00000628       0x1b c:/altera/10.0/nios2eds/bin/gnu/h-i686-mingw32/bin/../lib/gcc/nios2-elf/4.1.2\libgcc.a(_usi_to_sf.o)
                                0x1c8 (size before relaxing)
 .debug_str     0x00000643       0x24 c:/altera/10.0/nios2eds/bin/gnu/h-i686-mingw32/bin/../lib/gcc/nios2-elf/4.1.2\libgcc.a(_div_df.o)
                                0x21f (size before relaxing)
 .debug_str     0x00000667        0xa c:/altera/10.0/nios2eds/bin/gnu/h-i686-mingw32/bin/../lib/gcc/nios2-elf/4.1.2\libgcc.a(_make_df.o)
                                0x1a7 (size before relaxing)
 .debug_str     0x00000671       0x14 c:/altera/10.0/nios2eds/bin/gnu/h-i686-mingw32/bin/../lib/gcc/nios2-elf/4.1.2\libgcc.a(_df_to_sf.o)
                                0x1ec (size before relaxing)
 .debug_str     0x00000000      0x191 c:/altera/10.0/nios2eds/bin/gnu/h-i686-mingw32/bin/../lib/gcc/nios2-elf/4.1.2\libgcc.a(_thenan_df.o)
 .debug_str     0x00000685       0xa1 c:/altera/10.0/nios2eds/bin/gnu/h-i686-mingw32/bin/../lib/gcc/nios2-elf/4.1.2\libgcc.a(lib2-divmod.o)
                                0x1a2 (size before relaxing)
 .debug_str     0x00000726       0x62 c:/altera/10.0/nios2eds/bin/gnu/h-i686-mingw32/bin/../lib/gcc/nios2-elf/4.1.2\libgcc.a(_muldi3.o)
                                0x19a (size before relaxing)
 .debug_str     0x00000788       0x20 c:/altera/10.0/nios2eds/bin/gnu/h-i686-mingw32/bin/../lib/gcc/nios2-elf/4.1.2\libgcc.a(_clzsi2.o)
                                0x16c (size before relaxing)
 .debug_str     0x000007a8       0x10 c:/altera/10.0/nios2eds/bin/gnu/h-i686-mingw32/bin/../lib/gcc/nios2-elf/4.1.2\libgcc.a(_pack_sf.o)
                                0x1ee (size before relaxing)
 .debug_str     0x000007b8        0xb c:/altera/10.0/nios2eds/bin/gnu/h-i686-mingw32/bin/../lib/gcc/nios2-elf/4.1.2\libgcc.a(_unpack_sf.o)
                                0x1d0 (size before relaxing)
 .debug_str     0x000007c3        0xa c:/altera/10.0/nios2eds/bin/gnu/h-i686-mingw32/bin/../lib/gcc/nios2-elf/4.1.2\libgcc.a(_make_sf.o)
                                0x1a7 (size before relaxing)
 .debug_str     0x000007cd        0x9 c:/altera/10.0/nios2eds/bin/gnu/h-i686-mingw32/bin/../lib/gcc/nios2-elf/4.1.2\libgcc.a(_pack_df.o)
                                0x1f4 (size before relaxing)
 .debug_str     0x000007d6        0xb c:/altera/10.0/nios2eds/bin/gnu/h-i686-mingw32/bin/../lib/gcc/nios2-elf/4.1.2\libgcc.a(_unpack_df.o)
                                0x1d6 (size before relaxing)
 .debug_str     0x00000000      0x14f c:/altera/10.0/nios2eds/bin/gnu/h-i686-mingw32/bin/../lib/gcc/nios2-elf/4.1.2\libgcc.a(_clz.o)
 .debug_str     0x000007e1      0x42a c:/altera/10.0/nios2eds/bin/gnu/h-i686-mingw32/bin/../lib/gcc/nios2-elf/4.1.2/../../../../nios2-elf/lib\libc.a(lib_a-fclose.o)
                                0x504 (size before relaxing)
 .debug_str     0x00000c0b       0x65 c:/altera/10.0/nios2eds/bin/gnu/h-i686-mingw32/bin/../lib/gcc/nios2-elf/4.1.2/../../../../nios2-elf/lib\libc.a(lib_a-fflush.o)
                                0x520 (size before relaxing)
 .debug_str     0x00000c70      0x102 c:/altera/10.0/nios2eds/bin/gnu/h-i686-mingw32/bin/../lib/gcc/nios2-elf/4.1.2/../../../../nios2-elf/lib\libc.a(lib_a-findfp.o)
                                0x5e2 (size before relaxing)
 .debug_str     0x00000d72       0x4f c:/altera/10.0/nios2eds/bin/gnu/h-i686-mingw32/bin/../lib/gcc/nios2-elf/4.1.2/../../../../nios2-elf/lib\libc.a(lib_a-fopen.o)
                                0x513 (size before relaxing)
 .debug_str     0x00000dc1      0x1d5 c:/altera/10.0/nios2eds/bin/gnu/h-i686-mingw32/bin/../lib/gcc/nios2-elf/4.1.2/../../../../nios2-elf/lib\libc.a(lib_a-freer.o)
                                0x631 (size before relaxing)
 .debug_str     0x00000f96      0x13a c:/altera/10.0/nios2eds/bin/gnu/h-i686-mingw32/bin/../lib/gcc/nios2-elf/4.1.2/../../../../nios2-elf/lib\libc.a(lib_a-fseek.o)
                                0x620 (size before relaxing)
 .debug_str     0x000010d0       0xc2 c:/altera/10.0/nios2eds/bin/gnu/h-i686-mingw32/bin/../lib/gcc/nios2-elf/4.1.2/../../../../nios2-elf/lib\libc.a(lib_a-fstatr.o)
                                0x5df (size before relaxing)
 .debug_str     0x00001192       0x5e c:/altera/10.0/nios2eds/bin/gnu/h-i686-mingw32/bin/../lib/gcc/nios2-elf/4.1.2/../../../../nios2-elf/lib\libc.a(lib_a-fwalk.o)
                                0x523 (size before relaxing)
 .debug_str     0x000011f0       0x87 c:/altera/10.0/nios2eds/bin/gnu/h-i686-mingw32/bin/../lib/gcc/nios2-elf/4.1.2/../../../../nios2-elf/lib\libc.a(lib_a-fwrite.o)
                                0x54d (size before relaxing)
 .debug_str     0x00001277       0x46 c:/altera/10.0/nios2eds/bin/gnu/h-i686-mingw32/bin/../lib/gcc/nios2-elf/4.1.2/../../../../nios2-elf/lib\libc.a(lib_a-impure.o)
                                0x508 (size before relaxing)
 .debug_str     0x000012bd       0x3d c:/altera/10.0/nios2eds/bin/gnu/h-i686-mingw32/bin/../lib/gcc/nios2-elf/4.1.2/../../../../nios2-elf/lib\libc.a(lib_a-int_errno.o)
                                0x151 (size before relaxing)
 .debug_str     0x000012fa       0x53 c:/altera/10.0/nios2eds/bin/gnu/h-i686-mingw32/bin/../lib/gcc/nios2-elf/4.1.2/../../../../nios2-elf/lib\libc.a(lib_a-makebuf.o)
                                0x5f4 (size before relaxing)
 .debug_str     0x0000134d       0x47 c:/altera/10.0/nios2eds/bin/gnu/h-i686-mingw32/bin/../lib/gcc/nios2-elf/4.1.2/../../../../nios2-elf/lib\libc.a(lib_a-malloc.o)
                                0x50a (size before relaxing)
 .debug_str     0x00001394       0xe9 c:/altera/10.0/nios2eds/bin/gnu/h-i686-mingw32/bin/../lib/gcc/nios2-elf/4.1.2/../../../../nios2-elf/lib\libc.a(lib_a-mallocr.o)
                                0x6df (size before relaxing)
 .debug_str     0x0000147d       0xe3 c:/altera/10.0/nios2eds/bin/gnu/h-i686-mingw32/bin/../lib/gcc/nios2-elf/4.1.2/../../../../nios2-elf/lib\libc.a(lib_a-memcpy.o)
                                0x116 (size before relaxing)
 .debug_str     0x00001560       0x56 c:/altera/10.0/nios2eds/bin/gnu/h-i686-mingw32/bin/../lib/gcc/nios2-elf/4.1.2/../../../../nios2-elf/lib\libc.a(lib_a-memset.o)
                                0x16c (size before relaxing)
 .debug_str     0x000015b6       0x41 c:/altera/10.0/nios2eds/bin/gnu/h-i686-mingw32/bin/../lib/gcc/nios2-elf/4.1.2/../../../../nios2-elf/lib\libc.a(lib_a-openr.o)
                                0x4fa (size before relaxing)
 .debug_str     0x000015f7       0x53 c:/altera/10.0/nios2eds/bin/gnu/h-i686-mingw32/bin/../lib/gcc/nios2-elf/4.1.2/../../../../nios2-elf/lib\libc.a(lib_a-printf.o)
                                0x511 (size before relaxing)
 .debug_str     0x0000164a       0x4e c:/altera/10.0/nios2eds/bin/gnu/h-i686-mingw32/bin/../lib/gcc/nios2-elf/4.1.2/../../../../nios2-elf/lib\libc.a(lib_a-putchar.o)
                                0x4fd (size before relaxing)
 .debug_str     0x00001698       0x45 c:/altera/10.0/nios2eds/bin/gnu/h-i686-mingw32/bin/../lib/gcc/nios2-elf/4.1.2/../../../../nios2-elf/lib\libc.a(lib_a-puts.o)
                                0x537 (size before relaxing)
 .debug_str     0x000016dd       0x4d c:/altera/10.0/nios2eds/bin/gnu/h-i686-mingw32/bin/../lib/gcc/nios2-elf/4.1.2/../../../../nios2-elf/lib\libc.a(lib_a-refill.o)
                                0x508 (size before relaxing)
 .debug_str     0x0000172a       0x50 c:/altera/10.0/nios2eds/bin/gnu/h-i686-mingw32/bin/../lib/gcc/nios2-elf/4.1.2/../../../../nios2-elf/lib\libc.a(lib_a-sbrkr.o)
                                0x4f9 (size before relaxing)
 .debug_str     0x0000177a       0x4e c:/altera/10.0/nios2eds/bin/gnu/h-i686-mingw32/bin/../lib/gcc/nios2-elf/4.1.2/../../../../nios2-elf/lib\libc.a(lib_a-sprintf.o)
                                0x519 (size before relaxing)
 .debug_str     0x000017c8       0x5b c:/altera/10.0/nios2eds/bin/gnu/h-i686-mingw32/bin/../lib/gcc/nios2-elf/4.1.2/../../../../nios2-elf/lib\libc.a(lib_a-stdio.o)
                                0x51f (size before relaxing)
 .debug_str     0x00001823       0x56 c:/altera/10.0/nios2eds/bin/gnu/h-i686-mingw32/bin/../lib/gcc/nios2-elf/4.1.2/../../../../nios2-elf/lib\libc.a(lib_a-strcasecmp.o)
                                0x165 (size before relaxing)
 .debug_str     0x00001879       0x42 c:/altera/10.0/nios2eds/bin/gnu/h-i686-mingw32/bin/../lib/gcc/nios2-elf/4.1.2/../../../../nios2-elf/lib\libc.a(lib_a-strcmp.o)
                                0x151 (size before relaxing)
 .debug_str     0x000018bb       0x42 c:/altera/10.0/nios2eds/bin/gnu/h-i686-mingw32/bin/../lib/gcc/nios2-elf/4.1.2/../../../../nios2-elf/lib\libc.a(lib_a-strcpy.o)
                                0x173 (size before relaxing)
 .debug_str     0x000018fd       0x42 c:/altera/10.0/nios2eds/bin/gnu/h-i686-mingw32/bin/../lib/gcc/nios2-elf/4.1.2/../../../../nios2-elf/lib\libc.a(lib_a-strlen.o)
                                0x16b (size before relaxing)
 .debug_str     0x0000193f      0x180 c:/altera/10.0/nios2eds/bin/gnu/h-i686-mingw32/bin/../lib/gcc/nios2-elf/4.1.2/../../../../nios2-elf/lib\libc.a(lib_a-vfprintf.o)
                                0x6e6 (size before relaxing)
 .debug_str     0x00001abf       0x54 c:/altera/10.0/nios2eds/bin/gnu/h-i686-mingw32/bin/../lib/gcc/nios2-elf/4.1.2/../../../../nios2-elf/lib\libc.a(lib_a-vsnprintf.o)
                                0x52b (size before relaxing)
 .debug_str     0x00001b13       0x4c c:/altera/10.0/nios2eds/bin/gnu/h-i686-mingw32/bin/../lib/gcc/nios2-elf/4.1.2/../../../../nios2-elf/lib\libc.a(lib_a-writer.o)
                                0x4fc (size before relaxing)
 .debug_str     0x00001b5f       0x46 c:/altera/10.0/nios2eds/bin/gnu/h-i686-mingw32/bin/../lib/gcc/nios2-elf/4.1.2/../../../../nios2-elf/lib\libc.a(lib_a-wsetup.o)
                                0x4fa (size before relaxing)
 .debug_str     0x00001ba5       0x43 c:/altera/10.0/nios2eds/bin/gnu/h-i686-mingw32/bin/../lib/gcc/nios2-elf/4.1.2/../../../../nios2-elf/lib\libc.a(lib_a-closer.o)
                                0x4ec (size before relaxing)
 .debug_str     0x00001be8       0xc4 c:/altera/10.0/nios2eds/bin/gnu/h-i686-mingw32/bin/../lib/gcc/nios2-elf/4.1.2/../../../../nios2-elf/lib\libc.a(lib_a-ctype_.o)
                                 0xf3 (size before relaxing)
 .debug_str     0x00001cac      0x102 c:/altera/10.0/nios2eds/bin/gnu/h-i686-mingw32/bin/../lib/gcc/nios2-elf/4.1.2/../../../../nios2-elf/lib\libc.a(lib_a-dtoa.o)
                                0x5ef (size before relaxing)
 .debug_str     0x00001dae       0x47 c:/altera/10.0/nios2eds/bin/gnu/h-i686-mingw32/bin/../lib/gcc/nios2-elf/4.1.2/../../../../nios2-elf/lib\libc.a(lib_a-flags.o)
                                0x4ef (size before relaxing)
 .debug_str     0x00001df5       0x66 c:/altera/10.0/nios2eds/bin/gnu/h-i686-mingw32/bin/../lib/gcc/nios2-elf/4.1.2/../../../../nios2-elf/lib\libc.a(lib_a-fvwrite.o)
                                0x551 (size before relaxing)
 .debug_str     0x00001e5b       0x45 c:/altera/10.0/nios2eds/bin/gnu/h-i686-mingw32/bin/../lib/gcc/nios2-elf/4.1.2/../../../../nios2-elf/lib\libc.a(lib_a-isattyr.o)
                                0x4ee (size before relaxing)
 .debug_str     0x00001ea0      0x213 c:/altera/10.0/nios2eds/bin/gnu/h-i686-mingw32/bin/../lib/gcc/nios2-elf/4.1.2/../../../../nios2-elf/lib\libc.a(lib_a-locale.o)
                                0x697 (size before relaxing)
 .debug_str     0x000020b3       0x43 c:/altera/10.0/nios2eds/bin/gnu/h-i686-mingw32/bin/../lib/gcc/nios2-elf/4.1.2/../../../../nios2-elf/lib\libc.a(lib_a-lseekr.o)
                                0x4fa (size before relaxing)
 .debug_str     0x000020f6       0x55 c:/altera/10.0/nios2eds/bin/gnu/h-i686-mingw32/bin/../lib/gcc/nios2-elf/4.1.2/../../../../nios2-elf/lib\libc.a(lib_a-memchr.o)
                                0x179 (size before relaxing)
 .debug_str     0x0000214b       0x4d c:/altera/10.0/nios2eds/bin/gnu/h-i686-mingw32/bin/../lib/gcc/nios2-elf/4.1.2/../../../../nios2-elf/lib\libc.a(lib_a-memmove.o)
                                0x18b (size before relaxing)
 .debug_str     0x00002198       0xf8 c:/altera/10.0/nios2eds/bin/gnu/h-i686-mingw32/bin/../lib/gcc/nios2-elf/4.1.2/../../../../nios2-elf/lib\libc.a(lib_a-mprec.o)
                                0x5fc (size before relaxing)
 .debug_str     0x00002290       0x45 c:/altera/10.0/nios2eds/bin/gnu/h-i686-mingw32/bin/../lib/gcc/nios2-elf/4.1.2/../../../../nios2-elf/lib\libc.a(lib_a-putc.o)
                                0x500 (size before relaxing)
 .debug_str     0x000022d5       0x41 c:/altera/10.0/nios2eds/bin/gnu/h-i686-mingw32/bin/../lib/gcc/nios2-elf/4.1.2/../../../../nios2-elf/lib\libc.a(lib_a-readr.o)
                                0x4fa (size before relaxing)
 .debug_str     0x00002316       0x59 c:/altera/10.0/nios2eds/bin/gnu/h-i686-mingw32/bin/../lib/gcc/nios2-elf/4.1.2/../../../../nios2-elf/lib\libc.a(lib_a-reallocr.o)
                                0x5b1 (size before relaxing)
 .debug_str     0x0000236f       0xca c:/altera/10.0/nios2eds/bin/gnu/h-i686-mingw32/bin/../lib/gcc/nios2-elf/4.1.2/../../../../nios2-elf/lib\libc.a(lib_a-s_isinfd.o)
                                0x178 (size before relaxing)
 .debug_str     0x00002439       0x46 c:/altera/10.0/nios2eds/bin/gnu/h-i686-mingw32/bin/../lib/gcc/nios2-elf/4.1.2/../../../../nios2-elf/lib\libc.a(lib_a-s_isnand.o)
                                0x178 (size before relaxing)
 .debug_str     0x0000247f       0x4a c:/altera/10.0/nios2eds/bin/gnu/h-i686-mingw32/bin/../lib/gcc/nios2-elf/4.1.2/../../../../nios2-elf/lib\libc.a(lib_a-wbuf.o)
                                0x4fe (size before relaxing)
 .debug_str     0x000024c9       0x19 c:/altera/10.0/nios2eds/bin/gnu/h-i686-mingw32/bin/../lib/gcc/nios2-elf/4.1.2/../../../../nios2-elf/lib\libc.a(lib_a-callocr.o)
                                0x530 (size before relaxing)
 .debug_str     0x000024e2       0x67 c:/altera/10.0/nios2eds/bin/gnu/h-i686-mingw32/bin/../lib/gcc/nios2-elf/4.1.2\libgcc.a(_addsub_df.o)
                                0x25d (size before relaxing)
 .debug_str     0x00002549       0x33 c:/altera/10.0/nios2eds/bin/gnu/h-i686-mingw32/bin/../lib/gcc/nios2-elf/4.1.2\libgcc.a(_mul_df.o)
                                0x22f (size before relaxing)
 .debug_str     0x0000257c        0x8 c:/altera/10.0/nios2eds/bin/gnu/h-i686-mingw32/bin/../lib/gcc/nios2-elf/4.1.2\libgcc.a(_eq_df.o)
                                0x1ec (size before relaxing)
 .debug_str     0x00002584        0x8 c:/altera/10.0/nios2eds/bin/gnu/h-i686-mingw32/bin/../lib/gcc/nios2-elf/4.1.2\libgcc.a(_ne_df.o)
                                0x1ec (size before relaxing)
 .debug_str     0x0000258c        0x8 c:/altera/10.0/nios2eds/bin/gnu/h-i686-mingw32/bin/../lib/gcc/nios2-elf/4.1.2\libgcc.a(_gt_df.o)
                                0x1ec (size before relaxing)
 .debug_str     0x00002594        0x8 c:/altera/10.0/nios2eds/bin/gnu/h-i686-mingw32/bin/../lib/gcc/nios2-elf/4.1.2\libgcc.a(_ge_df.o)
                                0x1ec (size before relaxing)
 .debug_str     0x0000259c        0x8 c:/altera/10.0/nios2eds/bin/gnu/h-i686-mingw32/bin/../lib/gcc/nios2-elf/4.1.2\libgcc.a(_lt_df.o)
                                0x1ec (size before relaxing)
 .debug_str     0x000025a4       0x11 c:/altera/10.0/nios2eds/bin/gnu/h-i686-mingw32/bin/../lib/gcc/nios2-elf/4.1.2\libgcc.a(_si_to_df.o)
                                0x1cc (size before relaxing)
 .debug_str     0x000025b5        0xa c:/altera/10.0/nios2eds/bin/gnu/h-i686-mingw32/bin/../lib/gcc/nios2-elf/4.1.2\libgcc.a(_df_to_si.o)
                                0x1f5 (size before relaxing)
 .debug_str     0x000025bf        0xe c:/altera/10.0/nios2eds/bin/gnu/h-i686-mingw32/bin/../lib/gcc/nios2-elf/4.1.2\libgcc.a(_usi_to_df.o)
                                0x1c8 (size before relaxing)
 .debug_str     0x000025cd       0x10 c:/altera/10.0/nios2eds/bin/gnu/h-i686-mingw32/bin/../lib/gcc/nios2-elf/4.1.2\libgcc.a(_fpcmp_parts_df.o)
                                0x1b4 (size before relaxing)
 .debug_str     0x000025dd       0x12 ../DE2_115_SD_Card_Audio_Player_bsp/\libhal_bsp.a(alt_close.o)
 .debug_str     0x000025ef       0x12 ../DE2_115_SD_Card_Audio_Player_bsp/\libhal_bsp.a(alt_dev.o)
 .debug_str     0x00002601       0x12 ../DE2_115_SD_Card_Audio_Player_bsp/\libhal_bsp.a(alt_errno.o)
 .debug_str     0x00002613       0x12 ../DE2_115_SD_Card_Audio_Player_bsp/\libhal_bsp.a(alt_fstat.o)
 .debug_str     0x00002625       0x30 ../DE2_115_SD_Card_Audio_Player_bsp/\libhal_bsp.a(alt_irq_register.o)
 .debug_str     0x00002655       0x12 ../DE2_115_SD_Card_Audio_Player_bsp/\libhal_bsp.a(alt_isatty.o)
 .debug_str     0x00002667       0x12 ../DE2_115_SD_Card_Audio_Player_bsp/\libhal_bsp.a(alt_load.o)
 .debug_str     0x00002679       0x12 ../DE2_115_SD_Card_Audio_Player_bsp/\libhal_bsp.a(alt_lseek.o)
 .debug_str     0x0000268b       0x12 ../DE2_115_SD_Card_Audio_Player_bsp/\libhal_bsp.a(alt_main.o)
 .debug_str     0x0000269d       0x20 ../DE2_115_SD_Card_Audio_Player_bsp/\libhal_bsp.a(alt_malloc_lock.o)
 .debug_str     0x000026bd       0x12 ../DE2_115_SD_Card_Audio_Player_bsp/\libhal_bsp.a(alt_open.o)
 .debug_str     0x000026cf       0x12 ../DE2_115_SD_Card_Audio_Player_bsp/\libhal_bsp.a(alt_read.o)
 .debug_str     0x000026e1       0x1a ../DE2_115_SD_Card_Audio_Player_bsp/\libhal_bsp.a(alt_sbrk.o)
 .debug_str     0x000026fb       0x1a ../DE2_115_SD_Card_Audio_Player_bsp/\libhal_bsp.a(alt_tick.o)
 .debug_str     0x00002715       0x12 ../DE2_115_SD_Card_Audio_Player_bsp/\libhal_bsp.a(alt_usleep.o)
 .debug_str     0x00002727       0x12 ../DE2_115_SD_Card_Audio_Player_bsp/\libhal_bsp.a(alt_write.o)
 .debug_str     0x00002739       0x3f ../DE2_115_SD_Card_Audio_Player_bsp/\libhal_bsp.a(alt_sys_init.o)
 .debug_str     0x00002778       0x82 ../DE2_115_SD_Card_Audio_Player_bsp/\libhal_bsp.a(altera_avalon_cfi_flash.o)
 .debug_str     0x000027fa       0x6d ../DE2_115_SD_Card_Audio_Player_bsp/\libhal_bsp.a(altera_avalon_cfi_flash_table.o)
 .debug_str     0x00002867       0x12 ../DE2_115_SD_Card_Audio_Player_bsp/\libhal_bsp.a(altera_avalon_jtag_uart_fd.o)
 .debug_str     0x00002879       0x1a ../DE2_115_SD_Card_Audio_Player_bsp/\libhal_bsp.a(altera_avalon_jtag_uart_init.o)
 .debug_str     0x00002893       0x12 ../DE2_115_SD_Card_Audio_Player_bsp/\libhal_bsp.a(altera_avalon_jtag_uart_ioctl.o)
 .debug_str     0x000028a5       0x1a ../DE2_115_SD_Card_Audio_Player_bsp/\libhal_bsp.a(altera_avalon_jtag_uart_read.o)
 .debug_str     0x000028bf       0x1a ../DE2_115_SD_Card_Audio_Player_bsp/\libhal_bsp.a(altera_avalon_jtag_uart_write.o)
 .debug_str     0x000028d9       0x25 ../DE2_115_SD_Card_Audio_Player_bsp/\libhal_bsp.a(altera_avalon_lcd_16207.o)
 .debug_str     0x000028fe       0x12 ../DE2_115_SD_Card_Audio_Player_bsp/\libhal_bsp.a(altera_avalon_lcd_16207_fd.o)
 .debug_str     0x00002910       0x12 ../DE2_115_SD_Card_Audio_Player_bsp/\libhal_bsp.a(altera_avalon_timer_sc.o)
 .debug_str     0x00002922       0x12 ../DE2_115_SD_Card_Audio_Player_bsp/\libhal_bsp.a(altera_avalon_uart_fd.o)
 .debug_str     0x00002934       0x19 ../DE2_115_SD_Card_Audio_Player_bsp/\libhal_bsp.a(altera_avalon_uart_init.o)
 .debug_str     0x0000294d       0x1a ../DE2_115_SD_Card_Audio_Player_bsp/\libhal_bsp.a(altera_avalon_uart_read.o)
 .debug_str     0x00002967       0x1a ../DE2_115_SD_Card_Audio_Player_bsp/\libhal_bsp.a(altera_avalon_uart_write.o)
 .debug_str     0x00002981       0x23 ../DE2_115_SD_Card_Audio_Player_bsp/\libhal_bsp.a(alt_alarm_start.o)
 .debug_str     0x000029a4       0x12 ../DE2_115_SD_Card_Audio_Player_bsp/\libhal_bsp.a(alt_busy_sleep.o)
 .debug_str     0x000029b6       0x12 ../DE2_115_SD_Card_Audio_Player_bsp/\libhal_bsp.a(alt_dcache_flush.o)
 .debug_str     0x000029c8       0x12 ../DE2_115_SD_Card_Audio_Player_bsp/\libhal_bsp.a(alt_dcache_flush_all.o)
 .debug_str     0x000029da       0x12 ../DE2_115_SD_Card_Audio_Player_bsp/\libhal_bsp.a(alt_dev_llist_insert.o)
 .debug_str     0x000029ec       0x12 ../DE2_115_SD_Card_Audio_Player_bsp/\libhal_bsp.a(alt_find_dev.o)
 .debug_str     0x000029fe       0x12 ../DE2_115_SD_Card_Audio_Player_bsp/\libhal_bsp.a(alt_find_file.o)
 .debug_str     0x00002a10       0x2d ../DE2_115_SD_Card_Audio_Player_bsp/\libhal_bsp.a(alt_flash_dev.o)
 .debug_str     0x00002a3d       0x12 ../DE2_115_SD_Card_Audio_Player_bsp/\libhal_bsp.a(alt_get_fd.o)
 .debug_str     0x00002a4f       0x12 ../DE2_115_SD_Card_Audio_Player_bsp/\libhal_bsp.a(alt_icache_flush_all.o)
 .debug_str     0x00002a61       0x27 ../DE2_115_SD_Card_Audio_Player_bsp/\libhal_bsp.a(alt_iic.o)
 .debug_str     0x00002a88       0x1a ../DE2_115_SD_Card_Audio_Player_bsp/\libhal_bsp.a(alt_iic_isr_register.o)
 .debug_str     0x00002aa2       0x12 ../DE2_115_SD_Card_Audio_Player_bsp/\libhal_bsp.a(alt_io_redirect.o)
 .debug_str     0x00002ab4       0x12 ../DE2_115_SD_Card_Audio_Player_bsp/\libhal_bsp.a(alt_irq_handler.o)
 .debug_str     0x00002ac6       0x12 ../DE2_115_SD_Card_Audio_Player_bsp/\libhal_bsp.a(altera_nios2_qsys_irq.o)
 .debug_str     0x00002ad8       0x76 ../DE2_115_SD_Card_Audio_Player_bsp/\libhal_bsp.a(altera_avalon_cfi_flash_amd.o)
 .debug_str     0x00002b4e       0x7d ../DE2_115_SD_Card_Audio_Player_bsp/\libhal_bsp.a(altera_avalon_cfi_flash_intel.o)
 .debug_str     0x00002bcb       0x12 ../DE2_115_SD_Card_Audio_Player_bsp/\libhal_bsp.a(alt_icache_flush.o)
 .debug_str     0x00002bdd       0x3b c:/altera/10.0/nios2eds/bin/gnu/h-i686-mingw32/bin/../lib/gcc/nios2-elf/4.1.2/../../../../nios2-elf/lib\libc.a(lib_a-atexit.o)
                                0x1ad (size before relaxing)
 .debug_str     0x00002c18       0x3e c:/altera/10.0/nios2eds/bin/gnu/h-i686-mingw32/bin/../lib/gcc/nios2-elf/4.1.2/../../../../nios2-elf/lib\libc.a(lib_a-exit.o)
                                0x4fa (size before relaxing)
 .debug_str     0x00002c56       0x42 c:/altera/10.0/nios2eds/bin/gnu/h-i686-mingw32/bin/../lib/gcc/nios2-elf/4.1.2/../../../../nios2-elf/lib\libc.a(lib_a-memcmp.o)
                                0x158 (size before relaxing)
 .debug_str     0x00002c98       0x51 c:/altera/10.0/nios2eds/bin/gnu/h-i686-mingw32/bin/../lib/gcc/nios2-elf/4.1.2/../../../../nios2-elf/lib\libc.a(lib_a-__atexit.o)
                                0x512 (size before relaxing)
 .debug_str     0x00002ce9       0x7b c:/altera/10.0/nios2eds/bin/gnu/h-i686-mingw32/bin/../lib/gcc/nios2-elf/4.1.2/../../../../nios2-elf/lib\libc.a(lib_a-__call_atexit.o)
                                0x53c (size before relaxing)
 .debug_str     0x00002d64       0x1c ../DE2_115_SD_Card_Audio_Player_bsp/\libhal_bsp.a(alt_exit.o)

.debug_loc      0x00000000     0xc520
 *(.debug_loc)
 .debug_loc     0x00000000      0x336 obj/default/main.o
 .debug_loc     0x00000336      0x28a obj/default/terasic_fat/FatFileSystem.o
 .debug_loc     0x000005c0      0x332 obj/default/terasic_fat/FatInternal.o
 .debug_loc     0x000008f2      0x387 obj/default/terasic_lib/AUDIO.o
 .debug_loc     0x00000c79      0x12d obj/default/terasic_lib/I2C.o
 .debug_loc     0x00000da6       0xac obj/default/terasic_lib/LCD.o
 .debug_loc     0x00000e52       0xac obj/default/terasic_lib/LED.o
 .debug_loc     0x00000efe       0xd7 obj/default/terasic_lib/SEG7.o
 .debug_loc     0x00000fd5      0x12d obj/default/terasic_lib/WaveLib.o
 .debug_loc     0x00001102       0xad obj/default/terasic_lib/debug.o
 .debug_loc     0x000011af       0x2b obj/default/terasic_sdcard/crc16.o
 .debug_loc     0x000011da       0x56 obj/default/terasic_sdcard/crc7.o
 .debug_loc     0x00001230      0x12d obj/default/terasic_sdcard/sd_hal.o
 .debug_loc     0x0000135d       0x81 obj/default/terasic_sdcard/sd_lib.o
 .debug_loc     0x000013de      0x331 obj/default/terasic_sdcard/sd_protocol.o
 .debug_loc     0x0000170f      0x103 c:/altera/10.0/nios2eds/bin/gnu/h-i686-mingw32/bin/../lib/gcc/nios2-elf/4.1.2\libgcc.a(_mul_sf.o)
 .debug_loc     0x00001812      0x11d c:/altera/10.0/nios2eds/bin/gnu/h-i686-mingw32/bin/../lib/gcc/nios2-elf/4.1.2\libgcc.a(_div_sf.o)
 .debug_loc     0x0000192f       0x32 c:/altera/10.0/nios2eds/bin/gnu/h-i686-mingw32/bin/../lib/gcc/nios2-elf/4.1.2\libgcc.a(_sf_to_df.o)
 .debug_loc     0x00001961       0x87 c:/altera/10.0/nios2eds/bin/gnu/h-i686-mingw32/bin/../lib/gcc/nios2-elf/4.1.2\libgcc.a(_usi_to_sf.o)
 .debug_loc     0x000019e8      0x1df c:/altera/10.0/nios2eds/bin/gnu/h-i686-mingw32/bin/../lib/gcc/nios2-elf/4.1.2\libgcc.a(_div_df.o)
 .debug_loc     0x00001bc7       0x58 c:/altera/10.0/nios2eds/bin/gnu/h-i686-mingw32/bin/../lib/gcc/nios2-elf/4.1.2\libgcc.a(_make_df.o)
 .debug_loc     0x00001c1f       0x6a c:/altera/10.0/nios2eds/bin/gnu/h-i686-mingw32/bin/../lib/gcc/nios2-elf/4.1.2\libgcc.a(_df_to_sf.o)
 .debug_loc     0x00001c89      0x1d2 c:/altera/10.0/nios2eds/bin/gnu/h-i686-mingw32/bin/../lib/gcc/nios2-elf/4.1.2\libgcc.a(lib2-divmod.o)
 .debug_loc     0x00001e5b       0xcf c:/altera/10.0/nios2eds/bin/gnu/h-i686-mingw32/bin/../lib/gcc/nios2-elf/4.1.2\libgcc.a(_muldi3.o)
 .debug_loc     0x00001f2a       0x1e c:/altera/10.0/nios2eds/bin/gnu/h-i686-mingw32/bin/../lib/gcc/nios2-elf/4.1.2\libgcc.a(_clzsi2.o)
 .debug_loc     0x00001f48       0xf9 c:/altera/10.0/nios2eds/bin/gnu/h-i686-mingw32/bin/../lib/gcc/nios2-elf/4.1.2\libgcc.a(_pack_sf.o)
 .debug_loc     0x00002041       0x31 c:/altera/10.0/nios2eds/bin/gnu/h-i686-mingw32/bin/../lib/gcc/nios2-elf/4.1.2\libgcc.a(_unpack_sf.o)
 .debug_loc     0x00002072       0x6b c:/altera/10.0/nios2eds/bin/gnu/h-i686-mingw32/bin/../lib/gcc/nios2-elf/4.1.2\libgcc.a(_make_sf.o)
 .debug_loc     0x000020dd      0x184 c:/altera/10.0/nios2eds/bin/gnu/h-i686-mingw32/bin/../lib/gcc/nios2-elf/4.1.2\libgcc.a(_pack_df.o)
 .debug_loc     0x00002261       0xe5 c:/altera/10.0/nios2eds/bin/gnu/h-i686-mingw32/bin/../lib/gcc/nios2-elf/4.1.2\libgcc.a(_unpack_df.o)
 .debug_loc     0x00002346       0xe4 c:/altera/10.0/nios2eds/bin/gnu/h-i686-mingw32/bin/../lib/gcc/nios2-elf/4.1.2/../../../../nios2-elf/lib\libc.a(lib_a-fclose.o)
 .debug_loc     0x0000242a      0x1f6 c:/altera/10.0/nios2eds/bin/gnu/h-i686-mingw32/bin/../lib/gcc/nios2-elf/4.1.2/../../../../nios2-elf/lib\libc.a(lib_a-fflush.o)
 .debug_loc     0x00002620      0x19f c:/altera/10.0/nios2eds/bin/gnu/h-i686-mingw32/bin/../lib/gcc/nios2-elf/4.1.2/../../../../nios2-elf/lib\libc.a(lib_a-findfp.o)
 .debug_loc     0x000027bf      0x1c9 c:/altera/10.0/nios2eds/bin/gnu/h-i686-mingw32/bin/../lib/gcc/nios2-elf/4.1.2/../../../../nios2-elf/lib\libc.a(lib_a-fopen.o)
 .debug_loc     0x00002988      0x49c c:/altera/10.0/nios2eds/bin/gnu/h-i686-mingw32/bin/../lib/gcc/nios2-elf/4.1.2/../../../../nios2-elf/lib\libc.a(lib_a-freer.o)
 .debug_loc     0x00002e24      0x348 c:/altera/10.0/nios2eds/bin/gnu/h-i686-mingw32/bin/../lib/gcc/nios2-elf/4.1.2/../../../../nios2-elf/lib\libc.a(lib_a-fseek.o)
 .debug_loc     0x0000316c       0x79 c:/altera/10.0/nios2eds/bin/gnu/h-i686-mingw32/bin/../lib/gcc/nios2-elf/4.1.2/../../../../nios2-elf/lib\libc.a(lib_a-fstatr.o)
 .debug_loc     0x000031e5      0x1e8 c:/altera/10.0/nios2eds/bin/gnu/h-i686-mingw32/bin/../lib/gcc/nios2-elf/4.1.2/../../../../nios2-elf/lib\libc.a(lib_a-fwalk.o)
 .debug_loc     0x000033cd      0x18e c:/altera/10.0/nios2eds/bin/gnu/h-i686-mingw32/bin/../lib/gcc/nios2-elf/4.1.2/../../../../nios2-elf/lib\libc.a(lib_a-fwrite.o)
 .debug_loc     0x0000355b      0x11c c:/altera/10.0/nios2eds/bin/gnu/h-i686-mingw32/bin/../lib/gcc/nios2-elf/4.1.2/../../../../nios2-elf/lib\libc.a(lib_a-makebuf.o)
 .debug_loc     0x00003677       0x3c c:/altera/10.0/nios2eds/bin/gnu/h-i686-mingw32/bin/../lib/gcc/nios2-elf/4.1.2/../../../../nios2-elf/lib\libc.a(lib_a-malloc.o)
 .debug_loc     0x000036b3      0xaeb c:/altera/10.0/nios2eds/bin/gnu/h-i686-mingw32/bin/../lib/gcc/nios2-elf/4.1.2/../../../../nios2-elf/lib\libc.a(lib_a-mallocr.o)
 .debug_loc     0x0000419e       0xca c:/altera/10.0/nios2eds/bin/gnu/h-i686-mingw32/bin/../lib/gcc/nios2-elf/4.1.2/../../../../nios2-elf/lib\libc.a(lib_a-memcpy.o)
 .debug_loc     0x00004268       0xa1 c:/altera/10.0/nios2eds/bin/gnu/h-i686-mingw32/bin/../lib/gcc/nios2-elf/4.1.2/../../../../nios2-elf/lib\libc.a(lib_a-memset.o)
 .debug_loc     0x00004309       0x97 c:/altera/10.0/nios2eds/bin/gnu/h-i686-mingw32/bin/../lib/gcc/nios2-elf/4.1.2/../../../../nios2-elf/lib\libc.a(lib_a-openr.o)
 .debug_loc     0x000043a0       0xcb c:/altera/10.0/nios2eds/bin/gnu/h-i686-mingw32/bin/../lib/gcc/nios2-elf/4.1.2/../../../../nios2-elf/lib\libc.a(lib_a-printf.o)
 .debug_loc     0x0000446b       0x44 c:/altera/10.0/nios2eds/bin/gnu/h-i686-mingw32/bin/../lib/gcc/nios2-elf/4.1.2/../../../../nios2-elf/lib\libc.a(lib_a-putchar.o)
 .debug_loc     0x000044af       0xa2 c:/altera/10.0/nios2eds/bin/gnu/h-i686-mingw32/bin/../lib/gcc/nios2-elf/4.1.2/../../../../nios2-elf/lib\libc.a(lib_a-puts.o)
 .debug_loc     0x00004551       0xd1 c:/altera/10.0/nios2eds/bin/gnu/h-i686-mingw32/bin/../lib/gcc/nios2-elf/4.1.2/../../../../nios2-elf/lib\libc.a(lib_a-refill.o)
 .debug_loc     0x00004622       0x5b c:/altera/10.0/nios2eds/bin/gnu/h-i686-mingw32/bin/../lib/gcc/nios2-elf/4.1.2/../../../../nios2-elf/lib\libc.a(lib_a-sbrkr.o)
 .debug_loc     0x0000467d       0xc0 c:/altera/10.0/nios2eds/bin/gnu/h-i686-mingw32/bin/../lib/gcc/nios2-elf/4.1.2/../../../../nios2-elf/lib\libc.a(lib_a-sprintf.o)
 .debug_loc     0x0000473d      0x21f c:/altera/10.0/nios2eds/bin/gnu/h-i686-mingw32/bin/../lib/gcc/nios2-elf/4.1.2/../../../../nios2-elf/lib\libc.a(lib_a-stdio.o)
 .debug_loc     0x0000495c       0x88 c:/altera/10.0/nios2eds/bin/gnu/h-i686-mingw32/bin/../lib/gcc/nios2-elf/4.1.2/../../../../nios2-elf/lib\libc.a(lib_a-strcasecmp.o)
 .debug_loc     0x000049e4       0x65 c:/altera/10.0/nios2eds/bin/gnu/h-i686-mingw32/bin/../lib/gcc/nios2-elf/4.1.2/../../../../nios2-elf/lib\libc.a(lib_a-strcmp.o)
 .debug_loc     0x00004a49       0x8b c:/altera/10.0/nios2eds/bin/gnu/h-i686-mingw32/bin/../lib/gcc/nios2-elf/4.1.2/../../../../nios2-elf/lib\libc.a(lib_a-strcpy.o)
 .debug_loc     0x00004ad4       0x3c c:/altera/10.0/nios2eds/bin/gnu/h-i686-mingw32/bin/../lib/gcc/nios2-elf/4.1.2/../../../../nios2-elf/lib\libc.a(lib_a-strlen.o)
 .debug_loc     0x00004b10     0x1c5f c:/altera/10.0/nios2eds/bin/gnu/h-i686-mingw32/bin/../lib/gcc/nios2-elf/4.1.2/../../../../nios2-elf/lib\libc.a(lib_a-vfprintf.o)
 .debug_loc     0x0000676f      0x1a5 c:/altera/10.0/nios2eds/bin/gnu/h-i686-mingw32/bin/../lib/gcc/nios2-elf/4.1.2/../../../../nios2-elf/lib\libc.a(lib_a-vsnprintf.o)
 .debug_loc     0x00006914       0x97 c:/altera/10.0/nios2eds/bin/gnu/h-i686-mingw32/bin/../lib/gcc/nios2-elf/4.1.2/../../../../nios2-elf/lib\libc.a(lib_a-writer.o)
 .debug_loc     0x000069ab       0x7c c:/altera/10.0/nios2eds/bin/gnu/h-i686-mingw32/bin/../lib/gcc/nios2-elf/4.1.2/../../../../nios2-elf/lib\libc.a(lib_a-wsetup.o)
 .debug_loc     0x00006a27       0x5b c:/altera/10.0/nios2eds/bin/gnu/h-i686-mingw32/bin/../lib/gcc/nios2-elf/4.1.2/../../../../nios2-elf/lib\libc.a(lib_a-closer.o)
 .debug_loc     0x00006a82     0x1dfa c:/altera/10.0/nios2eds/bin/gnu/h-i686-mingw32/bin/../lib/gcc/nios2-elf/4.1.2/../../../../nios2-elf/lib\libc.a(lib_a-dtoa.o)
 .debug_loc     0x0000887c       0xa4 c:/altera/10.0/nios2eds/bin/gnu/h-i686-mingw32/bin/../lib/gcc/nios2-elf/4.1.2/../../../../nios2-elf/lib\libc.a(lib_a-flags.o)
 .debug_loc     0x00008920      0x4e4 c:/altera/10.0/nios2eds/bin/gnu/h-i686-mingw32/bin/../lib/gcc/nios2-elf/4.1.2/../../../../nios2-elf/lib\libc.a(lib_a-fvwrite.o)
 .debug_loc     0x00008e04       0x5b c:/altera/10.0/nios2eds/bin/gnu/h-i686-mingw32/bin/../lib/gcc/nios2-elf/4.1.2/../../../../nios2-elf/lib\libc.a(lib_a-isattyr.o)
 .debug_loc     0x00008e5f       0xe1 c:/altera/10.0/nios2eds/bin/gnu/h-i686-mingw32/bin/../lib/gcc/nios2-elf/4.1.2/../../../../nios2-elf/lib\libc.a(lib_a-locale.o)
 .debug_loc     0x00008f40       0x97 c:/altera/10.0/nios2eds/bin/gnu/h-i686-mingw32/bin/../lib/gcc/nios2-elf/4.1.2/../../../../nios2-elf/lib\libc.a(lib_a-lseekr.o)
 .debug_loc     0x00008fd7      0x106 c:/altera/10.0/nios2eds/bin/gnu/h-i686-mingw32/bin/../lib/gcc/nios2-elf/4.1.2/../../../../nios2-elf/lib\libc.a(lib_a-memchr.o)
 .debug_loc     0x000090dd      0x117 c:/altera/10.0/nios2eds/bin/gnu/h-i686-mingw32/bin/../lib/gcc/nios2-elf/4.1.2/../../../../nios2-elf/lib\libc.a(lib_a-memmove.o)
 .debug_loc     0x000091f4     0x14c0 c:/altera/10.0/nios2eds/bin/gnu/h-i686-mingw32/bin/../lib/gcc/nios2-elf/4.1.2/../../../../nios2-elf/lib\libc.a(lib_a-mprec.o)
 .debug_loc     0x0000a6b4      0x20d c:/altera/10.0/nios2eds/bin/gnu/h-i686-mingw32/bin/../lib/gcc/nios2-elf/4.1.2/../../../../nios2-elf/lib\libc.a(lib_a-putc.o)
 .debug_loc     0x0000a8c1       0x97 c:/altera/10.0/nios2eds/bin/gnu/h-i686-mingw32/bin/../lib/gcc/nios2-elf/4.1.2/../../../../nios2-elf/lib\libc.a(lib_a-readr.o)
 .debug_loc     0x0000a958      0x8f7 c:/altera/10.0/nios2eds/bin/gnu/h-i686-mingw32/bin/../lib/gcc/nios2-elf/4.1.2/../../../../nios2-elf/lib\libc.a(lib_a-reallocr.o)
 .debug_loc     0x0000b24f       0x36 c:/altera/10.0/nios2eds/bin/gnu/h-i686-mingw32/bin/../lib/gcc/nios2-elf/4.1.2/../../../../nios2-elf/lib\libc.a(lib_a-s_isinfd.o)
 .debug_loc     0x0000b285       0x18 c:/altera/10.0/nios2eds/bin/gnu/h-i686-mingw32/bin/../lib/gcc/nios2-elf/4.1.2/../../../../nios2-elf/lib\libc.a(lib_a-s_isnand.o)
 .debug_loc     0x0000b29d      0x157 c:/altera/10.0/nios2eds/bin/gnu/h-i686-mingw32/bin/../lib/gcc/nios2-elf/4.1.2/../../../../nios2-elf/lib\libc.a(lib_a-wbuf.o)
 .debug_loc     0x0000b3f4       0xf4 c:/altera/10.0/nios2eds/bin/gnu/h-i686-mingw32/bin/../lib/gcc/nios2-elf/4.1.2/../../../../nios2-elf/lib\libc.a(lib_a-callocr.o)
 .debug_loc     0x0000b4e8      0x47a c:/altera/10.0/nios2eds/bin/gnu/h-i686-mingw32/bin/../lib/gcc/nios2-elf/4.1.2\libgcc.a(_addsub_df.o)
 .debug_loc     0x0000b962      0x3b4 c:/altera/10.0/nios2eds/bin/gnu/h-i686-mingw32/bin/../lib/gcc/nios2-elf/4.1.2\libgcc.a(_mul_df.o)
 .debug_loc     0x0000bd16       0x70 c:/altera/10.0/nios2eds/bin/gnu/h-i686-mingw32/bin/../lib/gcc/nios2-elf/4.1.2\libgcc.a(_eq_df.o)
 .debug_loc     0x0000bd86       0x70 c:/altera/10.0/nios2eds/bin/gnu/h-i686-mingw32/bin/../lib/gcc/nios2-elf/4.1.2\libgcc.a(_ne_df.o)
 .debug_loc     0x0000bdf6       0x70 c:/altera/10.0/nios2eds/bin/gnu/h-i686-mingw32/bin/../lib/gcc/nios2-elf/4.1.2\libgcc.a(_gt_df.o)
 .debug_loc     0x0000be66       0x70 c:/altera/10.0/nios2eds/bin/gnu/h-i686-mingw32/bin/../lib/gcc/nios2-elf/4.1.2\libgcc.a(_ge_df.o)
 .debug_loc     0x0000bed6       0x70 c:/altera/10.0/nios2eds/bin/gnu/h-i686-mingw32/bin/../lib/gcc/nios2-elf/4.1.2\libgcc.a(_lt_df.o)
 .debug_loc     0x0000bf46       0x9a c:/altera/10.0/nios2eds/bin/gnu/h-i686-mingw32/bin/../lib/gcc/nios2-elf/4.1.2\libgcc.a(_si_to_df.o)
 .debug_loc     0x0000bfe0       0x8b c:/altera/10.0/nios2eds/bin/gnu/h-i686-mingw32/bin/../lib/gcc/nios2-elf/4.1.2\libgcc.a(_df_to_si.o)
 .debug_loc     0x0000c06b       0x5b c:/altera/10.0/nios2eds/bin/gnu/h-i686-mingw32/bin/../lib/gcc/nios2-elf/4.1.2\libgcc.a(_usi_to_df.o)
 .debug_loc     0x0000c0c6       0x1e c:/altera/10.0/nios2eds/bin/gnu/h-i686-mingw32/bin/../lib/gcc/nios2-elf/4.1.2/../../../../nios2-elf/lib\libc.a(lib_a-atexit.o)
 .debug_loc     0x0000c0e4       0x3d c:/altera/10.0/nios2eds/bin/gnu/h-i686-mingw32/bin/../lib/gcc/nios2-elf/4.1.2/../../../../nios2-elf/lib\libc.a(lib_a-exit.o)
 .debug_loc     0x0000c121      0x114 c:/altera/10.0/nios2eds/bin/gnu/h-i686-mingw32/bin/../lib/gcc/nios2-elf/4.1.2/../../../../nios2-elf/lib\libc.a(lib_a-memcmp.o)
 .debug_loc     0x0000c235      0x120 c:/altera/10.0/nios2eds/bin/gnu/h-i686-mingw32/bin/../lib/gcc/nios2-elf/4.1.2/../../../../nios2-elf/lib\libc.a(lib_a-__atexit.o)
 .debug_loc     0x0000c355      0x1cb c:/altera/10.0/nios2eds/bin/gnu/h-i686-mingw32/bin/../lib/gcc/nios2-elf/4.1.2/../../../../nios2-elf/lib\libc.a(lib_a-__call_atexit.o)

.debug_macinfo
 *(.debug_macinfo)

.debug_weaknames
 *(.debug_weaknames)

.debug_funcnames
 *(.debug_funcnames)

.debug_typenames
 *(.debug_typenames)

.debug_varnames
 *(.debug_varnames)

.debug_alt_sim_info
                0x00000000       0x60
 *(.debug_alt_sim_info)
 .debug_alt_sim_info
                0x00000000       0x30 ../DE2_115_SD_Card_Audio_Player_bsp//obj/HAL/src/crt0.o
 .debug_alt_sim_info
                0x00000030       0x30 ../DE2_115_SD_Card_Audio_Player_bsp/\libhal_bsp.a(alt_busy_sleep.o)
                0x03080000                __alt_data_end = 0x3080000
                0x03080000                PROVIDE (__alt_stack_pointer, __alt_data_end)
                0x0305fd70                PROVIDE (__alt_stack_limit, __alt_stack_base)
                0x0305fd70                PROVIDE (__alt_heap_start, end)
                0x03080000                PROVIDE (__alt_heap_limit, 0x3080000)
OUTPUT(DE2_115_SD_Card_Audio_Player.elf elf32-littlenios2)

.debug_ranges   0x00000000      0x708
 .debug_ranges  0x00000000       0x80 c:/altera/10.0/nios2eds/bin/gnu/h-i686-mingw32/bin/../lib/gcc/nios2-elf/4.1.2\libgcc.a(_mul_sf.o)
 .debug_ranges  0x00000080       0x60 c:/altera/10.0/nios2eds/bin/gnu/h-i686-mingw32/bin/../lib/gcc/nios2-elf/4.1.2\libgcc.a(_div_sf.o)
 .debug_ranges  0x000000e0       0x40 c:/altera/10.0/nios2eds/bin/gnu/h-i686-mingw32/bin/../lib/gcc/nios2-elf/4.1.2\libgcc.a(_usi_to_sf.o)
 .debug_ranges  0x00000120       0x50 c:/altera/10.0/nios2eds/bin/gnu/h-i686-mingw32/bin/../lib/gcc/nios2-elf/4.1.2\libgcc.a(_div_df.o)
 .debug_ranges  0x00000170       0x68 c:/altera/10.0/nios2eds/bin/gnu/h-i686-mingw32/bin/../lib/gcc/nios2-elf/4.1.2\libgcc.a(_muldi3.o)
 .debug_ranges  0x000001d8       0x28 c:/altera/10.0/nios2eds/bin/gnu/h-i686-mingw32/bin/../lib/gcc/nios2-elf/4.1.2\libgcc.a(_clzsi2.o)
 .debug_ranges  0x00000200       0x28 c:/altera/10.0/nios2eds/bin/gnu/h-i686-mingw32/bin/../lib/gcc/nios2-elf/4.1.2\libgcc.a(_pack_df.o)
 .debug_ranges  0x00000228       0x20 c:/altera/10.0/nios2eds/bin/gnu/h-i686-mingw32/bin/../lib/gcc/nios2-elf/4.1.2/../../../../nios2-elf/lib\libc.a(lib_a-fflush.o)
 .debug_ranges  0x00000248       0x98 c:/altera/10.0/nios2eds/bin/gnu/h-i686-mingw32/bin/../lib/gcc/nios2-elf/4.1.2/../../../../nios2-elf/lib\libc.a(lib_a-fwalk.o)
 .debug_ranges  0x000002e0       0x70 c:/altera/10.0/nios2eds/bin/gnu/h-i686-mingw32/bin/../lib/gcc/nios2-elf/4.1.2/../../../../nios2-elf/lib\libc.a(lib_a-mallocr.o)
 .debug_ranges  0x00000350      0x178 c:/altera/10.0/nios2eds/bin/gnu/h-i686-mingw32/bin/../lib/gcc/nios2-elf/4.1.2/../../../../nios2-elf/lib\libc.a(lib_a-vfprintf.o)
 .debug_ranges  0x000004c8       0x28 c:/altera/10.0/nios2eds/bin/gnu/h-i686-mingw32/bin/../lib/gcc/nios2-elf/4.1.2/../../../../nios2-elf/lib\libc.a(lib_a-fvwrite.o)
 .debug_ranges  0x000004f0       0xf8 c:/altera/10.0/nios2eds/bin/gnu/h-i686-mingw32/bin/../lib/gcc/nios2-elf/4.1.2/../../../../nios2-elf/lib\libc.a(lib_a-reallocr.o)
 .debug_ranges  0x000005e8       0x38 c:/altera/10.0/nios2eds/bin/gnu/h-i686-mingw32/bin/../lib/gcc/nios2-elf/4.1.2/../../../../nios2-elf/lib\libc.a(lib_a-callocr.o)
 .debug_ranges  0x00000620       0x30 c:/altera/10.0/nios2eds/bin/gnu/h-i686-mingw32/bin/../lib/gcc/nios2-elf/4.1.2\libgcc.a(_addsub_df.o)
 .debug_ranges  0x00000650       0x88 c:/altera/10.0/nios2eds/bin/gnu/h-i686-mingw32/bin/../lib/gcc/nios2-elf/4.1.2\libgcc.a(_mul_df.o)
 .debug_ranges  0x000006d8       0x18 c:/altera/10.0/nios2eds/bin/gnu/h-i686-mingw32/bin/../lib/gcc/nios2-elf/4.1.2\libgcc.a(_usi_to_df.o)
 .debug_ranges  0x000006f0       0x18 c:/altera/10.0/nios2eds/bin/gnu/h-i686-mingw32/bin/../lib/gcc/nios2-elf/4.1.2/../../../../nios2-elf/lib\libc.a(lib_a-__call_atexit.o)
